libblocxx.so.6 libblocxx6 #MINVER#
 _ZGVNSt7num_getIcSt19istreambuf_iteratorIcSt11char_traitsIcEEE2idE@Base 2.1.0
 _ZGVNSt7num_putIcSt19ostreambuf_iteratorIcSt11char_traitsIcEEE2idE@Base 2.1.0
 _ZGVNSt8numpunctIcE2idE@Base 2.1.0
 _ZN11__gnu_debug13_Not_equal_toISt23_Rb_tree_const_iteratorISt4pairIKN7blocxx66StringES4_EEEC1ERKS7_@Base 2.1.0
 _ZN11__gnu_debug13_Not_equal_toISt23_Rb_tree_const_iteratorISt4pairIKN7blocxx66StringES4_EEEC2ERKS7_@Base 2.1.0
 _ZN11__gnu_debug13__valid_rangeIN9__gnu_cxx17__normal_iteratorIPK10regmatch_tNSt9__cxx19986vectorIS3_SaIS3_EEEEEEEbRKT_SD_@Base 2.1.0
 _ZN11__gnu_debug13__valid_rangeIN9__gnu_cxx17__normal_iteratorIPKN7blocxx66StringENSt9__cxx19986vectorIS4_SaIS4_EEEEENSt7__debug6vectorIS4_S9_EEEEbRKNS_14_Safe_iteratorIT_T0_EESK_@Base 2.1.0
 _ZN11__gnu_debug13__valid_rangeIN9__gnu_cxx17__normal_iteratorIPKN7blocxx69PerlRegEx7match_tENSt9__cxx19986vectorIS5_SaIS5_EEEEEEEbRKT_SF_@Base 2.1.0
 _ZN11__gnu_debug13__valid_rangeIN9__gnu_cxx17__normal_iteratorIPKPKcNSt9__cxx19986vectorIS4_SaIS4_EEEEEEEbRKT_SE_@Base 2.1.0
 _ZN11__gnu_debug13__valid_rangeIN9__gnu_cxx17__normal_iteratorIPKSt4pairIN7blocxx66StringES5_ENSt9__cxx19986vectorIS6_SaIS6_EEEEENSt7__debug6vectorIS6_SB_EEEEbRKNS_14_Safe_iteratorIT_T0_EESM_@Base 2.1.0
 _ZN11__gnu_debug13__valid_rangeIN9__gnu_cxx17__normal_iteratorIPKSt4pairIiN7blocxx65ArrayINS4_6StringEEEENSt9__cxx19986vectorIS8_SaIS8_EEEEENSt7__debug6vectorIS8_SD_EEEEbRKNS_14_Safe_iteratorIT_T0_EESO_@Base 2.1.0
 _ZN11__gnu_debug13__valid_rangeIN9__gnu_cxx17__normal_iteratorIPKcNSt9__cxx19986vectorIcSaIcEEEEEEEbRKT_SC_@Base 2.1.0
 _ZN11__gnu_debug13__valid_rangeIN9__gnu_cxx17__normal_iteratorIPKiNSt9__cxx19986vectorIiSaIiEEEEEEEbRKT_SC_@Base 2.1.0
 _ZN11__gnu_debug13__valid_rangeIN9__gnu_cxx17__normal_iteratorIPKtNSt9__cxx19986vectorItSaItEEEEEEEbRKT_SC_@Base 2.1.0
 _ZN11__gnu_debug13__valid_rangeIN9__gnu_cxx17__normal_iteratorIPN7blocxx618IntrusiveReferenceINS3_6ThreadEEENSt9__cxx19986vectorIS6_SaIS6_EEEEEEEbRKT_SF_@Base 2.1.0
 _ZN11__gnu_debug13__valid_rangeIN9__gnu_cxx17__normal_iteratorIPN7blocxx66StringENSt9__cxx19986vectorIS4_SaIS4_EEEEEEEbRKT_SD_@Base 2.1.0
 _ZN11__gnu_debug13__valid_rangeIN9__gnu_cxx17__normal_iteratorIPN7blocxx66StringENSt9__cxx19986vectorIS4_SaIS4_EEEEENSt7__debug6vectorIS4_S8_EEEEbRKNS_14_Safe_iteratorIT_T0_EESJ_@Base 2.1.0
 _ZN11__gnu_debug13__valid_rangeIN9__gnu_cxx17__normal_iteratorIPSt4pairIiN7blocxx612SelectEngine4DataEENSt9__cxx19986vectorIS7_SaIS7_EEEEEEEbRKT_SG_@Base 2.1.0
 _ZN11__gnu_debug13__valid_rangeIN9__gnu_cxx17__normal_iteratorIPSt4pairIiN7blocxx612SelectEngine4DataEENSt9__cxx19986vectorIS7_SaIS7_EEEEENSt7__debug6vectorIS7_SB_EEEEbRKNS_14_Safe_iteratorIT_T0_EESM_@Base 2.1.0
 _ZN11__gnu_debug13__valid_rangeIN9__gnu_cxx17__normal_iteratorIPSt4pairIiN7blocxx65ArrayINS4_6StringEEEENSt9__cxx19986vectorIS8_SaIS8_EEEEENSt7__debug6vectorIS8_SC_EEEEbRKNS_14_Safe_iteratorIT_T0_EESN_@Base 2.1.0
 _ZN11__gnu_debug13__valid_rangeIN9__gnu_cxx17__normal_iteratorIPcNSt9__cxx19986vectorIcSaIcEEEEEEEbRKT_SB_@Base 2.1.0
 _ZN11__gnu_debug13__valid_rangeIN9__gnu_cxx17__normal_iteratorIPcNSt9__cxx19986vectorIcSaIcEEEEENSt7__debug6vectorIcS6_EEEEbRKNS_14_Safe_iteratorIT_T0_EESH_@Base 2.1.0
 _ZN11__gnu_debug13__valid_rangeIP10regmatch_tEEbRKT_S5_@Base 2.1.0
 _ZN11__gnu_debug13__valid_rangeIPKN7blocxx613CmdLineParser6OptionEEEbRKT_S8_@Base 2.1.0
 _ZN11__gnu_debug13__valid_rangeIPKcEEbRKT_S5_@Base 2.1.0
 _ZN11__gnu_debug13__valid_rangeIPN7blocxx618IntrusiveReferenceINS1_11LogAppenderEEEEEbRKT_S8_@Base 2.1.0
 _ZN11__gnu_debug13__valid_rangeIPN7blocxx618IntrusiveReferenceINS1_26LogMessagePatternFormatter9ConverterEEEEEbRKT_S9_@Base 2.1.0
 _ZN11__gnu_debug13__valid_rangeIPN7blocxx618IntrusiveReferenceINS1_6ThreadEEEEEbRKT_S8_@Base 2.1.0
 _ZN11__gnu_debug13__valid_rangeIPN7blocxx618IntrusiveReferenceINS1_7ProcessEEEEEbRKT_S8_@Base 2.1.0
 _ZN11__gnu_debug13__valid_rangeIPN7blocxx66Select12SelectObjectEEEbRKT_S7_@Base 2.1.0
 _ZN11__gnu_debug13__valid_rangeIPN7blocxx66StringEEEbRKT_S6_@Base 2.1.0
 _ZN11__gnu_debug13__valid_rangeIPN7blocxx69PerlRegEx7match_tEEEbRKT_S7_@Base 2.1.0
 _ZN11__gnu_debug13__valid_rangeIPPKcEEbRKT_S6_@Base 2.1.0
 _ZN11__gnu_debug13__valid_rangeIPPN7blocxx618IntrusiveReferenceINS1_8RunnableEEEEEbRKT_S9_@Base 2.1.0
 _ZN11__gnu_debug13__valid_rangeIPPcEEbRKT_S5_@Base 2.1.0
 _ZN11__gnu_debug13__valid_rangeIPSt4pairIN7blocxx66StringENS2_17EFileStatusReturnEEEEbRKT_S9_@Base 2.1.0
 _ZN11__gnu_debug13__valid_rangeIPSt4pairIiN7blocxx612SelectEngine4DataEEEEbRKT_S9_@Base 2.1.0
 _ZN11__gnu_debug13__valid_rangeIPSt4pairIiN7blocxx65ArrayINS2_6StringEEEEEEbRKT_SA_@Base 2.1.0
 _ZN11__gnu_debug13__valid_rangeIPcEEbRKT_S4_@Base 2.1.0
 _ZN11__gnu_debug13__valid_rangeIPhEEbRKT_S4_@Base 2.1.0
 _ZN11__gnu_debug13__valid_rangeIPiEEbRKT_S4_@Base 2.1.0
 _ZN11__gnu_debug13__valid_rangeIPtEEbRKT_S4_@Base 2.1.0
 _ZN11__gnu_debug14_Safe_iteratorIN9__gnu_cxx17__normal_iteratorIP10regmatch_tNSt9__cxx19986vectorIS3_SaIS3_EEEEENSt7__debug6vectorIS3_S7_EEEC1ERKS9_PKSC_@Base 2.1.0
 _ZN11__gnu_debug14_Safe_iteratorIN9__gnu_cxx17__normal_iteratorIP10regmatch_tNSt9__cxx19986vectorIS3_SaIS3_EEEEENSt7__debug6vectorIS3_S7_EEEC2ERKS9_PKSC_@Base 2.1.0
 _ZN11__gnu_debug14_Safe_iteratorIN9__gnu_cxx17__normal_iteratorIP10regmatch_tNSt9__cxx19986vectorIS3_SaIS3_EEEEENSt7__debug6vectorIS3_S7_EEED1Ev@Base 2.1.0
 _ZN11__gnu_debug14_Safe_iteratorIN9__gnu_cxx17__normal_iteratorIP10regmatch_tNSt9__cxx19986vectorIS3_SaIS3_EEEEENSt7__debug6vectorIS3_S7_EEED2Ev@Base 2.1.0
 _ZN11__gnu_debug14_Safe_iteratorIN9__gnu_cxx17__normal_iteratorIPK10regmatch_tNSt9__cxx19986vectorIS3_SaIS3_EEEEENSt7__debug6vectorIS3_S8_EEEC1INS2_IPS3_S9_EEEERKNS0_IT_NS1_11__enable_ifIXsrSt10__are_sameISI_SH_E7__valueESD_E6__typeEEE@Base 2.1.0
 _ZN11__gnu_debug14_Safe_iteratorIN9__gnu_cxx17__normal_iteratorIPK10regmatch_tNSt9__cxx19986vectorIS3_SaIS3_EEEEENSt7__debug6vectorIS3_S8_EEEC2INS2_IPS3_S9_EEEERKNS0_IT_NS1_11__enable_ifIXsrSt10__are_sameISI_SH_E7__valueESD_E6__typeEEE@Base 2.1.0
 _ZN11__gnu_debug14_Safe_iteratorIN9__gnu_cxx17__normal_iteratorIPK10regmatch_tNSt9__cxx19986vectorIS3_SaIS3_EEEEENSt7__debug6vectorIS3_S8_EEED1Ev@Base 2.1.0
 _ZN11__gnu_debug14_Safe_iteratorIN9__gnu_cxx17__normal_iteratorIPK10regmatch_tNSt9__cxx19986vectorIS3_SaIS3_EEEEENSt7__debug6vectorIS3_S8_EEED2Ev@Base 2.1.0
 _ZN11__gnu_debug14_Safe_iteratorIN9__gnu_cxx17__normal_iteratorIPK10regmatch_tNSt9__cxx19986vectorIS3_SaIS3_EEEEENSt7__debug6vectorIS3_S8_EEEppEv@Base 2.1.0
 _ZN11__gnu_debug14_Safe_iteratorIN9__gnu_cxx17__normal_iteratorIPKN7blocxx618IntrusiveReferenceINS3_26LogMessagePatternFormatter9ConverterEEENSt9__cxx19986vectorIS7_SaIS7_EEEEENSt7__debug6vectorIS7_SC_EEEC1ERKSE_PKSH_@Base 2.1.0
 _ZN11__gnu_debug14_Safe_iteratorIN9__gnu_cxx17__normal_iteratorIPKN7blocxx618IntrusiveReferenceINS3_26LogMessagePatternFormatter9ConverterEEENSt9__cxx19986vectorIS7_SaIS7_EEEEENSt7__debug6vectorIS7_SC_EEEC2ERKSE_PKSH_@Base 2.1.0
 _ZN11__gnu_debug14_Safe_iteratorIN9__gnu_cxx17__normal_iteratorIPKN7blocxx618IntrusiveReferenceINS3_26LogMessagePatternFormatter9ConverterEEENSt9__cxx19986vectorIS7_SaIS7_EEEEENSt7__debug6vectorIS7_SC_EEED1Ev@Base 2.1.0
 _ZN11__gnu_debug14_Safe_iteratorIN9__gnu_cxx17__normal_iteratorIPKN7blocxx618IntrusiveReferenceINS3_26LogMessagePatternFormatter9ConverterEEENSt9__cxx19986vectorIS7_SaIS7_EEEEENSt7__debug6vectorIS7_SC_EEED2Ev@Base 2.1.0
 _ZN11__gnu_debug14_Safe_iteratorIN9__gnu_cxx17__normal_iteratorIPKN7blocxx618IntrusiveReferenceINS3_26LogMessagePatternFormatter9ConverterEEENSt9__cxx19986vectorIS7_SaIS7_EEEEENSt7__debug6vectorIS7_SC_EEEppEv@Base 2.1.0
 _ZN11__gnu_debug14_Safe_iteratorIN9__gnu_cxx17__normal_iteratorIPKN7blocxx66StringENSt9__cxx19986vectorIS4_SaIS4_EEEEENSt7__debug6vectorIS4_S9_EEE15_M_get_distanceISB_SB_EESt4pairIlNSF_19_Distance_precisionEERKT_RKT0_@Base 2.1.0
 _ZN11__gnu_debug14_Safe_iteratorIN9__gnu_cxx17__normal_iteratorIPKN7blocxx66StringENSt9__cxx19986vectorIS4_SaIS4_EEEEENSt7__debug6vectorIS4_S9_EEE15_M_get_distanceISB_SB_EESt4pairIlNSF_19_Distance_precisionEERKT_RKT0_St26random_access_iterator_tag@Base 2.1.0
 _ZN11__gnu_debug14_Safe_iteratorIN9__gnu_cxx17__normal_iteratorIPKN7blocxx66StringENSt9__cxx19986vectorIS4_SaIS4_EEEEENSt7__debug6vectorIS4_S9_EEE9_M_attachEPNS_19_Safe_sequence_baseE@Base 2.1.0
 _ZN11__gnu_debug14_Safe_iteratorIN9__gnu_cxx17__normal_iteratorIPKN7blocxx66StringENSt9__cxx19986vectorIS4_SaIS4_EEEEENSt7__debug6vectorIS4_S9_EEEC1ERKSB_PKSE_@Base 2.1.0
 _ZN11__gnu_debug14_Safe_iteratorIN9__gnu_cxx17__normal_iteratorIPKN7blocxx66StringENSt9__cxx19986vectorIS4_SaIS4_EEEEENSt7__debug6vectorIS4_S9_EEEC1ERKSF_@Base 2.1.0
 _ZN11__gnu_debug14_Safe_iteratorIN9__gnu_cxx17__normal_iteratorIPKN7blocxx66StringENSt9__cxx19986vectorIS4_SaIS4_EEEEENSt7__debug6vectorIS4_S9_EEEC1Ev@Base 2.1.0
 _ZN11__gnu_debug14_Safe_iteratorIN9__gnu_cxx17__normal_iteratorIPKN7blocxx66StringENSt9__cxx19986vectorIS4_SaIS4_EEEEENSt7__debug6vectorIS4_S9_EEEC1INS2_IPS4_SA_EEEERKNS0_IT_NS1_11__enable_ifIXsrSt10__are_sameISJ_SI_E7__valueESE_E6__typeEEE@Base 2.1.0
 _ZN11__gnu_debug14_Safe_iteratorIN9__gnu_cxx17__normal_iteratorIPKN7blocxx66StringENSt9__cxx19986vectorIS4_SaIS4_EEEEENSt7__debug6vectorIS4_S9_EEEC2ERKSB_PKSE_@Base 2.1.0
 _ZN11__gnu_debug14_Safe_iteratorIN9__gnu_cxx17__normal_iteratorIPKN7blocxx66StringENSt9__cxx19986vectorIS4_SaIS4_EEEEENSt7__debug6vectorIS4_S9_EEEC2ERKSF_@Base 2.1.0
 _ZN11__gnu_debug14_Safe_iteratorIN9__gnu_cxx17__normal_iteratorIPKN7blocxx66StringENSt9__cxx19986vectorIS4_SaIS4_EEEEENSt7__debug6vectorIS4_S9_EEEC2Ev@Base 2.1.0
 _ZN11__gnu_debug14_Safe_iteratorIN9__gnu_cxx17__normal_iteratorIPKN7blocxx66StringENSt9__cxx19986vectorIS4_SaIS4_EEEEENSt7__debug6vectorIS4_S9_EEEC2INS2_IPS4_SA_EEEERKNS0_IT_NS1_11__enable_ifIXsrSt10__are_sameISJ_SI_E7__valueESE_E6__typeEEE@Base 2.1.0
 _ZN11__gnu_debug14_Safe_iteratorIN9__gnu_cxx17__normal_iteratorIPKN7blocxx66StringENSt9__cxx19986vectorIS4_SaIS4_EEEEENSt7__debug6vectorIS4_S9_EEED1Ev@Base 2.1.0
 _ZN11__gnu_debug14_Safe_iteratorIN9__gnu_cxx17__normal_iteratorIPKN7blocxx66StringENSt9__cxx19986vectorIS4_SaIS4_EEEEENSt7__debug6vectorIS4_S9_EEED2Ev@Base 2.1.0
 _ZN11__gnu_debug14_Safe_iteratorIN9__gnu_cxx17__normal_iteratorIPKN7blocxx66StringENSt9__cxx19986vectorIS4_SaIS4_EEEEENSt7__debug6vectorIS4_S9_EEEaSERKSF_@Base 2.1.0
 _ZN11__gnu_debug14_Safe_iteratorIN9__gnu_cxx17__normal_iteratorIPKN7blocxx66StringENSt9__cxx19986vectorIS4_SaIS4_EEEEENSt7__debug6vectorIS4_S9_EEEpLERKl@Base 2.1.0
 _ZN11__gnu_debug14_Safe_iteratorIN9__gnu_cxx17__normal_iteratorIPKN7blocxx66StringENSt9__cxx19986vectorIS4_SaIS4_EEEEENSt7__debug6vectorIS4_S9_EEEppEv@Base 2.1.0
 _ZN11__gnu_debug14_Safe_iteratorIN9__gnu_cxx17__normal_iteratorIPKN7blocxx69PerlRegEx7match_tENSt9__cxx19986vectorIS5_SaIS5_EEEEENSt7__debug6vectorIS5_SA_EEEC1INS2_IPS5_SB_EEEERKNS0_IT_NS1_11__enable_ifIXsrSt10__are_sameISK_SJ_E7__valueESF_E6__typeEEE@Base 2.1.0
 _ZN11__gnu_debug14_Safe_iteratorIN9__gnu_cxx17__normal_iteratorIPKN7blocxx69PerlRegEx7match_tENSt9__cxx19986vectorIS5_SaIS5_EEEEENSt7__debug6vectorIS5_SA_EEEC2INS2_IPS5_SB_EEEERKNS0_IT_NS1_11__enable_ifIXsrSt10__are_sameISK_SJ_E7__valueESF_E6__typeEEE@Base 2.1.0
 _ZN11__gnu_debug14_Safe_iteratorIN9__gnu_cxx17__normal_iteratorIPKN7blocxx69PerlRegEx7match_tENSt9__cxx19986vectorIS5_SaIS5_EEEEENSt7__debug6vectorIS5_SA_EEED1Ev@Base 2.1.0
 _ZN11__gnu_debug14_Safe_iteratorIN9__gnu_cxx17__normal_iteratorIPKN7blocxx69PerlRegEx7match_tENSt9__cxx19986vectorIS5_SaIS5_EEEEENSt7__debug6vectorIS5_SA_EEED2Ev@Base 2.1.0
 _ZN11__gnu_debug14_Safe_iteratorIN9__gnu_cxx17__normal_iteratorIPKN7blocxx69PerlRegEx7match_tENSt9__cxx19986vectorIS5_SaIS5_EEEEENSt7__debug6vectorIS5_SA_EEEppEv@Base 2.1.0
 _ZN11__gnu_debug14_Safe_iteratorIN9__gnu_cxx17__normal_iteratorIPKSt4pairIN7blocxx66StringENS4_17EFileStatusReturnEENSt9__cxx19986vectorIS7_SaIS7_EEEEENSt7__debug6vectorIS7_SC_EEEC1ERKSE_PKSH_@Base 2.1.0
 _ZN11__gnu_debug14_Safe_iteratorIN9__gnu_cxx17__normal_iteratorIPKSt4pairIN7blocxx66StringENS4_17EFileStatusReturnEENSt9__cxx19986vectorIS7_SaIS7_EEEEENSt7__debug6vectorIS7_SC_EEEC2ERKSE_PKSH_@Base 2.1.0
 _ZN11__gnu_debug14_Safe_iteratorIN9__gnu_cxx17__normal_iteratorIPKSt4pairIN7blocxx66StringENS4_17EFileStatusReturnEENSt9__cxx19986vectorIS7_SaIS7_EEEEENSt7__debug6vectorIS7_SC_EEED1Ev@Base 2.1.0
 _ZN11__gnu_debug14_Safe_iteratorIN9__gnu_cxx17__normal_iteratorIPKSt4pairIN7blocxx66StringENS4_17EFileStatusReturnEENSt9__cxx19986vectorIS7_SaIS7_EEEEENSt7__debug6vectorIS7_SC_EEED2Ev@Base 2.1.0
 _ZN11__gnu_debug14_Safe_iteratorIN9__gnu_cxx17__normal_iteratorIPKSt4pairIN7blocxx66StringENS4_17EFileStatusReturnEENSt9__cxx19986vectorIS7_SaIS7_EEEEENSt7__debug6vectorIS7_SC_EEEppEv@Base 2.1.0
 _ZN11__gnu_debug14_Safe_iteratorIN9__gnu_cxx17__normal_iteratorIPKSt4pairIN7blocxx66StringES5_ENSt9__cxx19986vectorIS6_SaIS6_EEEEENSt7__debug6vectorIS6_SB_EEE15_M_get_distanceISD_SD_EES3_IlNSH_19_Distance_precisionEERKT_RKT0_@Base 2.1.0
 _ZN11__gnu_debug14_Safe_iteratorIN9__gnu_cxx17__normal_iteratorIPKSt4pairIN7blocxx66StringES5_ENSt9__cxx19986vectorIS6_SaIS6_EEEEENSt7__debug6vectorIS6_SB_EEE15_M_get_distanceISD_SD_EES3_IlNSH_19_Distance_precisionEERKT_RKT0_St26random_access_iterator_tag@Base 2.1.0
 _ZN11__gnu_debug14_Safe_iteratorIN9__gnu_cxx17__normal_iteratorIPKSt4pairIN7blocxx66StringES5_ENSt9__cxx19986vectorIS6_SaIS6_EEEEENSt7__debug6vectorIS6_SB_EEE9_M_attachEPNS_19_Safe_sequence_baseE@Base 2.1.0
 _ZN11__gnu_debug14_Safe_iteratorIN9__gnu_cxx17__normal_iteratorIPKSt4pairIN7blocxx66StringES5_ENSt9__cxx19986vectorIS6_SaIS6_EEEEENSt7__debug6vectorIS6_SB_EEEC1ERKSD_PKSG_@Base 2.1.0
 _ZN11__gnu_debug14_Safe_iteratorIN9__gnu_cxx17__normal_iteratorIPKSt4pairIN7blocxx66StringES5_ENSt9__cxx19986vectorIS6_SaIS6_EEEEENSt7__debug6vectorIS6_SB_EEEC1ERKSH_@Base 2.1.0
 _ZN11__gnu_debug14_Safe_iteratorIN9__gnu_cxx17__normal_iteratorIPKSt4pairIN7blocxx66StringES5_ENSt9__cxx19986vectorIS6_SaIS6_EEEEENSt7__debug6vectorIS6_SB_EEEC2ERKSD_PKSG_@Base 2.1.0
 _ZN11__gnu_debug14_Safe_iteratorIN9__gnu_cxx17__normal_iteratorIPKSt4pairIN7blocxx66StringES5_ENSt9__cxx19986vectorIS6_SaIS6_EEEEENSt7__debug6vectorIS6_SB_EEEC2ERKSH_@Base 2.1.0
 _ZN11__gnu_debug14_Safe_iteratorIN9__gnu_cxx17__normal_iteratorIPKSt4pairIN7blocxx66StringES5_ENSt9__cxx19986vectorIS6_SaIS6_EEEEENSt7__debug6vectorIS6_SB_EEED1Ev@Base 2.1.0
 _ZN11__gnu_debug14_Safe_iteratorIN9__gnu_cxx17__normal_iteratorIPKSt4pairIN7blocxx66StringES5_ENSt9__cxx19986vectorIS6_SaIS6_EEEEENSt7__debug6vectorIS6_SB_EEED2Ev@Base 2.1.0
 _ZN11__gnu_debug14_Safe_iteratorIN9__gnu_cxx17__normal_iteratorIPKSt4pairIN7blocxx66StringES5_ENSt9__cxx19986vectorIS6_SaIS6_EEEEENSt7__debug6vectorIS6_SB_EEEaSERKSH_@Base 2.1.0
 _ZN11__gnu_debug14_Safe_iteratorIN9__gnu_cxx17__normal_iteratorIPKSt4pairIN7blocxx66StringES5_ENSt9__cxx19986vectorIS6_SaIS6_EEEEENSt7__debug6vectorIS6_SB_EEEpLERKl@Base 2.1.0
 _ZN11__gnu_debug14_Safe_iteratorIN9__gnu_cxx17__normal_iteratorIPKSt4pairIN7blocxx66StringES5_ENSt9__cxx19986vectorIS6_SaIS6_EEEEENSt7__debug6vectorIS6_SB_EEEppEv@Base 2.1.0
 _ZN11__gnu_debug14_Safe_iteratorIN9__gnu_cxx17__normal_iteratorIPKSt4pairIiN7blocxx612SelectEngine4DataEENSt9__cxx19986vectorIS7_SaIS7_EEEEENSt7__debug6vectorIS7_SC_EEEC1INS2_IPS7_SD_EEEERKNS0_IT_NS1_11__enable_ifIXsrSt10__are_sameISM_SL_E7__valueESH_E6__typeEEE@Base 2.1.0
 _ZN11__gnu_debug14_Safe_iteratorIN9__gnu_cxx17__normal_iteratorIPKSt4pairIiN7blocxx612SelectEngine4DataEENSt9__cxx19986vectorIS7_SaIS7_EEEEENSt7__debug6vectorIS7_SC_EEEC2INS2_IPS7_SD_EEEERKNS0_IT_NS1_11__enable_ifIXsrSt10__are_sameISM_SL_E7__valueESH_E6__typeEEE@Base 2.1.0
 _ZN11__gnu_debug14_Safe_iteratorIN9__gnu_cxx17__normal_iteratorIPKSt4pairIiN7blocxx612SelectEngine4DataEENSt9__cxx19986vectorIS7_SaIS7_EEEEENSt7__debug6vectorIS7_SC_EEED1Ev@Base 2.1.0
 _ZN11__gnu_debug14_Safe_iteratorIN9__gnu_cxx17__normal_iteratorIPKSt4pairIiN7blocxx612SelectEngine4DataEENSt9__cxx19986vectorIS7_SaIS7_EEEEENSt7__debug6vectorIS7_SC_EEED2Ev@Base 2.1.0
 _ZN11__gnu_debug14_Safe_iteratorIN9__gnu_cxx17__normal_iteratorIPKSt4pairIiN7blocxx612SelectEngine4DataEENSt9__cxx19986vectorIS7_SaIS7_EEEEENSt7__debug6vectorIS7_SC_EEEppEv@Base 2.1.0
 _ZN11__gnu_debug14_Safe_iteratorIN9__gnu_cxx17__normal_iteratorIPKSt4pairIiN7blocxx65ArrayINS4_6StringEEEENSt9__cxx19986vectorIS8_SaIS8_EEEEENSt7__debug6vectorIS8_SD_EEE15_M_get_distanceISF_SF_EES3_IlNSJ_19_Distance_precisionEERKT_RKT0_@Base 2.1.0
 _ZN11__gnu_debug14_Safe_iteratorIN9__gnu_cxx17__normal_iteratorIPKSt4pairIiN7blocxx65ArrayINS4_6StringEEEENSt9__cxx19986vectorIS8_SaIS8_EEEEENSt7__debug6vectorIS8_SD_EEE15_M_get_distanceISF_SF_EES3_IlNSJ_19_Distance_precisionEERKT_RKT0_St26random_access_iterator_tag@Base 2.1.0
 _ZN11__gnu_debug14_Safe_iteratorIN9__gnu_cxx17__normal_iteratorIPKSt4pairIiN7blocxx65ArrayINS4_6StringEEEENSt9__cxx19986vectorIS8_SaIS8_EEEEENSt7__debug6vectorIS8_SD_EEE9_M_attachEPNS_19_Safe_sequence_baseE@Base 2.1.0
 _ZN11__gnu_debug14_Safe_iteratorIN9__gnu_cxx17__normal_iteratorIPKSt4pairIiN7blocxx65ArrayINS4_6StringEEEENSt9__cxx19986vectorIS8_SaIS8_EEEEENSt7__debug6vectorIS8_SD_EEEC1ERKSF_PKSI_@Base 2.1.0
 _ZN11__gnu_debug14_Safe_iteratorIN9__gnu_cxx17__normal_iteratorIPKSt4pairIiN7blocxx65ArrayINS4_6StringEEEENSt9__cxx19986vectorIS8_SaIS8_EEEEENSt7__debug6vectorIS8_SD_EEEC1ERKSJ_@Base 2.1.0
 _ZN11__gnu_debug14_Safe_iteratorIN9__gnu_cxx17__normal_iteratorIPKSt4pairIiN7blocxx65ArrayINS4_6StringEEEENSt9__cxx19986vectorIS8_SaIS8_EEEEENSt7__debug6vectorIS8_SD_EEEC2ERKSF_PKSI_@Base 2.1.0
 _ZN11__gnu_debug14_Safe_iteratorIN9__gnu_cxx17__normal_iteratorIPKSt4pairIiN7blocxx65ArrayINS4_6StringEEEENSt9__cxx19986vectorIS8_SaIS8_EEEEENSt7__debug6vectorIS8_SD_EEEC2ERKSJ_@Base 2.1.0
 _ZN11__gnu_debug14_Safe_iteratorIN9__gnu_cxx17__normal_iteratorIPKSt4pairIiN7blocxx65ArrayINS4_6StringEEEENSt9__cxx19986vectorIS8_SaIS8_EEEEENSt7__debug6vectorIS8_SD_EEED1Ev@Base 2.1.0
 _ZN11__gnu_debug14_Safe_iteratorIN9__gnu_cxx17__normal_iteratorIPKSt4pairIiN7blocxx65ArrayINS4_6StringEEEENSt9__cxx19986vectorIS8_SaIS8_EEEEENSt7__debug6vectorIS8_SD_EEED2Ev@Base 2.1.0
 _ZN11__gnu_debug14_Safe_iteratorIN9__gnu_cxx17__normal_iteratorIPKSt4pairIiN7blocxx65ArrayINS4_6StringEEEENSt9__cxx19986vectorIS8_SaIS8_EEEEENSt7__debug6vectorIS8_SD_EEEaSERKSJ_@Base 2.1.0
 _ZN11__gnu_debug14_Safe_iteratorIN9__gnu_cxx17__normal_iteratorIPKSt4pairIiN7blocxx65ArrayINS4_6StringEEEENSt9__cxx19986vectorIS8_SaIS8_EEEEENSt7__debug6vectorIS8_SD_EEEpLERKl@Base 2.1.0
 _ZN11__gnu_debug14_Safe_iteratorIN9__gnu_cxx17__normal_iteratorIPKSt4pairIiN7blocxx65ArrayINS4_6StringEEEENSt9__cxx19986vectorIS8_SaIS8_EEEEENSt7__debug6vectorIS8_SD_EEEppEv@Base 2.1.0
 _ZN11__gnu_debug14_Safe_iteratorIN9__gnu_cxx17__normal_iteratorIPN7blocxx618IntrusiveReferenceINS3_6ThreadEEENSt9__cxx19986vectorIS6_SaIS6_EEEEENSt7__debug6vectorIS6_SA_EEE15_M_get_distanceINS2_IPKS6_SB_EESC_EESt4pairIlNSG_19_Distance_precisionEERKT_RKT0_@Base 2.1.0
 _ZN11__gnu_debug14_Safe_iteratorIN9__gnu_cxx17__normal_iteratorIPN7blocxx618IntrusiveReferenceINS3_6ThreadEEENSt9__cxx19986vectorIS6_SaIS6_EEEEENSt7__debug6vectorIS6_SA_EEE15_M_get_distanceINS2_IPKS6_SB_EESC_EESt4pairIlNSG_19_Distance_precisionEERKT_RKT0_St26random_access_iterator_tag@Base 2.1.0
 _ZN11__gnu_debug14_Safe_iteratorIN9__gnu_cxx17__normal_iteratorIPN7blocxx618IntrusiveReferenceINS3_6ThreadEEENSt9__cxx19986vectorIS6_SaIS6_EEEEENSt7__debug6vectorIS6_SA_EEE15_M_get_distanceISC_NS2_IPKS6_SB_EEEESt4pairIlNSG_19_Distance_precisionEERKT_RKT0_@Base 2.1.0
 _ZN11__gnu_debug14_Safe_iteratorIN9__gnu_cxx17__normal_iteratorIPN7blocxx618IntrusiveReferenceINS3_6ThreadEEENSt9__cxx19986vectorIS6_SaIS6_EEEEENSt7__debug6vectorIS6_SA_EEE15_M_get_distanceISC_NS2_IPKS6_SB_EEEESt4pairIlNSG_19_Distance_precisionEERKT_RKT0_St26random_access_iterator_tag@Base 2.1.0
 _ZN11__gnu_debug14_Safe_iteratorIN9__gnu_cxx17__normal_iteratorIPN7blocxx618IntrusiveReferenceINS3_6ThreadEEENSt9__cxx19986vectorIS6_SaIS6_EEEEENSt7__debug6vectorIS6_SA_EEEC1ERKSC_PKSF_@Base 2.1.0
 _ZN11__gnu_debug14_Safe_iteratorIN9__gnu_cxx17__normal_iteratorIPN7blocxx618IntrusiveReferenceINS3_6ThreadEEENSt9__cxx19986vectorIS6_SaIS6_EEEEENSt7__debug6vectorIS6_SA_EEEC1ERKSG_@Base 2.1.0
 _ZN11__gnu_debug14_Safe_iteratorIN9__gnu_cxx17__normal_iteratorIPN7blocxx618IntrusiveReferenceINS3_6ThreadEEENSt9__cxx19986vectorIS6_SaIS6_EEEEENSt7__debug6vectorIS6_SA_EEEC2ERKSC_PKSF_@Base 2.1.0
 _ZN11__gnu_debug14_Safe_iteratorIN9__gnu_cxx17__normal_iteratorIPN7blocxx618IntrusiveReferenceINS3_6ThreadEEENSt9__cxx19986vectorIS6_SaIS6_EEEEENSt7__debug6vectorIS6_SA_EEEC2ERKSG_@Base 2.1.0
 _ZN11__gnu_debug14_Safe_iteratorIN9__gnu_cxx17__normal_iteratorIPN7blocxx618IntrusiveReferenceINS3_6ThreadEEENSt9__cxx19986vectorIS6_SaIS6_EEEEENSt7__debug6vectorIS6_SA_EEED1Ev@Base 2.1.0
 _ZN11__gnu_debug14_Safe_iteratorIN9__gnu_cxx17__normal_iteratorIPN7blocxx618IntrusiveReferenceINS3_6ThreadEEENSt9__cxx19986vectorIS6_SaIS6_EEEEENSt7__debug6vectorIS6_SA_EEED2Ev@Base 2.1.0
 _ZN11__gnu_debug14_Safe_iteratorIN9__gnu_cxx17__normal_iteratorIPN7blocxx618IntrusiveReferenceINS3_6ThreadEEENSt9__cxx19986vectorIS6_SaIS6_EEEEENSt7__debug6vectorIS6_SA_EEEpLERKl@Base 2.1.0
 _ZN11__gnu_debug14_Safe_iteratorIN9__gnu_cxx17__normal_iteratorIPN7blocxx66StringENSt9__cxx19986vectorIS4_SaIS4_EEEEENSt7__debug6vectorIS4_S8_EEE15_M_get_distanceINS2_IPKS4_S9_EESA_EESt4pairIlNSE_19_Distance_precisionEERKT_RKT0_@Base 2.1.0
 _ZN11__gnu_debug14_Safe_iteratorIN9__gnu_cxx17__normal_iteratorIPN7blocxx66StringENSt9__cxx19986vectorIS4_SaIS4_EEEEENSt7__debug6vectorIS4_S8_EEE15_M_get_distanceINS2_IPKS4_S9_EESA_EESt4pairIlNSE_19_Distance_precisionEERKT_RKT0_St26random_access_iterator_tag@Base 2.1.0
 _ZN11__gnu_debug14_Safe_iteratorIN9__gnu_cxx17__normal_iteratorIPN7blocxx66StringENSt9__cxx19986vectorIS4_SaIS4_EEEEENSt7__debug6vectorIS4_S8_EEE15_M_get_distanceISA_NS2_IPKS4_S9_EEEESt4pairIlNSE_19_Distance_precisionEERKT_RKT0_@Base 2.1.0
 _ZN11__gnu_debug14_Safe_iteratorIN9__gnu_cxx17__normal_iteratorIPN7blocxx66StringENSt9__cxx19986vectorIS4_SaIS4_EEEEENSt7__debug6vectorIS4_S8_EEE15_M_get_distanceISA_NS2_IPKS4_S9_EEEESt4pairIlNSE_19_Distance_precisionEERKT_RKT0_St26random_access_iterator_tag@Base 2.1.0
 _ZN11__gnu_debug14_Safe_iteratorIN9__gnu_cxx17__normal_iteratorIPN7blocxx66StringENSt9__cxx19986vectorIS4_SaIS4_EEEEENSt7__debug6vectorIS4_S8_EEE15_M_get_distanceISA_SA_EESt4pairIlNSE_19_Distance_precisionEERKT_RKT0_@Base 2.1.0
 _ZN11__gnu_debug14_Safe_iteratorIN9__gnu_cxx17__normal_iteratorIPN7blocxx66StringENSt9__cxx19986vectorIS4_SaIS4_EEEEENSt7__debug6vectorIS4_S8_EEE15_M_get_distanceISA_SA_EESt4pairIlNSE_19_Distance_precisionEERKT_RKT0_St26random_access_iterator_tag@Base 2.1.0
 _ZN11__gnu_debug14_Safe_iteratorIN9__gnu_cxx17__normal_iteratorIPN7blocxx66StringENSt9__cxx19986vectorIS4_SaIS4_EEEEENSt7__debug6vectorIS4_S8_EEE9_M_attachEPNS_19_Safe_sequence_baseE@Base 2.1.0
 _ZN11__gnu_debug14_Safe_iteratorIN9__gnu_cxx17__normal_iteratorIPN7blocxx66StringENSt9__cxx19986vectorIS4_SaIS4_EEEEENSt7__debug6vectorIS4_S8_EEEC1ERKSA_PKSD_@Base 2.1.0
 _ZN11__gnu_debug14_Safe_iteratorIN9__gnu_cxx17__normal_iteratorIPN7blocxx66StringENSt9__cxx19986vectorIS4_SaIS4_EEEEENSt7__debug6vectorIS4_S8_EEEC1ERKSE_@Base 2.1.0
 _ZN11__gnu_debug14_Safe_iteratorIN9__gnu_cxx17__normal_iteratorIPN7blocxx66StringENSt9__cxx19986vectorIS4_SaIS4_EEEEENSt7__debug6vectorIS4_S8_EEEC2ERKSA_PKSD_@Base 2.1.0
 _ZN11__gnu_debug14_Safe_iteratorIN9__gnu_cxx17__normal_iteratorIPN7blocxx66StringENSt9__cxx19986vectorIS4_SaIS4_EEEEENSt7__debug6vectorIS4_S8_EEEC2ERKSE_@Base 2.1.0
 _ZN11__gnu_debug14_Safe_iteratorIN9__gnu_cxx17__normal_iteratorIPN7blocxx66StringENSt9__cxx19986vectorIS4_SaIS4_EEEEENSt7__debug6vectorIS4_S8_EEED1Ev@Base 2.1.0
 _ZN11__gnu_debug14_Safe_iteratorIN9__gnu_cxx17__normal_iteratorIPN7blocxx66StringENSt9__cxx19986vectorIS4_SaIS4_EEEEENSt7__debug6vectorIS4_S8_EEED2Ev@Base 2.1.0
 _ZN11__gnu_debug14_Safe_iteratorIN9__gnu_cxx17__normal_iteratorIPN7blocxx66StringENSt9__cxx19986vectorIS4_SaIS4_EEEEENSt7__debug6vectorIS4_S8_EEEaSERKSE_@Base 2.1.0
 _ZN11__gnu_debug14_Safe_iteratorIN9__gnu_cxx17__normal_iteratorIPN7blocxx66StringENSt9__cxx19986vectorIS4_SaIS4_EEEEENSt7__debug6vectorIS4_S8_EEEmIERKl@Base 2.1.0
 _ZN11__gnu_debug14_Safe_iteratorIN9__gnu_cxx17__normal_iteratorIPN7blocxx66StringENSt9__cxx19986vectorIS4_SaIS4_EEEEENSt7__debug6vectorIS4_S8_EEEmmEv@Base 2.1.0
 _ZN11__gnu_debug14_Safe_iteratorIN9__gnu_cxx17__normal_iteratorIPN7blocxx66StringENSt9__cxx19986vectorIS4_SaIS4_EEEEENSt7__debug6vectorIS4_S8_EEEpLERKl@Base 2.1.0
 _ZN11__gnu_debug14_Safe_iteratorIN9__gnu_cxx17__normal_iteratorIPN7blocxx66StringENSt9__cxx19986vectorIS4_SaIS4_EEEEENSt7__debug6vectorIS4_S8_EEEppEv@Base 2.1.0
 _ZN11__gnu_debug14_Safe_iteratorIN9__gnu_cxx17__normal_iteratorIPN7blocxx69PerlRegEx7match_tENSt9__cxx19986vectorIS5_SaIS5_EEEEENSt7__debug6vectorIS5_S9_EEEC1ERKSB_PKSE_@Base 2.1.0
 _ZN11__gnu_debug14_Safe_iteratorIN9__gnu_cxx17__normal_iteratorIPN7blocxx69PerlRegEx7match_tENSt9__cxx19986vectorIS5_SaIS5_EEEEENSt7__debug6vectorIS5_S9_EEEC2ERKSB_PKSE_@Base 2.1.0
 _ZN11__gnu_debug14_Safe_iteratorIN9__gnu_cxx17__normal_iteratorIPN7blocxx69PerlRegEx7match_tENSt9__cxx19986vectorIS5_SaIS5_EEEEENSt7__debug6vectorIS5_S9_EEED1Ev@Base 2.1.0
 _ZN11__gnu_debug14_Safe_iteratorIN9__gnu_cxx17__normal_iteratorIPN7blocxx69PerlRegEx7match_tENSt9__cxx19986vectorIS5_SaIS5_EEEEENSt7__debug6vectorIS5_S9_EEED2Ev@Base 2.1.0
 _ZN11__gnu_debug14_Safe_iteratorIN9__gnu_cxx17__normal_iteratorIPSt4pairIiN7blocxx612SelectEngine4DataEENSt9__cxx19986vectorIS7_SaIS7_EEEEENSt7__debug6vectorIS7_SB_EEE15_M_get_distanceINS2_IPKS7_SC_EESD_EES3_IlNSH_19_Distance_precisionEERKT_RKT0_@Base 2.1.0
 _ZN11__gnu_debug14_Safe_iteratorIN9__gnu_cxx17__normal_iteratorIPSt4pairIiN7blocxx612SelectEngine4DataEENSt9__cxx19986vectorIS7_SaIS7_EEEEENSt7__debug6vectorIS7_SB_EEE15_M_get_distanceINS2_IPKS7_SC_EESD_EES3_IlNSH_19_Distance_precisionEERKT_RKT0_St26random_access_iterator_tag@Base 2.1.0
 _ZN11__gnu_debug14_Safe_iteratorIN9__gnu_cxx17__normal_iteratorIPSt4pairIiN7blocxx612SelectEngine4DataEENSt9__cxx19986vectorIS7_SaIS7_EEEEENSt7__debug6vectorIS7_SB_EEE15_M_get_distanceISD_NS2_IPKS7_SC_EEEES3_IlNSH_19_Distance_precisionEERKT_RKT0_@Base 2.1.0
 _ZN11__gnu_debug14_Safe_iteratorIN9__gnu_cxx17__normal_iteratorIPSt4pairIiN7blocxx612SelectEngine4DataEENSt9__cxx19986vectorIS7_SaIS7_EEEEENSt7__debug6vectorIS7_SB_EEE15_M_get_distanceISD_NS2_IPKS7_SC_EEEES3_IlNSH_19_Distance_precisionEERKT_RKT0_St26random_access_iterator_tag@Base 2.1.0
 _ZN11__gnu_debug14_Safe_iteratorIN9__gnu_cxx17__normal_iteratorIPSt4pairIiN7blocxx612SelectEngine4DataEENSt9__cxx19986vectorIS7_SaIS7_EEEEENSt7__debug6vectorIS7_SB_EEE15_M_get_distanceISD_SD_EES3_IlNSH_19_Distance_precisionEERKT_RKT0_@Base 2.1.0
 _ZN11__gnu_debug14_Safe_iteratorIN9__gnu_cxx17__normal_iteratorIPSt4pairIiN7blocxx612SelectEngine4DataEENSt9__cxx19986vectorIS7_SaIS7_EEEEENSt7__debug6vectorIS7_SB_EEE15_M_get_distanceISD_SD_EES3_IlNSH_19_Distance_precisionEERKT_RKT0_St26random_access_iterator_tag@Base 2.1.0
 _ZN11__gnu_debug14_Safe_iteratorIN9__gnu_cxx17__normal_iteratorIPSt4pairIiN7blocxx612SelectEngine4DataEENSt9__cxx19986vectorIS7_SaIS7_EEEEENSt7__debug6vectorIS7_SB_EEE9_M_attachEPNS_19_Safe_sequence_baseE@Base 2.1.0
 _ZN11__gnu_debug14_Safe_iteratorIN9__gnu_cxx17__normal_iteratorIPSt4pairIiN7blocxx612SelectEngine4DataEENSt9__cxx19986vectorIS7_SaIS7_EEEEENSt7__debug6vectorIS7_SB_EEEC1ERKSD_PKSG_@Base 2.1.0
 _ZN11__gnu_debug14_Safe_iteratorIN9__gnu_cxx17__normal_iteratorIPSt4pairIiN7blocxx612SelectEngine4DataEENSt9__cxx19986vectorIS7_SaIS7_EEEEENSt7__debug6vectorIS7_SB_EEEC1ERKSH_@Base 2.1.0
 _ZN11__gnu_debug14_Safe_iteratorIN9__gnu_cxx17__normal_iteratorIPSt4pairIiN7blocxx612SelectEngine4DataEENSt9__cxx19986vectorIS7_SaIS7_EEEEENSt7__debug6vectorIS7_SB_EEEC2ERKSD_PKSG_@Base 2.1.0
 _ZN11__gnu_debug14_Safe_iteratorIN9__gnu_cxx17__normal_iteratorIPSt4pairIiN7blocxx612SelectEngine4DataEENSt9__cxx19986vectorIS7_SaIS7_EEEEENSt7__debug6vectorIS7_SB_EEEC2ERKSH_@Base 2.1.0
 _ZN11__gnu_debug14_Safe_iteratorIN9__gnu_cxx17__normal_iteratorIPSt4pairIiN7blocxx612SelectEngine4DataEENSt9__cxx19986vectorIS7_SaIS7_EEEEENSt7__debug6vectorIS7_SB_EEED1Ev@Base 2.1.0
 _ZN11__gnu_debug14_Safe_iteratorIN9__gnu_cxx17__normal_iteratorIPSt4pairIiN7blocxx612SelectEngine4DataEENSt9__cxx19986vectorIS7_SaIS7_EEEEENSt7__debug6vectorIS7_SB_EEED2Ev@Base 2.1.0
 _ZN11__gnu_debug14_Safe_iteratorIN9__gnu_cxx17__normal_iteratorIPSt4pairIiN7blocxx612SelectEngine4DataEENSt9__cxx19986vectorIS7_SaIS7_EEEEENSt7__debug6vectorIS7_SB_EEEaSERKSH_@Base 2.1.0
 _ZN11__gnu_debug14_Safe_iteratorIN9__gnu_cxx17__normal_iteratorIPSt4pairIiN7blocxx612SelectEngine4DataEENSt9__cxx19986vectorIS7_SaIS7_EEEEENSt7__debug6vectorIS7_SB_EEEpLERKl@Base 2.1.0
 _ZN11__gnu_debug14_Safe_iteratorIN9__gnu_cxx17__normal_iteratorIPSt4pairIiN7blocxx612SelectEngine4DataEENSt9__cxx19986vectorIS7_SaIS7_EEEEENSt7__debug6vectorIS7_SB_EEEppEv@Base 2.1.0
 _ZN11__gnu_debug14_Safe_iteratorIN9__gnu_cxx17__normal_iteratorIPSt4pairIiN7blocxx65ArrayINS4_6StringEEEENSt9__cxx19986vectorIS8_SaIS8_EEEEENSt7__debug6vectorIS8_SC_EEE15_M_get_distanceINS2_IPKS8_SD_EESE_EES3_IlNSI_19_Distance_precisionEERKT_RKT0_@Base 2.1.0
 _ZN11__gnu_debug14_Safe_iteratorIN9__gnu_cxx17__normal_iteratorIPSt4pairIiN7blocxx65ArrayINS4_6StringEEEENSt9__cxx19986vectorIS8_SaIS8_EEEEENSt7__debug6vectorIS8_SC_EEE15_M_get_distanceINS2_IPKS8_SD_EESE_EES3_IlNSI_19_Distance_precisionEERKT_RKT0_St26random_access_iterator_tag@Base 2.1.0
 _ZN11__gnu_debug14_Safe_iteratorIN9__gnu_cxx17__normal_iteratorIPSt4pairIiN7blocxx65ArrayINS4_6StringEEEENSt9__cxx19986vectorIS8_SaIS8_EEEEENSt7__debug6vectorIS8_SC_EEE15_M_get_distanceISE_NS2_IPKS8_SD_EEEES3_IlNSI_19_Distance_precisionEERKT_RKT0_@Base 2.1.0
 _ZN11__gnu_debug14_Safe_iteratorIN9__gnu_cxx17__normal_iteratorIPSt4pairIiN7blocxx65ArrayINS4_6StringEEEENSt9__cxx19986vectorIS8_SaIS8_EEEEENSt7__debug6vectorIS8_SC_EEE15_M_get_distanceISE_NS2_IPKS8_SD_EEEES3_IlNSI_19_Distance_precisionEERKT_RKT0_St26random_access_iterator_tag@Base 2.1.0
 _ZN11__gnu_debug14_Safe_iteratorIN9__gnu_cxx17__normal_iteratorIPSt4pairIiN7blocxx65ArrayINS4_6StringEEEENSt9__cxx19986vectorIS8_SaIS8_EEEEENSt7__debug6vectorIS8_SC_EEE15_M_get_distanceISE_SE_EES3_IlNSI_19_Distance_precisionEERKT_RKT0_@Base 2.1.0
 _ZN11__gnu_debug14_Safe_iteratorIN9__gnu_cxx17__normal_iteratorIPSt4pairIiN7blocxx65ArrayINS4_6StringEEEENSt9__cxx19986vectorIS8_SaIS8_EEEEENSt7__debug6vectorIS8_SC_EEE15_M_get_distanceISE_SE_EES3_IlNSI_19_Distance_precisionEERKT_RKT0_St26random_access_iterator_tag@Base 2.1.0
 _ZN11__gnu_debug14_Safe_iteratorIN9__gnu_cxx17__normal_iteratorIPSt4pairIiN7blocxx65ArrayINS4_6StringEEEENSt9__cxx19986vectorIS8_SaIS8_EEEEENSt7__debug6vectorIS8_SC_EEE9_M_attachEPNS_19_Safe_sequence_baseE@Base 2.1.0
 _ZN11__gnu_debug14_Safe_iteratorIN9__gnu_cxx17__normal_iteratorIPSt4pairIiN7blocxx65ArrayINS4_6StringEEEENSt9__cxx19986vectorIS8_SaIS8_EEEEENSt7__debug6vectorIS8_SC_EEEC1ERKSE_PKSH_@Base 2.1.0
 _ZN11__gnu_debug14_Safe_iteratorIN9__gnu_cxx17__normal_iteratorIPSt4pairIiN7blocxx65ArrayINS4_6StringEEEENSt9__cxx19986vectorIS8_SaIS8_EEEEENSt7__debug6vectorIS8_SC_EEEC1ERKSI_@Base 2.1.0
 _ZN11__gnu_debug14_Safe_iteratorIN9__gnu_cxx17__normal_iteratorIPSt4pairIiN7blocxx65ArrayINS4_6StringEEEENSt9__cxx19986vectorIS8_SaIS8_EEEEENSt7__debug6vectorIS8_SC_EEEC2ERKSE_PKSH_@Base 2.1.0
 _ZN11__gnu_debug14_Safe_iteratorIN9__gnu_cxx17__normal_iteratorIPSt4pairIiN7blocxx65ArrayINS4_6StringEEEENSt9__cxx19986vectorIS8_SaIS8_EEEEENSt7__debug6vectorIS8_SC_EEEC2ERKSI_@Base 2.1.0
 _ZN11__gnu_debug14_Safe_iteratorIN9__gnu_cxx17__normal_iteratorIPSt4pairIiN7blocxx65ArrayINS4_6StringEEEENSt9__cxx19986vectorIS8_SaIS8_EEEEENSt7__debug6vectorIS8_SC_EEED1Ev@Base 2.1.0
 _ZN11__gnu_debug14_Safe_iteratorIN9__gnu_cxx17__normal_iteratorIPSt4pairIiN7blocxx65ArrayINS4_6StringEEEENSt9__cxx19986vectorIS8_SaIS8_EEEEENSt7__debug6vectorIS8_SC_EEED2Ev@Base 2.1.0
 _ZN11__gnu_debug14_Safe_iteratorIN9__gnu_cxx17__normal_iteratorIPSt4pairIiN7blocxx65ArrayINS4_6StringEEEENSt9__cxx19986vectorIS8_SaIS8_EEEEENSt7__debug6vectorIS8_SC_EEEaSERKSI_@Base 2.1.0
 _ZN11__gnu_debug14_Safe_iteratorIN9__gnu_cxx17__normal_iteratorIPSt4pairIiN7blocxx65ArrayINS4_6StringEEEENSt9__cxx19986vectorIS8_SaIS8_EEEEENSt7__debug6vectorIS8_SC_EEEpLERKl@Base 2.1.0
 _ZN11__gnu_debug14_Safe_iteratorIN9__gnu_cxx17__normal_iteratorIPSt4pairIiN7blocxx65ArrayINS4_6StringEEEENSt9__cxx19986vectorIS8_SaIS8_EEEEENSt7__debug6vectorIS8_SC_EEEppEv@Base 2.1.0
 _ZN11__gnu_debug14_Safe_iteratorIN9__gnu_cxx17__normal_iteratorIPcNSt9__cxx19986vectorIcSaIcEEEEENSt7__debug6vectorIcS6_EEE15_M_get_distanceINS2_IPKcS7_EES8_EESt4pairIlNSC_19_Distance_precisionEERKT_RKT0_@Base 2.1.0
 _ZN11__gnu_debug14_Safe_iteratorIN9__gnu_cxx17__normal_iteratorIPcNSt9__cxx19986vectorIcSaIcEEEEENSt7__debug6vectorIcS6_EEE15_M_get_distanceINS2_IPKcS7_EES8_EESt4pairIlNSC_19_Distance_precisionEERKT_RKT0_St26random_access_iterator_tag@Base 2.1.0
 _ZN11__gnu_debug14_Safe_iteratorIN9__gnu_cxx17__normal_iteratorIPcNSt9__cxx19986vectorIcSaIcEEEEENSt7__debug6vectorIcS6_EEE15_M_get_distanceIS8_NS2_IPKcS7_EEEESt4pairIlNSC_19_Distance_precisionEERKT_RKT0_@Base 2.1.0
 _ZN11__gnu_debug14_Safe_iteratorIN9__gnu_cxx17__normal_iteratorIPcNSt9__cxx19986vectorIcSaIcEEEEENSt7__debug6vectorIcS6_EEE15_M_get_distanceIS8_NS2_IPKcS7_EEEESt4pairIlNSC_19_Distance_precisionEERKT_RKT0_St26random_access_iterator_tag@Base 2.1.0
 _ZN11__gnu_debug14_Safe_iteratorIN9__gnu_cxx17__normal_iteratorIPcNSt9__cxx19986vectorIcSaIcEEEEENSt7__debug6vectorIcS6_EEE15_M_get_distanceIS8_S8_EESt4pairIlNSC_19_Distance_precisionEERKT_RKT0_@Base 2.1.0
 _ZN11__gnu_debug14_Safe_iteratorIN9__gnu_cxx17__normal_iteratorIPcNSt9__cxx19986vectorIcSaIcEEEEENSt7__debug6vectorIcS6_EEE15_M_get_distanceIS8_S8_EESt4pairIlNSC_19_Distance_precisionEERKT_RKT0_St26random_access_iterator_tag@Base 2.1.0
 _ZN11__gnu_debug14_Safe_iteratorIN9__gnu_cxx17__normal_iteratorIPcNSt9__cxx19986vectorIcSaIcEEEEENSt7__debug6vectorIcS6_EEEC1ERKS8_PKSB_@Base 2.1.0
 _ZN11__gnu_debug14_Safe_iteratorIN9__gnu_cxx17__normal_iteratorIPcNSt9__cxx19986vectorIcSaIcEEEEENSt7__debug6vectorIcS6_EEEC1ERKSC_@Base 2.1.0
 _ZN11__gnu_debug14_Safe_iteratorIN9__gnu_cxx17__normal_iteratorIPcNSt9__cxx19986vectorIcSaIcEEEEENSt7__debug6vectorIcS6_EEEC2ERKS8_PKSB_@Base 2.1.0
 _ZN11__gnu_debug14_Safe_iteratorIN9__gnu_cxx17__normal_iteratorIPcNSt9__cxx19986vectorIcSaIcEEEEENSt7__debug6vectorIcS6_EEEC2ERKSC_@Base 2.1.0
 _ZN11__gnu_debug14_Safe_iteratorIN9__gnu_cxx17__normal_iteratorIPcNSt9__cxx19986vectorIcSaIcEEEEENSt7__debug6vectorIcS6_EEED1Ev@Base 2.1.0
 _ZN11__gnu_debug14_Safe_iteratorIN9__gnu_cxx17__normal_iteratorIPcNSt9__cxx19986vectorIcSaIcEEEEENSt7__debug6vectorIcS6_EEED2Ev@Base 2.1.0
 _ZN11__gnu_debug14_Safe_iteratorIN9__gnu_cxx17__normal_iteratorIPcNSt9__cxx19986vectorIcSaIcEEEEENSt7__debug6vectorIcS6_EEEpLERKl@Base 2.1.0
 _ZN11__gnu_debug14_Safe_iteratorIN9__gnu_cxx17__normal_iteratorIPhNSt9__cxx19986vectorIhSaIhEEEEENSt7__debug6vectorIhS6_EEEC1ERKS8_PKSB_@Base 2.1.0
 _ZN11__gnu_debug14_Safe_iteratorIN9__gnu_cxx17__normal_iteratorIPhNSt9__cxx19986vectorIhSaIhEEEEENSt7__debug6vectorIhS6_EEEC2ERKS8_PKSB_@Base 2.1.0
 _ZN11__gnu_debug14_Safe_iteratorIN9__gnu_cxx17__normal_iteratorIPhNSt9__cxx19986vectorIhSaIhEEEEENSt7__debug6vectorIhS6_EEED1Ev@Base 2.1.0
 _ZN11__gnu_debug14_Safe_iteratorIN9__gnu_cxx17__normal_iteratorIPhNSt9__cxx19986vectorIhSaIhEEEEENSt7__debug6vectorIhS6_EEED2Ev@Base 2.1.0
 _ZN11__gnu_debug14_Safe_iteratorISt17_Rb_tree_iteratorISt4pairIKN7blocxx66StringENS3_13SSLTrustStore8UserInfoEEENSt7__debug3mapIS4_S7_St4lessIS4_ESaIS8_EEEEC1ERKS9_PKSF_@Base 2.1.0
 _ZN11__gnu_debug14_Safe_iteratorISt17_Rb_tree_iteratorISt4pairIKN7blocxx66StringENS3_13SSLTrustStore8UserInfoEEENSt7__debug3mapIS4_S7_St4lessIS4_ESaIS8_EEEEC1ERKSG_@Base 2.1.0
 _ZN11__gnu_debug14_Safe_iteratorISt17_Rb_tree_iteratorISt4pairIKN7blocxx66StringENS3_13SSLTrustStore8UserInfoEEENSt7__debug3mapIS4_S7_St4lessIS4_ESaIS8_EEEEC2ERKS9_PKSF_@Base 2.1.0
 _ZN11__gnu_debug14_Safe_iteratorISt17_Rb_tree_iteratorISt4pairIKN7blocxx66StringENS3_13SSLTrustStore8UserInfoEEENSt7__debug3mapIS4_S7_St4lessIS4_ESaIS8_EEEEC2ERKSG_@Base 2.1.0
 _ZN11__gnu_debug14_Safe_iteratorISt17_Rb_tree_iteratorISt4pairIKN7blocxx66StringENS3_13SSLTrustStore8UserInfoEEENSt7__debug3mapIS4_S7_St4lessIS4_ESaIS8_EEEED1Ev@Base 2.1.0
 _ZN11__gnu_debug14_Safe_iteratorISt17_Rb_tree_iteratorISt4pairIKN7blocxx66StringENS3_13SSLTrustStore8UserInfoEEENSt7__debug3mapIS4_S7_St4lessIS4_ESaIS8_EEEED2Ev@Base 2.1.0
 _ZN11__gnu_debug14_Safe_iteratorISt17_Rb_tree_iteratorISt4pairIKN7blocxx66StringES4_EENSt7__debug3mapIS4_S4_St4lessIS4_ESaIS6_EEEEC1ERKS7_PKSD_@Base 2.1.0
 _ZN11__gnu_debug14_Safe_iteratorISt17_Rb_tree_iteratorISt4pairIKN7blocxx66StringES4_EENSt7__debug3mapIS4_S4_St4lessIS4_ESaIS6_EEEEC1ERKSE_@Base 2.1.0
 _ZN11__gnu_debug14_Safe_iteratorISt17_Rb_tree_iteratorISt4pairIKN7blocxx66StringES4_EENSt7__debug3mapIS4_S4_St4lessIS4_ESaIS6_EEEEC2ERKS7_PKSD_@Base 2.1.0
 _ZN11__gnu_debug14_Safe_iteratorISt17_Rb_tree_iteratorISt4pairIKN7blocxx66StringES4_EENSt7__debug3mapIS4_S4_St4lessIS4_ESaIS6_EEEEC2ERKSE_@Base 2.1.0
 _ZN11__gnu_debug14_Safe_iteratorISt17_Rb_tree_iteratorISt4pairIKN7blocxx66StringES4_EENSt7__debug3mapIS4_S4_St4lessIS4_ESaIS6_EEEED1Ev@Base 2.1.0
 _ZN11__gnu_debug14_Safe_iteratorISt17_Rb_tree_iteratorISt4pairIKN7blocxx66StringES4_EENSt7__debug3mapIS4_S4_St4lessIS4_ESaIS6_EEEED2Ev@Base 2.1.0
 _ZN11__gnu_debug14_Safe_iteratorISt17_Rb_tree_iteratorISt4pairIKmN7blocxx617GenericRWLockImplImNS4_8RWLocker14ThreadComparerEE10LockerInfoEEENSt7__debug3mapImS9_S7_SaISA_EEEEC1ERKSB_PKSF_@Base 2.1.0
 _ZN11__gnu_debug14_Safe_iteratorISt17_Rb_tree_iteratorISt4pairIKmN7blocxx617GenericRWLockImplImNS4_8RWLocker14ThreadComparerEE10LockerInfoEEENSt7__debug3mapImS9_S7_SaISA_EEEEC1ERKSG_@Base 2.1.0
 _ZN11__gnu_debug14_Safe_iteratorISt17_Rb_tree_iteratorISt4pairIKmN7blocxx617GenericRWLockImplImNS4_8RWLocker14ThreadComparerEE10LockerInfoEEENSt7__debug3mapImS9_S7_SaISA_EEEEC2ERKSB_PKSF_@Base 2.1.0
 _ZN11__gnu_debug14_Safe_iteratorISt17_Rb_tree_iteratorISt4pairIKmN7blocxx617GenericRWLockImplImNS4_8RWLocker14ThreadComparerEE10LockerInfoEEENSt7__debug3mapImS9_S7_SaISA_EEEEC2ERKSG_@Base 2.1.0
 _ZN11__gnu_debug14_Safe_iteratorISt17_Rb_tree_iteratorISt4pairIKmN7blocxx617GenericRWLockImplImNS4_8RWLocker14ThreadComparerEE10LockerInfoEEENSt7__debug3mapImS9_S7_SaISA_EEEED1Ev@Base 2.1.0
 _ZN11__gnu_debug14_Safe_iteratorISt17_Rb_tree_iteratorISt4pairIKmN7blocxx617GenericRWLockImplImNS4_8RWLocker14ThreadComparerEE10LockerInfoEEENSt7__debug3mapImS9_S7_SaISA_EEEED2Ev@Base 2.1.0
 _ZN11__gnu_debug14_Safe_iteratorISt23_Rb_tree_const_iteratorISt4pairIKN7blocxx66StringENS3_13SSLTrustStore8UserInfoEEENSt7__debug3mapIS4_S7_St4lessIS4_ESaIS8_EEEEC1ISt17_Rb_tree_iteratorIS8_EEERKNS0_IT_N9__gnu_cxx11__enable_ifIXsrSt10__are_sameISK_SJ_E7__valueESF_E6__typeEEE@Base 2.1.0
 _ZN11__gnu_debug14_Safe_iteratorISt23_Rb_tree_const_iteratorISt4pairIKN7blocxx66StringENS3_13SSLTrustStore8UserInfoEEENSt7__debug3mapIS4_S7_St4lessIS4_ESaIS8_EEEEC2ISt17_Rb_tree_iteratorIS8_EEERKNS0_IT_N9__gnu_cxx11__enable_ifIXsrSt10__are_sameISK_SJ_E7__valueESF_E6__typeEEE@Base 2.1.0
 _ZN11__gnu_debug14_Safe_iteratorISt23_Rb_tree_const_iteratorISt4pairIKN7blocxx66StringENS3_13SSLTrustStore8UserInfoEEENSt7__debug3mapIS4_S7_St4lessIS4_ESaIS8_EEEED1Ev@Base 2.1.0
 _ZN11__gnu_debug14_Safe_iteratorISt23_Rb_tree_const_iteratorISt4pairIKN7blocxx66StringENS3_13SSLTrustStore8UserInfoEEENSt7__debug3mapIS4_S7_St4lessIS4_ESaIS8_EEEED2Ev@Base 2.1.0
 _ZN11__gnu_debug14_Safe_iteratorISt23_Rb_tree_const_iteratorISt4pairIKN7blocxx66StringENS3_13SSLTrustStore8UserInfoEEENSt7__debug3mapIS4_S7_St4lessIS4_ESaIS8_EEEEppEv@Base 2.1.0
 _ZN11__gnu_debug14_Safe_iteratorISt23_Rb_tree_const_iteratorISt4pairIKN7blocxx66StringES4_EENSt7__debug3mapIS4_S4_St4lessIS4_ESaIS6_EEEEC1ERKS7_PKSD_@Base 2.1.0
 _ZN11__gnu_debug14_Safe_iteratorISt23_Rb_tree_const_iteratorISt4pairIKN7blocxx66StringES4_EENSt7__debug3mapIS4_S4_St4lessIS4_ESaIS6_EEEEC1ERKSE_@Base 2.1.0
 _ZN11__gnu_debug14_Safe_iteratorISt23_Rb_tree_const_iteratorISt4pairIKN7blocxx66StringES4_EENSt7__debug3mapIS4_S4_St4lessIS4_ESaIS6_EEEEC2ERKS7_PKSD_@Base 2.1.0
 _ZN11__gnu_debug14_Safe_iteratorISt23_Rb_tree_const_iteratorISt4pairIKN7blocxx66StringES4_EENSt7__debug3mapIS4_S4_St4lessIS4_ESaIS6_EEEEC2ERKSE_@Base 2.1.0
 _ZN11__gnu_debug14_Safe_iteratorISt23_Rb_tree_const_iteratorISt4pairIKN7blocxx66StringES4_EENSt7__debug3mapIS4_S4_St4lessIS4_ESaIS6_EEEED1Ev@Base 2.1.0
 _ZN11__gnu_debug14_Safe_iteratorISt23_Rb_tree_const_iteratorISt4pairIKN7blocxx66StringES4_EENSt7__debug3mapIS4_S4_St4lessIS4_ESaIS6_EEEED2Ev@Base 2.1.0
 _ZN11__gnu_debug14_Safe_iteratorISt23_Rb_tree_const_iteratorISt4pairIKN7blocxx66StringES4_EENSt7__debug3mapIS4_S4_St4lessIS4_ESaIS6_EEEEppEi@Base 2.1.0
 _ZN11__gnu_debug14_Safe_sequenceINSt7__debug3mapIN7blocxx66StringENS3_13SSLTrustStore8UserInfoESt4lessIS4_ESaISt4pairIKS4_S6_EEEEEC1Ev@Base 2.1.0
 _ZN11__gnu_debug14_Safe_sequenceINSt7__debug3mapIN7blocxx66StringENS3_13SSLTrustStore8UserInfoESt4lessIS4_ESaISt4pairIKS4_S6_EEEEEC2Ev@Base 2.1.0
 _ZN11__gnu_debug14_Safe_sequenceINSt7__debug3mapIN7blocxx66StringENS3_13SSLTrustStore8UserInfoESt4lessIS4_ESaISt4pairIKS4_S6_EEEEED1Ev@Base 2.1.0
 _ZN11__gnu_debug14_Safe_sequenceINSt7__debug3mapIN7blocxx66StringENS3_13SSLTrustStore8UserInfoESt4lessIS4_ESaISt4pairIKS4_S6_EEEEED2Ev@Base 2.1.0
 _ZN11__gnu_debug14_Safe_sequenceINSt7__debug3mapIN7blocxx66StringES4_St4lessIS4_ESaISt4pairIKS4_S4_EEEEE16_M_invalidate_ifINS_13_Not_equal_toISt23_Rb_tree_const_iteratorIS9_EEEEEvT_@Base 2.1.0
 _ZN11__gnu_debug14_Safe_sequenceINSt7__debug3mapIN7blocxx66StringES4_St4lessIS4_ESaISt4pairIKS4_S4_EEEEE16_M_invalidate_ifINS_9_Equal_toISt23_Rb_tree_const_iteratorIS9_EEEEEvT_@Base 2.1.0
 _ZN11__gnu_debug14_Safe_sequenceINSt7__debug3mapIN7blocxx66StringES4_St4lessIS4_ESaISt4pairIKS4_S4_EEEEEC1Ev@Base 2.1.0
 _ZN11__gnu_debug14_Safe_sequenceINSt7__debug3mapIN7blocxx66StringES4_St4lessIS4_ESaISt4pairIKS4_S4_EEEEEC2Ev@Base 2.1.0
 _ZN11__gnu_debug14_Safe_sequenceINSt7__debug3mapIN7blocxx66StringES4_St4lessIS4_ESaISt4pairIKS4_S4_EEEEED1Ev@Base 2.1.0
 _ZN11__gnu_debug14_Safe_sequenceINSt7__debug3mapIN7blocxx66StringES4_St4lessIS4_ESaISt4pairIKS4_S4_EEEEED2Ev@Base 2.1.0
 _ZN11__gnu_debug14_Safe_sequenceINSt7__debug3mapIiiSt4lessIiESaISt4pairIKiiEEEEEC1Ev@Base 2.1.0
 _ZN11__gnu_debug14_Safe_sequenceINSt7__debug3mapIiiSt4lessIiESaISt4pairIKiiEEEEEC2Ev@Base 2.1.0
 _ZN11__gnu_debug14_Safe_sequenceINSt7__debug3mapIiiSt4lessIiESaISt4pairIKiiEEEEED1Ev@Base 2.1.0
 _ZN11__gnu_debug14_Safe_sequenceINSt7__debug3mapIiiSt4lessIiESaISt4pairIKiiEEEEED2Ev@Base 2.1.0
 _ZN11__gnu_debug14_Safe_sequenceINSt7__debug3mapImN7blocxx617GenericRWLockImplImNS3_8RWLocker14ThreadComparerEE10LockerInfoES6_SaISt4pairIKmS8_EEEEE16_M_invalidate_ifINS_9_Equal_toISt23_Rb_tree_const_iteratorISB_EEEEEvT_@Base 2.1.0
 _ZN11__gnu_debug14_Safe_sequenceINSt7__debug3mapImN7blocxx617GenericRWLockImplImNS3_8RWLocker14ThreadComparerEE10LockerInfoES6_SaISt4pairIKmS8_EEEEEC1Ev@Base 2.1.0
 _ZN11__gnu_debug14_Safe_sequenceINSt7__debug3mapImN7blocxx617GenericRWLockImplImNS3_8RWLocker14ThreadComparerEE10LockerInfoES6_SaISt4pairIKmS8_EEEEEC2Ev@Base 2.1.0
 _ZN11__gnu_debug14_Safe_sequenceINSt7__debug3mapImN7blocxx617GenericRWLockImplImNS3_8RWLocker14ThreadComparerEE10LockerInfoES6_SaISt4pairIKmS8_EEEEED1Ev@Base 2.1.0
 _ZN11__gnu_debug14_Safe_sequenceINSt7__debug3mapImN7blocxx617GenericRWLockImplImNS3_8RWLocker14ThreadComparerEE10LockerInfoES6_SaISt4pairIKmS8_EEEEED2Ev@Base 2.1.0
 _ZN11__gnu_debug14_Safe_sequenceINSt7__debug5dequeIN7blocxx618IntrusiveReferenceINS3_8RunnableEEESaIS6_EEEE16_M_invalidate_ifINS_9_Equal_toINSt9__cxx199815_Deque_iteratorIS6_RKS6_PSE_EEEEEEvT_@Base 2.1.0
 _ZN11__gnu_debug14_Safe_sequenceINSt7__debug5dequeIN7blocxx618IntrusiveReferenceINS3_8RunnableEEESaIS6_EEEEC1Ev@Base 2.1.0
 _ZN11__gnu_debug14_Safe_sequenceINSt7__debug5dequeIN7blocxx618IntrusiveReferenceINS3_8RunnableEEESaIS6_EEEEC2Ev@Base 2.1.0
 _ZN11__gnu_debug14_Safe_sequenceINSt7__debug5dequeIN7blocxx618IntrusiveReferenceINS3_8RunnableEEESaIS6_EEEED1Ev@Base 2.1.0
 _ZN11__gnu_debug14_Safe_sequenceINSt7__debug5dequeIN7blocxx618IntrusiveReferenceINS3_8RunnableEEESaIS6_EEEED2Ev@Base 2.1.0
 _ZN11__gnu_debug14_Safe_sequenceINSt7__debug6vectorI10regmatch_tSaIS3_EEEE16_M_invalidate_ifINS_15_After_nth_fromIN9__gnu_cxx17__normal_iteratorIPKS3_NSt9__cxx19986vectorIS3_S4_EEEEEEEEvT_@Base 2.1.0
 _ZN11__gnu_debug14_Safe_sequenceINSt7__debug6vectorI10regmatch_tSaIS3_EEEEC1Ev@Base 2.1.0
 _ZN11__gnu_debug14_Safe_sequenceINSt7__debug6vectorI10regmatch_tSaIS3_EEEEC2Ev@Base 2.1.0
 _ZN11__gnu_debug14_Safe_sequenceINSt7__debug6vectorI10regmatch_tSaIS3_EEEED1Ev@Base 2.1.0
 _ZN11__gnu_debug14_Safe_sequenceINSt7__debug6vectorI10regmatch_tSaIS3_EEEED2Ev@Base 2.1.0
 _ZN11__gnu_debug14_Safe_sequenceINSt7__debug6vectorIN7blocxx618IntrusiveReferenceINS3_11LogAppenderEEESaIS6_EEEEC1Ev@Base 2.1.0
 _ZN11__gnu_debug14_Safe_sequenceINSt7__debug6vectorIN7blocxx618IntrusiveReferenceINS3_11LogAppenderEEESaIS6_EEEEC2Ev@Base 2.1.0
 _ZN11__gnu_debug14_Safe_sequenceINSt7__debug6vectorIN7blocxx618IntrusiveReferenceINS3_11LogAppenderEEESaIS6_EEEED1Ev@Base 2.1.0
 _ZN11__gnu_debug14_Safe_sequenceINSt7__debug6vectorIN7blocxx618IntrusiveReferenceINS3_11LogAppenderEEESaIS6_EEEED2Ev@Base 2.1.0
 _ZN11__gnu_debug14_Safe_sequenceINSt7__debug6vectorIN7blocxx618IntrusiveReferenceINS3_26LogMessagePatternFormatter9ConverterEEESaIS7_EEEEC1Ev@Base 2.1.0
 _ZN11__gnu_debug14_Safe_sequenceINSt7__debug6vectorIN7blocxx618IntrusiveReferenceINS3_26LogMessagePatternFormatter9ConverterEEESaIS7_EEEEC2Ev@Base 2.1.0
 _ZN11__gnu_debug14_Safe_sequenceINSt7__debug6vectorIN7blocxx618IntrusiveReferenceINS3_26LogMessagePatternFormatter9ConverterEEESaIS7_EEEED1Ev@Base 2.1.0
 _ZN11__gnu_debug14_Safe_sequenceINSt7__debug6vectorIN7blocxx618IntrusiveReferenceINS3_26LogMessagePatternFormatter9ConverterEEESaIS7_EEEED2Ev@Base 2.1.0
 _ZN11__gnu_debug14_Safe_sequenceINSt7__debug6vectorIN7blocxx618IntrusiveReferenceINS3_6ThreadEEESaIS6_EEEE16_M_invalidate_ifINS_15_After_nth_fromIN9__gnu_cxx17__normal_iteratorIPKS6_NSt9__cxx19986vectorIS6_S7_EEEEEEEEvT_@Base 2.1.0
 _ZN11__gnu_debug14_Safe_sequenceINSt7__debug6vectorIN7blocxx618IntrusiveReferenceINS3_6ThreadEEESaIS6_EEEE16_M_invalidate_ifINS_9_Equal_toIN9__gnu_cxx17__normal_iteratorIPKS6_NSt9__cxx19986vectorIS6_S7_EEEEEEEEvT_@Base 2.1.0
 _ZN11__gnu_debug14_Safe_sequenceINSt7__debug6vectorIN7blocxx618IntrusiveReferenceINS3_6ThreadEEESaIS6_EEEEC1Ev@Base 2.1.0
 _ZN11__gnu_debug14_Safe_sequenceINSt7__debug6vectorIN7blocxx618IntrusiveReferenceINS3_6ThreadEEESaIS6_EEEEC2Ev@Base 2.1.0
 _ZN11__gnu_debug14_Safe_sequenceINSt7__debug6vectorIN7blocxx618IntrusiveReferenceINS3_6ThreadEEESaIS6_EEEED1Ev@Base 2.1.0
 _ZN11__gnu_debug14_Safe_sequenceINSt7__debug6vectorIN7blocxx618IntrusiveReferenceINS3_6ThreadEEESaIS6_EEEED2Ev@Base 2.1.0
 _ZN11__gnu_debug14_Safe_sequenceINSt7__debug6vectorIN7blocxx618IntrusiveReferenceINS3_7ProcessEEESaIS6_EEEEC1Ev@Base 2.1.0
 _ZN11__gnu_debug14_Safe_sequenceINSt7__debug6vectorIN7blocxx618IntrusiveReferenceINS3_7ProcessEEESaIS6_EEEEC2Ev@Base 2.1.0
 _ZN11__gnu_debug14_Safe_sequenceINSt7__debug6vectorIN7blocxx618IntrusiveReferenceINS3_7ProcessEEESaIS6_EEEED1Ev@Base 2.1.0
 _ZN11__gnu_debug14_Safe_sequenceINSt7__debug6vectorIN7blocxx618IntrusiveReferenceINS3_7ProcessEEESaIS6_EEEED2Ev@Base 2.1.0
 _ZN11__gnu_debug14_Safe_sequenceINSt7__debug6vectorIN7blocxx65ArrayIcEESaIS5_EEEEC1Ev@Base 2.1.0
 _ZN11__gnu_debug14_Safe_sequenceINSt7__debug6vectorIN7blocxx65ArrayIcEESaIS5_EEEEC2Ev@Base 2.1.0
 _ZN11__gnu_debug14_Safe_sequenceINSt7__debug6vectorIN7blocxx65ArrayIcEESaIS5_EEEED1Ev@Base 2.1.0
 _ZN11__gnu_debug14_Safe_sequenceINSt7__debug6vectorIN7blocxx65ArrayIcEESaIS5_EEEED2Ev@Base 2.1.0
 _ZN11__gnu_debug14_Safe_sequenceINSt7__debug6vectorIN7blocxx66Select12SelectObjectESaIS5_EEEEC1Ev@Base 2.1.0
 _ZN11__gnu_debug14_Safe_sequenceINSt7__debug6vectorIN7blocxx66Select12SelectObjectESaIS5_EEEEC2Ev@Base 2.1.0
 _ZN11__gnu_debug14_Safe_sequenceINSt7__debug6vectorIN7blocxx66Select12SelectObjectESaIS5_EEEED1Ev@Base 2.1.0
 _ZN11__gnu_debug14_Safe_sequenceINSt7__debug6vectorIN7blocxx66Select12SelectObjectESaIS5_EEEED2Ev@Base 2.1.0
 _ZN11__gnu_debug14_Safe_sequenceINSt7__debug6vectorIN7blocxx66StringESaIS4_EEEE16_M_invalidate_ifINS_15_After_nth_fromIN9__gnu_cxx17__normal_iteratorIPKS4_NSt9__cxx19986vectorIS4_S5_EEEEEEEEvT_@Base 2.1.0
 _ZN11__gnu_debug14_Safe_sequenceINSt7__debug6vectorIN7blocxx66StringESaIS4_EEEEC1Ev@Base 2.1.0
 _ZN11__gnu_debug14_Safe_sequenceINSt7__debug6vectorIN7blocxx66StringESaIS4_EEEEC2Ev@Base 2.1.0
 _ZN11__gnu_debug14_Safe_sequenceINSt7__debug6vectorIN7blocxx66StringESaIS4_EEEED1Ev@Base 2.1.0
 _ZN11__gnu_debug14_Safe_sequenceINSt7__debug6vectorIN7blocxx66StringESaIS4_EEEED2Ev@Base 2.1.0
 _ZN11__gnu_debug14_Safe_sequenceINSt7__debug6vectorIN7blocxx69PerlRegEx7match_tESaIS5_EEEE16_M_invalidate_ifINS_15_After_nth_fromIN9__gnu_cxx17__normal_iteratorIPKS5_NSt9__cxx19986vectorIS5_S6_EEEEEEEEvT_@Base 2.1.0
 _ZN11__gnu_debug14_Safe_sequenceINSt7__debug6vectorIN7blocxx69PerlRegEx7match_tESaIS5_EEEEC1Ev@Base 2.1.0
 _ZN11__gnu_debug14_Safe_sequenceINSt7__debug6vectorIN7blocxx69PerlRegEx7match_tESaIS5_EEEEC2Ev@Base 2.1.0
 _ZN11__gnu_debug14_Safe_sequenceINSt7__debug6vectorIN7blocxx69PerlRegEx7match_tESaIS5_EEEED1Ev@Base 2.1.0
 _ZN11__gnu_debug14_Safe_sequenceINSt7__debug6vectorIN7blocxx69PerlRegEx7match_tESaIS5_EEEED2Ev@Base 2.1.0
 _ZN11__gnu_debug14_Safe_sequenceINSt7__debug6vectorIN7blocxx69ReferenceINS3_22DelayedFormatInternals26DelayedFormatReferenceBaseEEESaIS7_EEEEC1Ev@Base 2.1.0
 _ZN11__gnu_debug14_Safe_sequenceINSt7__debug6vectorIN7blocxx69ReferenceINS3_22DelayedFormatInternals26DelayedFormatReferenceBaseEEESaIS7_EEEEC2Ev@Base 2.1.0
 _ZN11__gnu_debug14_Safe_sequenceINSt7__debug6vectorIN7blocxx69ReferenceINS3_22DelayedFormatInternals26DelayedFormatReferenceBaseEEESaIS7_EEEED1Ev@Base 2.1.0
 _ZN11__gnu_debug14_Safe_sequenceINSt7__debug6vectorIN7blocxx69ReferenceINS3_22DelayedFormatInternals26DelayedFormatReferenceBaseEEESaIS7_EEEED2Ev@Base 2.1.0
 _ZN11__gnu_debug14_Safe_sequenceINSt7__debug6vectorIPKcSaIS4_EEEEC1Ev@Base 2.1.0
 _ZN11__gnu_debug14_Safe_sequenceINSt7__debug6vectorIPKcSaIS4_EEEEC2Ev@Base 2.1.0
 _ZN11__gnu_debug14_Safe_sequenceINSt7__debug6vectorIPKcSaIS4_EEEED1Ev@Base 2.1.0
 _ZN11__gnu_debug14_Safe_sequenceINSt7__debug6vectorIPKcSaIS4_EEEED2Ev@Base 2.1.0
 _ZN11__gnu_debug14_Safe_sequenceINSt7__debug6vectorISt4pairIN7blocxx66StringENS4_17EFileStatusReturnEESaIS7_EEEEC1Ev@Base 2.1.0
 _ZN11__gnu_debug14_Safe_sequenceINSt7__debug6vectorISt4pairIN7blocxx66StringENS4_17EFileStatusReturnEESaIS7_EEEEC2Ev@Base 2.1.0
 _ZN11__gnu_debug14_Safe_sequenceINSt7__debug6vectorISt4pairIN7blocxx66StringENS4_17EFileStatusReturnEESaIS7_EEEED1Ev@Base 2.1.0
 _ZN11__gnu_debug14_Safe_sequenceINSt7__debug6vectorISt4pairIN7blocxx66StringENS4_17EFileStatusReturnEESaIS7_EEEED2Ev@Base 2.1.0
 _ZN11__gnu_debug14_Safe_sequenceINSt7__debug6vectorISt4pairIiN7blocxx612SelectEngine4DataEESaIS7_EEEE16_M_invalidate_ifINS_15_After_nth_fromIN9__gnu_cxx17__normal_iteratorIPKS7_NSt9__cxx19986vectorIS7_S8_EEEEEEEEvT_@Base 2.1.0
 _ZN11__gnu_debug14_Safe_sequenceINSt7__debug6vectorISt4pairIiN7blocxx612SelectEngine4DataEESaIS7_EEEEC1Ev@Base 2.1.0
 _ZN11__gnu_debug14_Safe_sequenceINSt7__debug6vectorISt4pairIiN7blocxx612SelectEngine4DataEESaIS7_EEEEC2Ev@Base 2.1.0
 _ZN11__gnu_debug14_Safe_sequenceINSt7__debug6vectorISt4pairIiN7blocxx612SelectEngine4DataEESaIS7_EEEED1Ev@Base 2.1.0
 _ZN11__gnu_debug14_Safe_sequenceINSt7__debug6vectorISt4pairIiN7blocxx612SelectEngine4DataEESaIS7_EEEED2Ev@Base 2.1.0
 _ZN11__gnu_debug14_Safe_sequenceINSt7__debug6vectorISt4pairIiN7blocxx65ArrayINS4_6StringEEEESaIS8_EEEE16_M_invalidate_ifINS_15_After_nth_fromIN9__gnu_cxx17__normal_iteratorIPKS8_NSt9__cxx19986vectorIS8_S9_EEEEEEEEvT_@Base 2.1.0
 _ZN11__gnu_debug14_Safe_sequenceINSt7__debug6vectorISt4pairIiN7blocxx65ArrayINS4_6StringEEEESaIS8_EEEEC1Ev@Base 2.1.0
 _ZN11__gnu_debug14_Safe_sequenceINSt7__debug6vectorISt4pairIiN7blocxx65ArrayINS4_6StringEEEESaIS8_EEEEC2Ev@Base 2.1.0
 _ZN11__gnu_debug14_Safe_sequenceINSt7__debug6vectorISt4pairIiN7blocxx65ArrayINS4_6StringEEEESaIS8_EEEED1Ev@Base 2.1.0
 _ZN11__gnu_debug14_Safe_sequenceINSt7__debug6vectorISt4pairIiN7blocxx65ArrayINS4_6StringEEEESaIS8_EEEED2Ev@Base 2.1.0
 _ZN11__gnu_debug14_Safe_sequenceINSt7__debug6vectorIbSaIbEEEEC1Ev@Base 2.1.0
 _ZN11__gnu_debug14_Safe_sequenceINSt7__debug6vectorIbSaIbEEEEC2Ev@Base 2.1.0
 _ZN11__gnu_debug14_Safe_sequenceINSt7__debug6vectorIbSaIbEEEED1Ev@Base 2.1.0
 _ZN11__gnu_debug14_Safe_sequenceINSt7__debug6vectorIbSaIbEEEED2Ev@Base 2.1.0
 _ZN11__gnu_debug14_Safe_sequenceINSt7__debug6vectorIcSaIcEEEE16_M_invalidate_ifINS_15_After_nth_fromIN9__gnu_cxx17__normal_iteratorIPKcNSt9__cxx19986vectorIcS3_EEEEEEEEvT_@Base 2.1.0
 _ZN11__gnu_debug14_Safe_sequenceINSt7__debug6vectorIcSaIcEEEE16_M_invalidate_ifINS_9_Equal_toIN9__gnu_cxx17__normal_iteratorIPKcNSt9__cxx19986vectorIcS3_EEEEEEEEvT_@Base 2.1.0
 _ZN11__gnu_debug14_Safe_sequenceINSt7__debug6vectorIcSaIcEEEEC1Ev@Base 2.1.0
 _ZN11__gnu_debug14_Safe_sequenceINSt7__debug6vectorIcSaIcEEEEC2Ev@Base 2.1.0
 _ZN11__gnu_debug14_Safe_sequenceINSt7__debug6vectorIcSaIcEEEED1Ev@Base 2.1.0
 _ZN11__gnu_debug14_Safe_sequenceINSt7__debug6vectorIcSaIcEEEED2Ev@Base 2.1.0
 _ZN11__gnu_debug14_Safe_sequenceINSt7__debug6vectorIhSaIhEEEE16_M_invalidate_ifINS_15_After_nth_fromIN9__gnu_cxx17__normal_iteratorIPKhNSt9__cxx19986vectorIhS3_EEEEEEEEvT_@Base 2.1.0
 _ZN11__gnu_debug14_Safe_sequenceINSt7__debug6vectorIhSaIhEEEEC1Ev@Base 2.1.0
 _ZN11__gnu_debug14_Safe_sequenceINSt7__debug6vectorIhSaIhEEEEC2Ev@Base 2.1.0
 _ZN11__gnu_debug14_Safe_sequenceINSt7__debug6vectorIhSaIhEEEED1Ev@Base 2.1.0
 _ZN11__gnu_debug14_Safe_sequenceINSt7__debug6vectorIhSaIhEEEED2Ev@Base 2.1.0
 _ZN11__gnu_debug14_Safe_sequenceINSt7__debug6vectorIiSaIiEEEE16_M_invalidate_ifINS_15_After_nth_fromIN9__gnu_cxx17__normal_iteratorIPKiNSt9__cxx19986vectorIiS3_EEEEEEEEvT_@Base 2.1.0
 _ZN11__gnu_debug14_Safe_sequenceINSt7__debug6vectorIiSaIiEEEEC1Ev@Base 2.1.0
 _ZN11__gnu_debug14_Safe_sequenceINSt7__debug6vectorIiSaIiEEEEC2Ev@Base 2.1.0
 _ZN11__gnu_debug14_Safe_sequenceINSt7__debug6vectorIiSaIiEEEED1Ev@Base 2.1.0
 _ZN11__gnu_debug14_Safe_sequenceINSt7__debug6vectorIiSaIiEEEED2Ev@Base 2.1.0
 _ZN11__gnu_debug14_Safe_sequenceINSt7__debug6vectorItSaItEEEEC1Ev@Base 2.1.0
 _ZN11__gnu_debug14_Safe_sequenceINSt7__debug6vectorItSaItEEEEC2Ev@Base 2.1.0
 _ZN11__gnu_debug14_Safe_sequenceINSt7__debug6vectorItSaItEEEED1Ev@Base 2.1.0
 _ZN11__gnu_debug14_Safe_sequenceINSt7__debug6vectorItSaItEEEED2Ev@Base 2.1.0
 _ZN11__gnu_debug15_After_nth_fromIN9__gnu_cxx17__normal_iteratorIPK10regmatch_tNSt9__cxx19986vectorIS3_SaIS3_EEEEEEC1ERKlRKSA_@Base 2.1.0
 _ZN11__gnu_debug15_After_nth_fromIN9__gnu_cxx17__normal_iteratorIPK10regmatch_tNSt9__cxx19986vectorIS3_SaIS3_EEEEEEC2ERKlRKSA_@Base 2.1.0
 _ZN11__gnu_debug15_After_nth_fromIN9__gnu_cxx17__normal_iteratorIPKN7blocxx618IntrusiveReferenceINS3_6ThreadEEENSt9__cxx19986vectorIS6_SaIS6_EEEEEEC1ERKlRKSD_@Base 2.1.0
 _ZN11__gnu_debug15_After_nth_fromIN9__gnu_cxx17__normal_iteratorIPKN7blocxx618IntrusiveReferenceINS3_6ThreadEEENSt9__cxx19986vectorIS6_SaIS6_EEEEEEC2ERKlRKSD_@Base 2.1.0
 _ZN11__gnu_debug15_After_nth_fromIN9__gnu_cxx17__normal_iteratorIPKN7blocxx66StringENSt9__cxx19986vectorIS4_SaIS4_EEEEEEC1ERKlRKSB_@Base 2.1.0
 _ZN11__gnu_debug15_After_nth_fromIN9__gnu_cxx17__normal_iteratorIPKN7blocxx66StringENSt9__cxx19986vectorIS4_SaIS4_EEEEEEC2ERKlRKSB_@Base 2.1.0
 _ZN11__gnu_debug15_After_nth_fromIN9__gnu_cxx17__normal_iteratorIPKN7blocxx69PerlRegEx7match_tENSt9__cxx19986vectorIS5_SaIS5_EEEEEEC1ERKlRKSC_@Base 2.1.0
 _ZN11__gnu_debug15_After_nth_fromIN9__gnu_cxx17__normal_iteratorIPKN7blocxx69PerlRegEx7match_tENSt9__cxx19986vectorIS5_SaIS5_EEEEEEC2ERKlRKSC_@Base 2.1.0
 _ZN11__gnu_debug15_After_nth_fromIN9__gnu_cxx17__normal_iteratorIPKSt4pairIiN7blocxx612SelectEngine4DataEENSt9__cxx19986vectorIS7_SaIS7_EEEEEEC1ERKlRKSE_@Base 2.1.0
 _ZN11__gnu_debug15_After_nth_fromIN9__gnu_cxx17__normal_iteratorIPKSt4pairIiN7blocxx612SelectEngine4DataEENSt9__cxx19986vectorIS7_SaIS7_EEEEEEC2ERKlRKSE_@Base 2.1.0
 _ZN11__gnu_debug15_After_nth_fromIN9__gnu_cxx17__normal_iteratorIPKSt4pairIiN7blocxx65ArrayINS4_6StringEEEENSt9__cxx19986vectorIS8_SaIS8_EEEEEEC1ERKlRKSF_@Base 2.1.0
 _ZN11__gnu_debug15_After_nth_fromIN9__gnu_cxx17__normal_iteratorIPKSt4pairIiN7blocxx65ArrayINS4_6StringEEEENSt9__cxx19986vectorIS8_SaIS8_EEEEEEC2ERKlRKSF_@Base 2.1.0
 _ZN11__gnu_debug15_After_nth_fromIN9__gnu_cxx17__normal_iteratorIPKcNSt9__cxx19986vectorIcSaIcEEEEEEC1ERKlRKS9_@Base 2.1.0
 _ZN11__gnu_debug15_After_nth_fromIN9__gnu_cxx17__normal_iteratorIPKcNSt9__cxx19986vectorIcSaIcEEEEEEC2ERKlRKS9_@Base 2.1.0
 _ZN11__gnu_debug15_After_nth_fromIN9__gnu_cxx17__normal_iteratorIPKhNSt9__cxx19986vectorIhSaIhEEEEEEC1ERKlRKS9_@Base 2.1.0
 _ZN11__gnu_debug15_After_nth_fromIN9__gnu_cxx17__normal_iteratorIPKhNSt9__cxx19986vectorIhSaIhEEEEEEC2ERKlRKS9_@Base 2.1.0
 _ZN11__gnu_debug15_After_nth_fromIN9__gnu_cxx17__normal_iteratorIPKiNSt9__cxx19986vectorIiSaIiEEEEEEC1ERKlRKS9_@Base 2.1.0
 _ZN11__gnu_debug15_After_nth_fromIN9__gnu_cxx17__normal_iteratorIPKiNSt9__cxx19986vectorIiSaIiEEEEEEC2ERKlRKS9_@Base 2.1.0
 _ZN11__gnu_debug16_Error_formatter10_ParameterC1EPKcS3_@Base 2.1.0
 _ZN11__gnu_debug16_Error_formatter10_ParameterC1ElPKc@Base 2.1.0
 _ZN11__gnu_debug16_Error_formatter10_ParameterC1Ev@Base 2.1.0
 _ZN11__gnu_debug16_Error_formatter10_ParameterC1IN9__gnu_cxx17__normal_iteratorIP10regmatch_tNSt9__cxx19986vectorIS5_SaIS5_EEEEENSt7__debug6vectorIS5_S9_EEEERKNS_14_Safe_iteratorIT_T0_EEPKcNS0_12_Is_iteratorE@Base 2.1.0
 _ZN11__gnu_debug16_Error_formatter10_ParameterC1IN9__gnu_cxx17__normal_iteratorIPK10regmatch_tNSt9__cxx19986vectorIS5_SaIS5_EEEEEEERKT_PKcNS0_12_Is_iteratorE@Base 2.1.0
 _ZN11__gnu_debug16_Error_formatter10_ParameterC1IN9__gnu_cxx17__normal_iteratorIPK10regmatch_tNSt9__cxx19986vectorIS5_SaIS5_EEEEENSt7__debug6vectorIS5_SA_EEEERKNS_14_Safe_iteratorIT_T0_EEPKcNS0_12_Is_iteratorE@Base 2.1.0
 _ZN11__gnu_debug16_Error_formatter10_ParameterC1IN9__gnu_cxx17__normal_iteratorIPKN7blocxx618IntrusiveReferenceINS5_26LogMessagePatternFormatter9ConverterEEENSt9__cxx19986vectorIS9_SaIS9_EEEEENSt7__debug6vectorIS9_SE_EEEERKNS_14_Safe_iteratorIT_T0_EEPKcNS0_12_Is_iteratorE@Base 2.1.0
 _ZN11__gnu_debug16_Error_formatter10_ParameterC1IN9__gnu_cxx17__normal_iteratorIPKN7blocxx66StringENSt9__cxx19986vectorIS6_SaIS6_EEEEENSt7__debug6vectorIS6_SB_EEEERKNS_14_Safe_iteratorIT_T0_EEPKcNS0_12_Is_iteratorE@Base 2.1.0
 _ZN11__gnu_debug16_Error_formatter10_ParameterC1IN9__gnu_cxx17__normal_iteratorIPKN7blocxx69PerlRegEx7match_tENSt9__cxx19986vectorIS7_SaIS7_EEEEEEERKT_PKcNS0_12_Is_iteratorE@Base 2.1.0
 _ZN11__gnu_debug16_Error_formatter10_ParameterC1IN9__gnu_cxx17__normal_iteratorIPKN7blocxx69PerlRegEx7match_tENSt9__cxx19986vectorIS7_SaIS7_EEEEENSt7__debug6vectorIS7_SC_EEEERKNS_14_Safe_iteratorIT_T0_EEPKcNS0_12_Is_iteratorE@Base 2.1.0
 _ZN11__gnu_debug16_Error_formatter10_ParameterC1IN9__gnu_cxx17__normal_iteratorIPKPKcNSt9__cxx19986vectorIS6_SaIS6_EEEEEEERKT_S6_NS0_12_Is_iteratorE@Base 2.1.0
 _ZN11__gnu_debug16_Error_formatter10_ParameterC1IN9__gnu_cxx17__normal_iteratorIPKSt4pairIN7blocxx66StringENS6_17EFileStatusReturnEENSt9__cxx19986vectorIS9_SaIS9_EEEEENSt7__debug6vectorIS9_SE_EEEERKNS_14_Safe_iteratorIT_T0_EEPKcNS0_12_Is_iteratorE@Base 2.1.0
 _ZN11__gnu_debug16_Error_formatter10_ParameterC1IN9__gnu_cxx17__normal_iteratorIPKSt4pairIN7blocxx66StringES7_ENSt9__cxx19986vectorIS8_SaIS8_EEEEENSt7__debug6vectorIS8_SD_EEEERKNS_14_Safe_iteratorIT_T0_EEPKcNS0_12_Is_iteratorE@Base 2.1.0
 _ZN11__gnu_debug16_Error_formatter10_ParameterC1IN9__gnu_cxx17__normal_iteratorIPKSt4pairIiN7blocxx612SelectEngine4DataEENSt9__cxx19986vectorIS9_SaIS9_EEEEENSt7__debug6vectorIS9_SE_EEEERKNS_14_Safe_iteratorIT_T0_EEPKcNS0_12_Is_iteratorE@Base 2.1.0
 _ZN11__gnu_debug16_Error_formatter10_ParameterC1IN9__gnu_cxx17__normal_iteratorIPKSt4pairIiN7blocxx65ArrayINS6_6StringEEEENSt9__cxx19986vectorISA_SaISA_EEEEENSt7__debug6vectorISA_SF_EEEERKNS_14_Safe_iteratorIT_T0_EEPKcNS0_12_Is_iteratorE@Base 2.1.0
 _ZN11__gnu_debug16_Error_formatter10_ParameterC1IN9__gnu_cxx17__normal_iteratorIPKcNSt9__cxx19986vectorIcSaIcEEEEEEERKT_S6_NS0_12_Is_iteratorE@Base 2.1.0
 _ZN11__gnu_debug16_Error_formatter10_ParameterC1IN9__gnu_cxx17__normal_iteratorIPKiNSt9__cxx19986vectorIiSaIiEEEEEEERKT_PKcNS0_12_Is_iteratorE@Base 2.1.0
 _ZN11__gnu_debug16_Error_formatter10_ParameterC1IN9__gnu_cxx17__normal_iteratorIPKtNSt9__cxx19986vectorItSaItEEEEEEERKT_PKcNS0_12_Is_iteratorE@Base 2.1.0
 _ZN11__gnu_debug16_Error_formatter10_ParameterC1IN9__gnu_cxx17__normal_iteratorIPN7blocxx618IntrusiveReferenceINS5_6ThreadEEENSt9__cxx19986vectorIS8_SaIS8_EEEEEEERKT_PKcNS0_12_Is_iteratorE@Base 2.1.0
 _ZN11__gnu_debug16_Error_formatter10_ParameterC1IN9__gnu_cxx17__normal_iteratorIPN7blocxx618IntrusiveReferenceINS5_6ThreadEEENSt9__cxx19986vectorIS8_SaIS8_EEEEENSt7__debug6vectorIS8_SC_EEEERKNS_14_Safe_iteratorIT_T0_EEPKcNS0_12_Is_iteratorE@Base 2.1.0
 _ZN11__gnu_debug16_Error_formatter10_ParameterC1IN9__gnu_cxx17__normal_iteratorIPN7blocxx66StringENSt9__cxx19986vectorIS6_SaIS6_EEEEEEERKT_PKcNS0_12_Is_iteratorE@Base 2.1.0
 _ZN11__gnu_debug16_Error_formatter10_ParameterC1IN9__gnu_cxx17__normal_iteratorIPN7blocxx66StringENSt9__cxx19986vectorIS6_SaIS6_EEEEENSt7__debug6vectorIS6_SA_EEEERKNS_14_Safe_iteratorIT_T0_EEPKcNS0_12_Is_iteratorE@Base 2.1.0
 _ZN11__gnu_debug16_Error_formatter10_ParameterC1IN9__gnu_cxx17__normal_iteratorIPN7blocxx69PerlRegEx7match_tENSt9__cxx19986vectorIS7_SaIS7_EEEEENSt7__debug6vectorIS7_SB_EEEERKNS_14_Safe_iteratorIT_T0_EEPKcNS0_12_Is_iteratorE@Base 2.1.0
 _ZN11__gnu_debug16_Error_formatter10_ParameterC1IN9__gnu_cxx17__normal_iteratorIPSt4pairIiN7blocxx612SelectEngine4DataEENSt9__cxx19986vectorIS9_SaIS9_EEEEEEERKT_PKcNS0_12_Is_iteratorE@Base 2.1.0
 _ZN11__gnu_debug16_Error_formatter10_ParameterC1IN9__gnu_cxx17__normal_iteratorIPSt4pairIiN7blocxx612SelectEngine4DataEENSt9__cxx19986vectorIS9_SaIS9_EEEEENSt7__debug6vectorIS9_SD_EEEERKNS_14_Safe_iteratorIT_T0_EEPKcNS0_12_Is_iteratorE@Base 2.1.0
 _ZN11__gnu_debug16_Error_formatter10_ParameterC1IN9__gnu_cxx17__normal_iteratorIPSt4pairIiN7blocxx65ArrayINS6_6StringEEEENSt9__cxx19986vectorISA_SaISA_EEEEENSt7__debug6vectorISA_SE_EEEERKNS_14_Safe_iteratorIT_T0_EEPKcNS0_12_Is_iteratorE@Base 2.1.0
 _ZN11__gnu_debug16_Error_formatter10_ParameterC1IN9__gnu_cxx17__normal_iteratorIPcNSt9__cxx19986vectorIcSaIcEEEEEEERKT_PKcNS0_12_Is_iteratorE@Base 2.1.0
 _ZN11__gnu_debug16_Error_formatter10_ParameterC1IN9__gnu_cxx17__normal_iteratorIPcNSt9__cxx19986vectorIcSaIcEEEEENSt7__debug6vectorIcS8_EEEERKNS_14_Safe_iteratorIT_T0_EEPKcNS0_12_Is_iteratorE@Base 2.1.0
 _ZN11__gnu_debug16_Error_formatter10_ParameterC1IN9__gnu_cxx17__normal_iteratorIPhNSt9__cxx19986vectorIhSaIhEEEEENSt7__debug6vectorIhS8_EEEERKNS_14_Safe_iteratorIT_T0_EEPKcNS0_12_Is_iteratorE@Base 2.1.0
 _ZN11__gnu_debug16_Error_formatter10_ParameterC1INSt7__debug3mapIN7blocxx66StringES6_St4lessIS6_ESaISt4pairIKS6_S6_EEEEEERKT_PKcNS0_12_Is_sequenceE@Base 2.1.0
 _ZN11__gnu_debug16_Error_formatter10_ParameterC1INSt7__debug3mapImN7blocxx617GenericRWLockImplImNS5_8RWLocker14ThreadComparerEE10LockerInfoES8_SaISt4pairIKmSA_EEEEEERKT_PKcNS0_12_Is_sequenceE@Base 2.1.0
 _ZN11__gnu_debug16_Error_formatter10_ParameterC1INSt7__debug5dequeIN7blocxx618IntrusiveReferenceINS5_8RunnableEEESaIS8_EEEEERKT_PKcNS0_12_Is_sequenceE@Base 2.1.0
 _ZN11__gnu_debug16_Error_formatter10_ParameterC1INSt7__debug6vectorI10regmatch_tSaIS5_EEEEERKT_PKcNS0_12_Is_sequenceE@Base 2.1.0
 _ZN11__gnu_debug16_Error_formatter10_ParameterC1INSt7__debug6vectorIN7blocxx618IntrusiveReferenceINS5_11LogAppenderEEESaIS8_EEEEERKT_PKcNS0_12_Is_sequenceE@Base 2.1.0
 _ZN11__gnu_debug16_Error_formatter10_ParameterC1INSt7__debug6vectorIN7blocxx618IntrusiveReferenceINS5_6ThreadEEESaIS8_EEEEERKT_PKcNS0_12_Is_sequenceE@Base 2.1.0
 _ZN11__gnu_debug16_Error_formatter10_ParameterC1INSt7__debug6vectorIN7blocxx618IntrusiveReferenceINS5_7ProcessEEESaIS8_EEEEERKT_PKcNS0_12_Is_sequenceE@Base 2.1.0
 _ZN11__gnu_debug16_Error_formatter10_ParameterC1INSt7__debug6vectorIN7blocxx65ArrayIcEESaIS7_EEEEERKT_PKcNS0_12_Is_sequenceE@Base 2.1.0
 _ZN11__gnu_debug16_Error_formatter10_ParameterC1INSt7__debug6vectorIN7blocxx66Char16ESaIS6_EEEEERKT_PKcNS0_12_Is_sequenceE@Base 2.1.0
 _ZN11__gnu_debug16_Error_formatter10_ParameterC1INSt7__debug6vectorIN7blocxx66Select12SelectObjectESaIS7_EEEEERKT_PKcNS0_12_Is_sequenceE@Base 2.1.0
 _ZN11__gnu_debug16_Error_formatter10_ParameterC1INSt7__debug6vectorIN7blocxx66StringESaIS6_EEEEERKT_PKcNS0_12_Is_sequenceE@Base 2.1.0
 _ZN11__gnu_debug16_Error_formatter10_ParameterC1INSt7__debug6vectorIN7blocxx69PerlRegEx7match_tESaIS7_EEEEERKT_PKcNS0_12_Is_sequenceE@Base 2.1.0
 _ZN11__gnu_debug16_Error_formatter10_ParameterC1INSt7__debug6vectorIN7blocxx69ReferenceINS5_22DelayedFormatInternals26DelayedFormatReferenceBaseEEESaIS9_EEEEERKT_PKcNS0_12_Is_sequenceE@Base 2.1.0
 _ZN11__gnu_debug16_Error_formatter10_ParameterC1INSt7__debug6vectorIPKcSaIS6_EEEEERKT_S6_NS0_12_Is_sequenceE@Base 2.1.0
 _ZN11__gnu_debug16_Error_formatter10_ParameterC1INSt7__debug6vectorISt4pairIiN7blocxx612SelectEngine4DataEESaIS9_EEEEERKT_PKcNS0_12_Is_sequenceE@Base 2.1.0
 _ZN11__gnu_debug16_Error_formatter10_ParameterC1INSt7__debug6vectorISt4pairIiN7blocxx65ArrayINS6_6StringEEEESaISA_EEEEERKT_PKcNS0_12_Is_sequenceE@Base 2.1.0
 _ZN11__gnu_debug16_Error_formatter10_ParameterC1INSt7__debug6vectorIbSaIbEEEEERKT_PKcNS0_12_Is_sequenceE@Base 2.1.0
 _ZN11__gnu_debug16_Error_formatter10_ParameterC1INSt7__debug6vectorIcSaIcEEEEERKT_PKcNS0_12_Is_sequenceE@Base 2.1.0
 _ZN11__gnu_debug16_Error_formatter10_ParameterC1INSt7__debug6vectorIhSaIhEEEEERKT_PKcNS0_12_Is_sequenceE@Base 2.1.0
 _ZN11__gnu_debug16_Error_formatter10_ParameterC1INSt7__debug6vectorIiSaIiEEEEERKT_PKcNS0_12_Is_sequenceE@Base 2.1.0
 _ZN11__gnu_debug16_Error_formatter10_ParameterC1INSt7__debug6vectorItSaItEEEEERKT_PKcNS0_12_Is_sequenceE@Base 2.1.0
 _ZN11__gnu_debug16_Error_formatter10_ParameterC1IP10regmatch_tEERKT_PKcNS0_12_Is_iteratorE@Base 2.1.0
 _ZN11__gnu_debug16_Error_formatter10_ParameterC1IPKN7blocxx613CmdLineParser6OptionEEERKT_PKcNS0_12_Is_iteratorE@Base 2.1.0
 _ZN11__gnu_debug16_Error_formatter10_ParameterC1IPKcEERKT_S4_NS0_12_Is_iteratorE@Base 2.1.0
 _ZN11__gnu_debug16_Error_formatter10_ParameterC1IPN7blocxx618IntrusiveReferenceINS3_11LogAppenderEEEEERKT_PKcNS0_12_Is_iteratorE@Base 2.1.0
 _ZN11__gnu_debug16_Error_formatter10_ParameterC1IPN7blocxx618IntrusiveReferenceINS3_26LogMessagePatternFormatter9ConverterEEEEERKT_PKcNS0_12_Is_iteratorE@Base 2.1.0
 _ZN11__gnu_debug16_Error_formatter10_ParameterC1IPN7blocxx618IntrusiveReferenceINS3_6ThreadEEEEERKT_PKcNS0_12_Is_iteratorE@Base 2.1.0
 _ZN11__gnu_debug16_Error_formatter10_ParameterC1IPN7blocxx618IntrusiveReferenceINS3_7ProcessEEEEERKT_PKcNS0_12_Is_iteratorE@Base 2.1.0
 _ZN11__gnu_debug16_Error_formatter10_ParameterC1IPN7blocxx66Select12SelectObjectEEERKT_PKcNS0_12_Is_iteratorE@Base 2.1.0
 _ZN11__gnu_debug16_Error_formatter10_ParameterC1IPN7blocxx66StringEEERKT_PKcNS0_12_Is_iteratorE@Base 2.1.0
 _ZN11__gnu_debug16_Error_formatter10_ParameterC1IPN7blocxx69PerlRegEx7match_tEEERKT_PKcNS0_12_Is_iteratorE@Base 2.1.0
 _ZN11__gnu_debug16_Error_formatter10_ParameterC1IPPKcEERKT_S4_NS0_12_Is_iteratorE@Base 2.1.0
 _ZN11__gnu_debug16_Error_formatter10_ParameterC1IPPN7blocxx618IntrusiveReferenceINS3_8RunnableEEEEERKT_PKcNS0_12_Is_iteratorE@Base 2.1.0
 _ZN11__gnu_debug16_Error_formatter10_ParameterC1IPPcEERKT_PKcNS0_12_Is_iteratorE@Base 2.1.0
 _ZN11__gnu_debug16_Error_formatter10_ParameterC1IPSt4pairIN7blocxx66StringENS4_17EFileStatusReturnEEEERKT_PKcNS0_12_Is_iteratorE@Base 2.1.0
 _ZN11__gnu_debug16_Error_formatter10_ParameterC1IPSt4pairIiN7blocxx612SelectEngine4DataEEEERKT_PKcNS0_12_Is_iteratorE@Base 2.1.0
 _ZN11__gnu_debug16_Error_formatter10_ParameterC1IPSt4pairIiN7blocxx65ArrayINS4_6StringEEEEEERKT_PKcNS0_12_Is_iteratorE@Base 2.1.0
 _ZN11__gnu_debug16_Error_formatter10_ParameterC1IPcEERKT_PKcNS0_12_Is_iteratorE@Base 2.1.0
 _ZN11__gnu_debug16_Error_formatter10_ParameterC1IPhEERKT_PKcNS0_12_Is_iteratorE@Base 2.1.0
 _ZN11__gnu_debug16_Error_formatter10_ParameterC1IPiEERKT_PKcNS0_12_Is_iteratorE@Base 2.1.0
 _ZN11__gnu_debug16_Error_formatter10_ParameterC1IPtEERKT_PKcNS0_12_Is_iteratorE@Base 2.1.0
 _ZN11__gnu_debug16_Error_formatter10_ParameterC1ISt17_Rb_tree_iteratorISt4pairIKN7blocxx66StringENS5_13SSLTrustStore8UserInfoEEENSt7__debug3mapIS6_S9_St4lessIS6_ESaISA_EEEEERKNS_14_Safe_iteratorIT_T0_EEPKcNS0_12_Is_iteratorE@Base 2.1.0
 _ZN11__gnu_debug16_Error_formatter10_ParameterC1ISt17_Rb_tree_iteratorISt4pairIKN7blocxx66StringES6_EENSt7__debug3mapIS6_S6_St4lessIS6_ESaIS8_EEEEERKNS_14_Safe_iteratorIT_T0_EEPKcNS0_12_Is_iteratorE@Base 2.1.0
 _ZN11__gnu_debug16_Error_formatter10_ParameterC1ISt17_Rb_tree_iteratorISt4pairIKmN7blocxx617GenericRWLockImplImNS6_8RWLocker14ThreadComparerEE10LockerInfoEEENSt7__debug3mapImSB_S9_SaISC_EEEEERKNS_14_Safe_iteratorIT_T0_EEPKcNS0_12_Is_iteratorE@Base 2.1.0
 _ZN11__gnu_debug16_Error_formatter10_ParameterC1ISt23_Rb_tree_const_iteratorISt4pairIKN7blocxx66StringENS5_13SSLTrustStore8UserInfoEEENSt7__debug3mapIS6_S9_St4lessIS6_ESaISA_EEEEERKNS_14_Safe_iteratorIT_T0_EEPKcNS0_12_Is_iteratorE@Base 2.1.0
 _ZN11__gnu_debug16_Error_formatter10_ParameterC1ISt23_Rb_tree_const_iteratorISt4pairIKN7blocxx66StringES6_EENSt7__debug3mapIS6_S6_St4lessIS6_ESaIS8_EEEEERKNS_14_Safe_iteratorIT_T0_EEPKcNS0_12_Is_iteratorE@Base 2.1.0
 _ZN11__gnu_debug16_Error_formatter10_ParameterC2EPKcS3_@Base 2.1.0
 _ZN11__gnu_debug16_Error_formatter10_ParameterC2ElPKc@Base 2.1.0
 _ZN11__gnu_debug16_Error_formatter10_ParameterC2Ev@Base 2.1.0
 _ZN11__gnu_debug16_Error_formatter10_ParameterC2IN9__gnu_cxx17__normal_iteratorIP10regmatch_tNSt9__cxx19986vectorIS5_SaIS5_EEEEENSt7__debug6vectorIS5_S9_EEEERKNS_14_Safe_iteratorIT_T0_EEPKcNS0_12_Is_iteratorE@Base 2.1.0
 _ZN11__gnu_debug16_Error_formatter10_ParameterC2IN9__gnu_cxx17__normal_iteratorIPK10regmatch_tNSt9__cxx19986vectorIS5_SaIS5_EEEEEEERKT_PKcNS0_12_Is_iteratorE@Base 2.1.0
 _ZN11__gnu_debug16_Error_formatter10_ParameterC2IN9__gnu_cxx17__normal_iteratorIPK10regmatch_tNSt9__cxx19986vectorIS5_SaIS5_EEEEENSt7__debug6vectorIS5_SA_EEEERKNS_14_Safe_iteratorIT_T0_EEPKcNS0_12_Is_iteratorE@Base 2.1.0
 _ZN11__gnu_debug16_Error_formatter10_ParameterC2IN9__gnu_cxx17__normal_iteratorIPKN7blocxx618IntrusiveReferenceINS5_26LogMessagePatternFormatter9ConverterEEENSt9__cxx19986vectorIS9_SaIS9_EEEEENSt7__debug6vectorIS9_SE_EEEERKNS_14_Safe_iteratorIT_T0_EEPKcNS0_12_Is_iteratorE@Base 2.1.0
 _ZN11__gnu_debug16_Error_formatter10_ParameterC2IN9__gnu_cxx17__normal_iteratorIPKN7blocxx66StringENSt9__cxx19986vectorIS6_SaIS6_EEEEENSt7__debug6vectorIS6_SB_EEEERKNS_14_Safe_iteratorIT_T0_EEPKcNS0_12_Is_iteratorE@Base 2.1.0
 _ZN11__gnu_debug16_Error_formatter10_ParameterC2IN9__gnu_cxx17__normal_iteratorIPKN7blocxx69PerlRegEx7match_tENSt9__cxx19986vectorIS7_SaIS7_EEEEEEERKT_PKcNS0_12_Is_iteratorE@Base 2.1.0
 _ZN11__gnu_debug16_Error_formatter10_ParameterC2IN9__gnu_cxx17__normal_iteratorIPKN7blocxx69PerlRegEx7match_tENSt9__cxx19986vectorIS7_SaIS7_EEEEENSt7__debug6vectorIS7_SC_EEEERKNS_14_Safe_iteratorIT_T0_EEPKcNS0_12_Is_iteratorE@Base 2.1.0
 _ZN11__gnu_debug16_Error_formatter10_ParameterC2IN9__gnu_cxx17__normal_iteratorIPKPKcNSt9__cxx19986vectorIS6_SaIS6_EEEEEEERKT_S6_NS0_12_Is_iteratorE@Base 2.1.0
 _ZN11__gnu_debug16_Error_formatter10_ParameterC2IN9__gnu_cxx17__normal_iteratorIPKSt4pairIN7blocxx66StringENS6_17EFileStatusReturnEENSt9__cxx19986vectorIS9_SaIS9_EEEEENSt7__debug6vectorIS9_SE_EEEERKNS_14_Safe_iteratorIT_T0_EEPKcNS0_12_Is_iteratorE@Base 2.1.0
 _ZN11__gnu_debug16_Error_formatter10_ParameterC2IN9__gnu_cxx17__normal_iteratorIPKSt4pairIN7blocxx66StringES7_ENSt9__cxx19986vectorIS8_SaIS8_EEEEENSt7__debug6vectorIS8_SD_EEEERKNS_14_Safe_iteratorIT_T0_EEPKcNS0_12_Is_iteratorE@Base 2.1.0
 _ZN11__gnu_debug16_Error_formatter10_ParameterC2IN9__gnu_cxx17__normal_iteratorIPKSt4pairIiN7blocxx612SelectEngine4DataEENSt9__cxx19986vectorIS9_SaIS9_EEEEENSt7__debug6vectorIS9_SE_EEEERKNS_14_Safe_iteratorIT_T0_EEPKcNS0_12_Is_iteratorE@Base 2.1.0
 _ZN11__gnu_debug16_Error_formatter10_ParameterC2IN9__gnu_cxx17__normal_iteratorIPKSt4pairIiN7blocxx65ArrayINS6_6StringEEEENSt9__cxx19986vectorISA_SaISA_EEEEENSt7__debug6vectorISA_SF_EEEERKNS_14_Safe_iteratorIT_T0_EEPKcNS0_12_Is_iteratorE@Base 2.1.0
 _ZN11__gnu_debug16_Error_formatter10_ParameterC2IN9__gnu_cxx17__normal_iteratorIPKcNSt9__cxx19986vectorIcSaIcEEEEEEERKT_S6_NS0_12_Is_iteratorE@Base 2.1.0
 _ZN11__gnu_debug16_Error_formatter10_ParameterC2IN9__gnu_cxx17__normal_iteratorIPKiNSt9__cxx19986vectorIiSaIiEEEEEEERKT_PKcNS0_12_Is_iteratorE@Base 2.1.0
 _ZN11__gnu_debug16_Error_formatter10_ParameterC2IN9__gnu_cxx17__normal_iteratorIPKtNSt9__cxx19986vectorItSaItEEEEEEERKT_PKcNS0_12_Is_iteratorE@Base 2.1.0
 _ZN11__gnu_debug16_Error_formatter10_ParameterC2IN9__gnu_cxx17__normal_iteratorIPN7blocxx618IntrusiveReferenceINS5_6ThreadEEENSt9__cxx19986vectorIS8_SaIS8_EEEEEEERKT_PKcNS0_12_Is_iteratorE@Base 2.1.0
 _ZN11__gnu_debug16_Error_formatter10_ParameterC2IN9__gnu_cxx17__normal_iteratorIPN7blocxx618IntrusiveReferenceINS5_6ThreadEEENSt9__cxx19986vectorIS8_SaIS8_EEEEENSt7__debug6vectorIS8_SC_EEEERKNS_14_Safe_iteratorIT_T0_EEPKcNS0_12_Is_iteratorE@Base 2.1.0
 _ZN11__gnu_debug16_Error_formatter10_ParameterC2IN9__gnu_cxx17__normal_iteratorIPN7blocxx66StringENSt9__cxx19986vectorIS6_SaIS6_EEEEEEERKT_PKcNS0_12_Is_iteratorE@Base 2.1.0
 _ZN11__gnu_debug16_Error_formatter10_ParameterC2IN9__gnu_cxx17__normal_iteratorIPN7blocxx66StringENSt9__cxx19986vectorIS6_SaIS6_EEEEENSt7__debug6vectorIS6_SA_EEEERKNS_14_Safe_iteratorIT_T0_EEPKcNS0_12_Is_iteratorE@Base 2.1.0
 _ZN11__gnu_debug16_Error_formatter10_ParameterC2IN9__gnu_cxx17__normal_iteratorIPN7blocxx69PerlRegEx7match_tENSt9__cxx19986vectorIS7_SaIS7_EEEEENSt7__debug6vectorIS7_SB_EEEERKNS_14_Safe_iteratorIT_T0_EEPKcNS0_12_Is_iteratorE@Base 2.1.0
 _ZN11__gnu_debug16_Error_formatter10_ParameterC2IN9__gnu_cxx17__normal_iteratorIPSt4pairIiN7blocxx612SelectEngine4DataEENSt9__cxx19986vectorIS9_SaIS9_EEEEEEERKT_PKcNS0_12_Is_iteratorE@Base 2.1.0
 _ZN11__gnu_debug16_Error_formatter10_ParameterC2IN9__gnu_cxx17__normal_iteratorIPSt4pairIiN7blocxx612SelectEngine4DataEENSt9__cxx19986vectorIS9_SaIS9_EEEEENSt7__debug6vectorIS9_SD_EEEERKNS_14_Safe_iteratorIT_T0_EEPKcNS0_12_Is_iteratorE@Base 2.1.0
 _ZN11__gnu_debug16_Error_formatter10_ParameterC2IN9__gnu_cxx17__normal_iteratorIPSt4pairIiN7blocxx65ArrayINS6_6StringEEEENSt9__cxx19986vectorISA_SaISA_EEEEENSt7__debug6vectorISA_SE_EEEERKNS_14_Safe_iteratorIT_T0_EEPKcNS0_12_Is_iteratorE@Base 2.1.0
 _ZN11__gnu_debug16_Error_formatter10_ParameterC2IN9__gnu_cxx17__normal_iteratorIPcNSt9__cxx19986vectorIcSaIcEEEEEEERKT_PKcNS0_12_Is_iteratorE@Base 2.1.0
 _ZN11__gnu_debug16_Error_formatter10_ParameterC2IN9__gnu_cxx17__normal_iteratorIPcNSt9__cxx19986vectorIcSaIcEEEEENSt7__debug6vectorIcS8_EEEERKNS_14_Safe_iteratorIT_T0_EEPKcNS0_12_Is_iteratorE@Base 2.1.0
 _ZN11__gnu_debug16_Error_formatter10_ParameterC2IN9__gnu_cxx17__normal_iteratorIPhNSt9__cxx19986vectorIhSaIhEEEEENSt7__debug6vectorIhS8_EEEERKNS_14_Safe_iteratorIT_T0_EEPKcNS0_12_Is_iteratorE@Base 2.1.0
 _ZN11__gnu_debug16_Error_formatter10_ParameterC2INSt7__debug3mapIN7blocxx66StringES6_St4lessIS6_ESaISt4pairIKS6_S6_EEEEEERKT_PKcNS0_12_Is_sequenceE@Base 2.1.0
 _ZN11__gnu_debug16_Error_formatter10_ParameterC2INSt7__debug3mapImN7blocxx617GenericRWLockImplImNS5_8RWLocker14ThreadComparerEE10LockerInfoES8_SaISt4pairIKmSA_EEEEEERKT_PKcNS0_12_Is_sequenceE@Base 2.1.0
 _ZN11__gnu_debug16_Error_formatter10_ParameterC2INSt7__debug5dequeIN7blocxx618IntrusiveReferenceINS5_8RunnableEEESaIS8_EEEEERKT_PKcNS0_12_Is_sequenceE@Base 2.1.0
 _ZN11__gnu_debug16_Error_formatter10_ParameterC2INSt7__debug6vectorI10regmatch_tSaIS5_EEEEERKT_PKcNS0_12_Is_sequenceE@Base 2.1.0
 _ZN11__gnu_debug16_Error_formatter10_ParameterC2INSt7__debug6vectorIN7blocxx618IntrusiveReferenceINS5_11LogAppenderEEESaIS8_EEEEERKT_PKcNS0_12_Is_sequenceE@Base 2.1.0
 _ZN11__gnu_debug16_Error_formatter10_ParameterC2INSt7__debug6vectorIN7blocxx618IntrusiveReferenceINS5_6ThreadEEESaIS8_EEEEERKT_PKcNS0_12_Is_sequenceE@Base 2.1.0
 _ZN11__gnu_debug16_Error_formatter10_ParameterC2INSt7__debug6vectorIN7blocxx618IntrusiveReferenceINS5_7ProcessEEESaIS8_EEEEERKT_PKcNS0_12_Is_sequenceE@Base 2.1.0
 _ZN11__gnu_debug16_Error_formatter10_ParameterC2INSt7__debug6vectorIN7blocxx65ArrayIcEESaIS7_EEEEERKT_PKcNS0_12_Is_sequenceE@Base 2.1.0
 _ZN11__gnu_debug16_Error_formatter10_ParameterC2INSt7__debug6vectorIN7blocxx66Char16ESaIS6_EEEEERKT_PKcNS0_12_Is_sequenceE@Base 2.1.0
 _ZN11__gnu_debug16_Error_formatter10_ParameterC2INSt7__debug6vectorIN7blocxx66Select12SelectObjectESaIS7_EEEEERKT_PKcNS0_12_Is_sequenceE@Base 2.1.0
 _ZN11__gnu_debug16_Error_formatter10_ParameterC2INSt7__debug6vectorIN7blocxx66StringESaIS6_EEEEERKT_PKcNS0_12_Is_sequenceE@Base 2.1.0
 _ZN11__gnu_debug16_Error_formatter10_ParameterC2INSt7__debug6vectorIN7blocxx69PerlRegEx7match_tESaIS7_EEEEERKT_PKcNS0_12_Is_sequenceE@Base 2.1.0
 _ZN11__gnu_debug16_Error_formatter10_ParameterC2INSt7__debug6vectorIN7blocxx69ReferenceINS5_22DelayedFormatInternals26DelayedFormatReferenceBaseEEESaIS9_EEEEERKT_PKcNS0_12_Is_sequenceE@Base 2.1.0
 _ZN11__gnu_debug16_Error_formatter10_ParameterC2INSt7__debug6vectorIPKcSaIS6_EEEEERKT_S6_NS0_12_Is_sequenceE@Base 2.1.0
 _ZN11__gnu_debug16_Error_formatter10_ParameterC2INSt7__debug6vectorISt4pairIiN7blocxx612SelectEngine4DataEESaIS9_EEEEERKT_PKcNS0_12_Is_sequenceE@Base 2.1.0
 _ZN11__gnu_debug16_Error_formatter10_ParameterC2INSt7__debug6vectorISt4pairIiN7blocxx65ArrayINS6_6StringEEEESaISA_EEEEERKT_PKcNS0_12_Is_sequenceE@Base 2.1.0
 _ZN11__gnu_debug16_Error_formatter10_ParameterC2INSt7__debug6vectorIbSaIbEEEEERKT_PKcNS0_12_Is_sequenceE@Base 2.1.0
 _ZN11__gnu_debug16_Error_formatter10_ParameterC2INSt7__debug6vectorIcSaIcEEEEERKT_PKcNS0_12_Is_sequenceE@Base 2.1.0
 _ZN11__gnu_debug16_Error_formatter10_ParameterC2INSt7__debug6vectorIhSaIhEEEEERKT_PKcNS0_12_Is_sequenceE@Base 2.1.0
 _ZN11__gnu_debug16_Error_formatter10_ParameterC2INSt7__debug6vectorIiSaIiEEEEERKT_PKcNS0_12_Is_sequenceE@Base 2.1.0
 _ZN11__gnu_debug16_Error_formatter10_ParameterC2INSt7__debug6vectorItSaItEEEEERKT_PKcNS0_12_Is_sequenceE@Base 2.1.0
 _ZN11__gnu_debug16_Error_formatter10_ParameterC2IP10regmatch_tEERKT_PKcNS0_12_Is_iteratorE@Base 2.1.0
 _ZN11__gnu_debug16_Error_formatter10_ParameterC2IPKN7blocxx613CmdLineParser6OptionEEERKT_PKcNS0_12_Is_iteratorE@Base 2.1.0
 _ZN11__gnu_debug16_Error_formatter10_ParameterC2IPKcEERKT_S4_NS0_12_Is_iteratorE@Base 2.1.0
 _ZN11__gnu_debug16_Error_formatter10_ParameterC2IPN7blocxx618IntrusiveReferenceINS3_11LogAppenderEEEEERKT_PKcNS0_12_Is_iteratorE@Base 2.1.0
 _ZN11__gnu_debug16_Error_formatter10_ParameterC2IPN7blocxx618IntrusiveReferenceINS3_26LogMessagePatternFormatter9ConverterEEEEERKT_PKcNS0_12_Is_iteratorE@Base 2.1.0
 _ZN11__gnu_debug16_Error_formatter10_ParameterC2IPN7blocxx618IntrusiveReferenceINS3_6ThreadEEEEERKT_PKcNS0_12_Is_iteratorE@Base 2.1.0
 _ZN11__gnu_debug16_Error_formatter10_ParameterC2IPN7blocxx618IntrusiveReferenceINS3_7ProcessEEEEERKT_PKcNS0_12_Is_iteratorE@Base 2.1.0
 _ZN11__gnu_debug16_Error_formatter10_ParameterC2IPN7blocxx66Select12SelectObjectEEERKT_PKcNS0_12_Is_iteratorE@Base 2.1.0
 _ZN11__gnu_debug16_Error_formatter10_ParameterC2IPN7blocxx66StringEEERKT_PKcNS0_12_Is_iteratorE@Base 2.1.0
 _ZN11__gnu_debug16_Error_formatter10_ParameterC2IPN7blocxx69PerlRegEx7match_tEEERKT_PKcNS0_12_Is_iteratorE@Base 2.1.0
 _ZN11__gnu_debug16_Error_formatter10_ParameterC2IPPKcEERKT_S4_NS0_12_Is_iteratorE@Base 2.1.0
 _ZN11__gnu_debug16_Error_formatter10_ParameterC2IPPN7blocxx618IntrusiveReferenceINS3_8RunnableEEEEERKT_PKcNS0_12_Is_iteratorE@Base 2.1.0
 _ZN11__gnu_debug16_Error_formatter10_ParameterC2IPPcEERKT_PKcNS0_12_Is_iteratorE@Base 2.1.0
 _ZN11__gnu_debug16_Error_formatter10_ParameterC2IPSt4pairIN7blocxx66StringENS4_17EFileStatusReturnEEEERKT_PKcNS0_12_Is_iteratorE@Base 2.1.0
 _ZN11__gnu_debug16_Error_formatter10_ParameterC2IPSt4pairIiN7blocxx612SelectEngine4DataEEEERKT_PKcNS0_12_Is_iteratorE@Base 2.1.0
 _ZN11__gnu_debug16_Error_formatter10_ParameterC2IPSt4pairIiN7blocxx65ArrayINS4_6StringEEEEEERKT_PKcNS0_12_Is_iteratorE@Base 2.1.0
 _ZN11__gnu_debug16_Error_formatter10_ParameterC2IPcEERKT_PKcNS0_12_Is_iteratorE@Base 2.1.0
 _ZN11__gnu_debug16_Error_formatter10_ParameterC2IPhEERKT_PKcNS0_12_Is_iteratorE@Base 2.1.0
 _ZN11__gnu_debug16_Error_formatter10_ParameterC2IPiEERKT_PKcNS0_12_Is_iteratorE@Base 2.1.0
 _ZN11__gnu_debug16_Error_formatter10_ParameterC2IPtEERKT_PKcNS0_12_Is_iteratorE@Base 2.1.0
 _ZN11__gnu_debug16_Error_formatter10_ParameterC2ISt17_Rb_tree_iteratorISt4pairIKN7blocxx66StringENS5_13SSLTrustStore8UserInfoEEENSt7__debug3mapIS6_S9_St4lessIS6_ESaISA_EEEEERKNS_14_Safe_iteratorIT_T0_EEPKcNS0_12_Is_iteratorE@Base 2.1.0
 _ZN11__gnu_debug16_Error_formatter10_ParameterC2ISt17_Rb_tree_iteratorISt4pairIKN7blocxx66StringES6_EENSt7__debug3mapIS6_S6_St4lessIS6_ESaIS8_EEEEERKNS_14_Safe_iteratorIT_T0_EEPKcNS0_12_Is_iteratorE@Base 2.1.0
 _ZN11__gnu_debug16_Error_formatter10_ParameterC2ISt17_Rb_tree_iteratorISt4pairIKmN7blocxx617GenericRWLockImplImNS6_8RWLocker14ThreadComparerEE10LockerInfoEEENSt7__debug3mapImSB_S9_SaISC_EEEEERKNS_14_Safe_iteratorIT_T0_EEPKcNS0_12_Is_iteratorE@Base 2.1.0
 _ZN11__gnu_debug16_Error_formatter10_ParameterC2ISt23_Rb_tree_const_iteratorISt4pairIKN7blocxx66StringENS5_13SSLTrustStore8UserInfoEEENSt7__debug3mapIS6_S9_St4lessIS6_ESaISA_EEEEERKNS_14_Safe_iteratorIT_T0_EEPKcNS0_12_Is_iteratorE@Base 2.1.0
 _ZN11__gnu_debug16_Error_formatter10_ParameterC2ISt23_Rb_tree_const_iteratorISt4pairIKN7blocxx66StringES6_EENSt7__debug3mapIS6_S6_St4lessIS6_ESaIS8_EEEEERKNS_14_Safe_iteratorIT_T0_EEPKcNS0_12_Is_iteratorE@Base 2.1.0
 _ZN11__gnu_debug16_Error_formatter5_M_atEPKcm@Base 2.1.0
 _ZN11__gnu_debug16_Error_formatterC1EPKcm@Base 2.1.0
 _ZN11__gnu_debug16_Error_formatterC2EPKcm@Base 2.1.0
 _ZN11__gnu_debug16__check_singularIKN9__gnu_cxx17__normal_iteratorIPK10regmatch_tNSt9__cxx19986vectorIS3_SaIS3_EEEEEEEbRT_@Base 2.1.0
 _ZN11__gnu_debug16__check_singularIKN9__gnu_cxx17__normal_iteratorIPKN7blocxx69PerlRegEx7match_tENSt9__cxx19986vectorIS5_SaIS5_EEEEEEEbRT_@Base 2.1.0
 _ZN11__gnu_debug16__check_singularIKN9__gnu_cxx17__normal_iteratorIPKPKcNSt9__cxx19986vectorIS4_SaIS4_EEEEEEEbRT_@Base 2.1.0
 _ZN11__gnu_debug16__check_singularIKN9__gnu_cxx17__normal_iteratorIPKcNSt9__cxx19986vectorIcSaIcEEEEEEEbRT_@Base 2.1.0
 _ZN11__gnu_debug16__check_singularIKN9__gnu_cxx17__normal_iteratorIPKiNSt9__cxx19986vectorIiSaIiEEEEEEEbRT_@Base 2.1.0
 _ZN11__gnu_debug16__check_singularIKN9__gnu_cxx17__normal_iteratorIPKtNSt9__cxx19986vectorItSaItEEEEEEEbRT_@Base 2.1.0
 _ZN11__gnu_debug16__check_singularIKN9__gnu_cxx17__normal_iteratorIPN7blocxx618IntrusiveReferenceINS3_6ThreadEEENSt9__cxx19986vectorIS6_SaIS6_EEEEEEEbRT_@Base 2.1.0
 _ZN11__gnu_debug16__check_singularIKN9__gnu_cxx17__normal_iteratorIPN7blocxx66StringENSt9__cxx19986vectorIS4_SaIS4_EEEEEEEbRT_@Base 2.1.0
 _ZN11__gnu_debug16__check_singularIKN9__gnu_cxx17__normal_iteratorIPSt4pairIiN7blocxx612SelectEngine4DataEENSt9__cxx19986vectorIS7_SaIS7_EEEEEEEbRT_@Base 2.1.0
 _ZN11__gnu_debug16__check_singularIKN9__gnu_cxx17__normal_iteratorIPcNSt9__cxx19986vectorIcSaIcEEEEEEEbRT_@Base 2.1.0
 _ZN11__gnu_debug16__check_singularIKP10regmatch_tEEbRT_@Base 2.1.0
 _ZN11__gnu_debug16__check_singularIKPKN7blocxx613CmdLineParser6OptionEEEbRT_@Base 2.1.0
 _ZN11__gnu_debug16__check_singularIKPKcEEbRT_@Base 2.1.0
 _ZN11__gnu_debug16__check_singularIKPN7blocxx618IntrusiveReferenceINS1_11LogAppenderEEEEEbRT_@Base 2.1.0
 _ZN11__gnu_debug16__check_singularIKPN7blocxx618IntrusiveReferenceINS1_26LogMessagePatternFormatter9ConverterEEEEEbRT_@Base 2.1.0
 _ZN11__gnu_debug16__check_singularIKPN7blocxx618IntrusiveReferenceINS1_6ThreadEEEEEbRT_@Base 2.1.0
 _ZN11__gnu_debug16__check_singularIKPN7blocxx618IntrusiveReferenceINS1_7ProcessEEEEEbRT_@Base 2.1.0
 _ZN11__gnu_debug16__check_singularIKPN7blocxx66Select12SelectObjectEEEbRT_@Base 2.1.0
 _ZN11__gnu_debug16__check_singularIKPN7blocxx66StringEEEbRT_@Base 2.1.0
 _ZN11__gnu_debug16__check_singularIKPN7blocxx69PerlRegEx7match_tEEEbRT_@Base 2.1.0
 _ZN11__gnu_debug16__check_singularIKPPKcEEbRT_@Base 2.1.0
 _ZN11__gnu_debug16__check_singularIKPPN7blocxx618IntrusiveReferenceINS1_8RunnableEEEEEbRT_@Base 2.1.0
 _ZN11__gnu_debug16__check_singularIKPPcEEbRT_@Base 2.1.0
 _ZN11__gnu_debug16__check_singularIKPSt4pairIN7blocxx66StringENS2_17EFileStatusReturnEEEEbRT_@Base 2.1.0
 _ZN11__gnu_debug16__check_singularIKPSt4pairIiN7blocxx612SelectEngine4DataEEEEbRT_@Base 2.1.0
 _ZN11__gnu_debug16__check_singularIKPSt4pairIiN7blocxx65ArrayINS2_6StringEEEEEEbRT_@Base 2.1.0
 _ZN11__gnu_debug16__check_singularIKPcEEbRT_@Base 2.1.0
 _ZN11__gnu_debug16__check_singularIKPhEEbRT_@Base 2.1.0
 _ZN11__gnu_debug16__check_singularIKPiEEbRT_@Base 2.1.0
 _ZN11__gnu_debug16__check_singularIKPtEEbRT_@Base 2.1.0
 _ZN11__gnu_debug17__valid_range_auxIN9__gnu_cxx17__normal_iteratorIPK10regmatch_tNSt9__cxx19986vectorIS3_SaIS3_EEEEEEEbRKT_SD_St12__false_type@Base 2.1.0
 _ZN11__gnu_debug17__valid_range_auxIN9__gnu_cxx17__normal_iteratorIPKN7blocxx69PerlRegEx7match_tENSt9__cxx19986vectorIS5_SaIS5_EEEEEEEbRKT_SF_St12__false_type@Base 2.1.0
 _ZN11__gnu_debug17__valid_range_auxIN9__gnu_cxx17__normal_iteratorIPKPKcNSt9__cxx19986vectorIS4_SaIS4_EEEEEEEbRKT_SE_St12__false_type@Base 2.1.0
 _ZN11__gnu_debug17__valid_range_auxIN9__gnu_cxx17__normal_iteratorIPKcNSt9__cxx19986vectorIcSaIcEEEEEEEbRKT_SC_St12__false_type@Base 2.1.0
 _ZN11__gnu_debug17__valid_range_auxIN9__gnu_cxx17__normal_iteratorIPKiNSt9__cxx19986vectorIiSaIiEEEEEEEbRKT_SC_St12__false_type@Base 2.1.0
 _ZN11__gnu_debug17__valid_range_auxIN9__gnu_cxx17__normal_iteratorIPKtNSt9__cxx19986vectorItSaItEEEEEEEbRKT_SC_St12__false_type@Base 2.1.0
 _ZN11__gnu_debug17__valid_range_auxIN9__gnu_cxx17__normal_iteratorIPN7blocxx618IntrusiveReferenceINS3_6ThreadEEENSt9__cxx19986vectorIS6_SaIS6_EEEEEEEbRKT_SF_St12__false_type@Base 2.1.0
 _ZN11__gnu_debug17__valid_range_auxIN9__gnu_cxx17__normal_iteratorIPN7blocxx66StringENSt9__cxx19986vectorIS4_SaIS4_EEEEEEEbRKT_SD_St12__false_type@Base 2.1.0
 _ZN11__gnu_debug17__valid_range_auxIN9__gnu_cxx17__normal_iteratorIPSt4pairIiN7blocxx612SelectEngine4DataEENSt9__cxx19986vectorIS7_SaIS7_EEEEEEEbRKT_SG_St12__false_type@Base 2.1.0
 _ZN11__gnu_debug17__valid_range_auxIN9__gnu_cxx17__normal_iteratorIPcNSt9__cxx19986vectorIcSaIcEEEEEEEbRKT_SB_St12__false_type@Base 2.1.0
 _ZN11__gnu_debug17__valid_range_auxIP10regmatch_tEEbRKT_S5_St12__false_type@Base 2.1.0
 _ZN11__gnu_debug17__valid_range_auxIPKN7blocxx613CmdLineParser6OptionEEEbRKT_S8_St12__false_type@Base 2.1.0
 _ZN11__gnu_debug17__valid_range_auxIPKcEEbRKT_S5_St12__false_type@Base 2.1.0
 _ZN11__gnu_debug17__valid_range_auxIPN7blocxx618IntrusiveReferenceINS1_11LogAppenderEEEEEbRKT_S8_St12__false_type@Base 2.1.0
 _ZN11__gnu_debug17__valid_range_auxIPN7blocxx618IntrusiveReferenceINS1_26LogMessagePatternFormatter9ConverterEEEEEbRKT_S9_St12__false_type@Base 2.1.0
 _ZN11__gnu_debug17__valid_range_auxIPN7blocxx618IntrusiveReferenceINS1_6ThreadEEEEEbRKT_S8_St12__false_type@Base 2.1.0
 _ZN11__gnu_debug17__valid_range_auxIPN7blocxx618IntrusiveReferenceINS1_7ProcessEEEEEbRKT_S8_St12__false_type@Base 2.1.0
 _ZN11__gnu_debug17__valid_range_auxIPN7blocxx66Select12SelectObjectEEEbRKT_S7_St12__false_type@Base 2.1.0
 _ZN11__gnu_debug17__valid_range_auxIPN7blocxx66StringEEEbRKT_S6_St12__false_type@Base 2.1.0
 _ZN11__gnu_debug17__valid_range_auxIPN7blocxx69PerlRegEx7match_tEEEbRKT_S7_St12__false_type@Base 2.1.0
 _ZN11__gnu_debug17__valid_range_auxIPPKcEEbRKT_S6_St12__false_type@Base 2.1.0
 _ZN11__gnu_debug17__valid_range_auxIPPN7blocxx618IntrusiveReferenceINS1_8RunnableEEEEEbRKT_S9_St12__false_type@Base 2.1.0
 _ZN11__gnu_debug17__valid_range_auxIPPcEEbRKT_S5_St12__false_type@Base 2.1.0
 _ZN11__gnu_debug17__valid_range_auxIPSt4pairIN7blocxx66StringENS2_17EFileStatusReturnEEEEbRKT_S9_St12__false_type@Base 2.1.0
 _ZN11__gnu_debug17__valid_range_auxIPSt4pairIiN7blocxx612SelectEngine4DataEEEEbRKT_S9_St12__false_type@Base 2.1.0
 _ZN11__gnu_debug17__valid_range_auxIPSt4pairIiN7blocxx65ArrayINS2_6StringEEEEEEbRKT_SA_St12__false_type@Base 2.1.0
 _ZN11__gnu_debug17__valid_range_auxIPcEEbRKT_S4_St12__false_type@Base 2.1.0
 _ZN11__gnu_debug17__valid_range_auxIPhEEbRKT_S4_St12__false_type@Base 2.1.0
 _ZN11__gnu_debug17__valid_range_auxIPiEEbRKT_S4_St12__false_type@Base 2.1.0
 _ZN11__gnu_debug17__valid_range_auxIPtEEbRKT_S4_St12__false_type@Base 2.1.0
 _ZN11__gnu_debug18_BeforeBeginHelperINSt7__debug3mapIN7blocxx66StringENS3_13SSLTrustStore8UserInfoESt4lessIS4_ESaISt4pairIKS4_S6_EEEEE5_M_IsESt23_Rb_tree_const_iteratorISB_EPKSD_@Base 2.1.0
 _ZN11__gnu_debug18_BeforeBeginHelperINSt7__debug3mapIN7blocxx66StringES4_St4lessIS4_ESaISt4pairIKS4_S4_EEEEE5_M_IsESt23_Rb_tree_const_iteratorIS9_EPKSB_@Base 2.1.0
 _ZN11__gnu_debug18_BeforeBeginHelperINSt7__debug3mapImN7blocxx617GenericRWLockImplImNS3_8RWLocker14ThreadComparerEE10LockerInfoES6_SaISt4pairIKmS8_EEEEE5_M_IsESt23_Rb_tree_const_iteratorISB_EPKSD_@Base 2.1.0
 _ZN11__gnu_debug18_BeforeBeginHelperINSt7__debug6vectorI10regmatch_tSaIS3_EEEE5_M_IsEN9__gnu_cxx17__normal_iteratorIPKS3_NSt9__cxx19986vectorIS3_S4_EEEEPKS5_@Base 2.1.0
 _ZN11__gnu_debug18_BeforeBeginHelperINSt7__debug6vectorIN7blocxx618IntrusiveReferenceINS3_26LogMessagePatternFormatter9ConverterEEESaIS7_EEEE5_M_IsEN9__gnu_cxx17__normal_iteratorIPKS7_NSt9__cxx19986vectorIS7_S8_EEEEPKS9_@Base 2.1.0
 _ZN11__gnu_debug18_BeforeBeginHelperINSt7__debug6vectorIN7blocxx618IntrusiveReferenceINS3_6ThreadEEESaIS6_EEEE5_M_IsEN9__gnu_cxx17__normal_iteratorIPKS6_NSt9__cxx19986vectorIS6_S7_EEEEPKS8_@Base 2.1.0
 _ZN11__gnu_debug18_BeforeBeginHelperINSt7__debug6vectorIN7blocxx66StringESaIS4_EEEE5_M_IsEN9__gnu_cxx17__normal_iteratorIPKS4_NSt9__cxx19986vectorIS4_S5_EEEEPKS6_@Base 2.1.0
 _ZN11__gnu_debug18_BeforeBeginHelperINSt7__debug6vectorIN7blocxx69PerlRegEx7match_tESaIS5_EEEE5_M_IsEN9__gnu_cxx17__normal_iteratorIPKS5_NSt9__cxx19986vectorIS5_S6_EEEEPKS7_@Base 2.1.0
 _ZN11__gnu_debug18_BeforeBeginHelperINSt7__debug6vectorISt4pairIN7blocxx66StringENS4_17EFileStatusReturnEESaIS7_EEEE5_M_IsEN9__gnu_cxx17__normal_iteratorIPKS7_NSt9__cxx19986vectorIS7_S8_EEEEPKS9_@Base 2.1.0
 _ZN11__gnu_debug18_BeforeBeginHelperINSt7__debug6vectorISt4pairIN7blocxx66StringES5_ESaIS6_EEEE5_M_IsEN9__gnu_cxx17__normal_iteratorIPKS6_NSt9__cxx19986vectorIS6_S7_EEEEPKS8_@Base 2.1.0
 _ZN11__gnu_debug18_BeforeBeginHelperINSt7__debug6vectorISt4pairIiN7blocxx612SelectEngine4DataEESaIS7_EEEE5_M_IsEN9__gnu_cxx17__normal_iteratorIPKS7_NSt9__cxx19986vectorIS7_S8_EEEEPKS9_@Base 2.1.0
 _ZN11__gnu_debug18_BeforeBeginHelperINSt7__debug6vectorISt4pairIiN7blocxx65ArrayINS4_6StringEEEESaIS8_EEEE5_M_IsEN9__gnu_cxx17__normal_iteratorIPKS8_NSt9__cxx19986vectorIS8_S9_EEEEPKSA_@Base 2.1.0
 _ZN11__gnu_debug18_BeforeBeginHelperINSt7__debug6vectorIcSaIcEEEE5_M_IsEN9__gnu_cxx17__normal_iteratorIPKcNSt9__cxx19986vectorIcS3_EEEEPKS4_@Base 2.1.0
 _ZN11__gnu_debug18_BeforeBeginHelperINSt7__debug6vectorIhSaIhEEEE5_M_IsEN9__gnu_cxx17__normal_iteratorIPKhNSt9__cxx19986vectorIhS3_EEEEPKS4_@Base 2.1.0
 _ZN11__gnu_debug18__valid_range_aux2IN9__gnu_cxx17__normal_iteratorIPK10regmatch_tNSt9__cxx19986vectorIS3_SaIS3_EEEEEEEbRKT_SD_St26random_access_iterator_tag@Base 2.1.0
 _ZN11__gnu_debug18__valid_range_aux2IN9__gnu_cxx17__normal_iteratorIPKN7blocxx69PerlRegEx7match_tENSt9__cxx19986vectorIS5_SaIS5_EEEEEEEbRKT_SF_St26random_access_iterator_tag@Base 2.1.0
 _ZN11__gnu_debug18__valid_range_aux2IN9__gnu_cxx17__normal_iteratorIPKPKcNSt9__cxx19986vectorIS4_SaIS4_EEEEEEEbRKT_SE_St26random_access_iterator_tag@Base 2.1.0
 _ZN11__gnu_debug18__valid_range_aux2IN9__gnu_cxx17__normal_iteratorIPKcNSt9__cxx19986vectorIcSaIcEEEEEEEbRKT_SC_St26random_access_iterator_tag@Base 2.1.0
 _ZN11__gnu_debug18__valid_range_aux2IN9__gnu_cxx17__normal_iteratorIPKiNSt9__cxx19986vectorIiSaIiEEEEEEEbRKT_SC_St26random_access_iterator_tag@Base 2.1.0
 _ZN11__gnu_debug18__valid_range_aux2IN9__gnu_cxx17__normal_iteratorIPKtNSt9__cxx19986vectorItSaItEEEEEEEbRKT_SC_St26random_access_iterator_tag@Base 2.1.0
 _ZN11__gnu_debug18__valid_range_aux2IN9__gnu_cxx17__normal_iteratorIPN7blocxx618IntrusiveReferenceINS3_6ThreadEEENSt9__cxx19986vectorIS6_SaIS6_EEEEEEEbRKT_SF_St26random_access_iterator_tag@Base 2.1.0
 _ZN11__gnu_debug18__valid_range_aux2IN9__gnu_cxx17__normal_iteratorIPN7blocxx66StringENSt9__cxx19986vectorIS4_SaIS4_EEEEEEEbRKT_SD_St26random_access_iterator_tag@Base 2.1.0
 _ZN11__gnu_debug18__valid_range_aux2IN9__gnu_cxx17__normal_iteratorIPSt4pairIiN7blocxx612SelectEngine4DataEENSt9__cxx19986vectorIS7_SaIS7_EEEEEEEbRKT_SG_St26random_access_iterator_tag@Base 2.1.0
 _ZN11__gnu_debug18__valid_range_aux2IN9__gnu_cxx17__normal_iteratorIPcNSt9__cxx19986vectorIcSaIcEEEEEEEbRKT_SB_St26random_access_iterator_tag@Base 2.1.0
 _ZN11__gnu_debug18__valid_range_aux2IP10regmatch_tEEbRKT_S5_St26random_access_iterator_tag@Base 2.1.0
 _ZN11__gnu_debug18__valid_range_aux2IPKN7blocxx613CmdLineParser6OptionEEEbRKT_S8_St26random_access_iterator_tag@Base 2.1.0
 _ZN11__gnu_debug18__valid_range_aux2IPKcEEbRKT_S5_St26random_access_iterator_tag@Base 2.1.0
 _ZN11__gnu_debug18__valid_range_aux2IPN7blocxx618IntrusiveReferenceINS1_11LogAppenderEEEEEbRKT_S8_St26random_access_iterator_tag@Base 2.1.0
 _ZN11__gnu_debug18__valid_range_aux2IPN7blocxx618IntrusiveReferenceINS1_26LogMessagePatternFormatter9ConverterEEEEEbRKT_S9_St26random_access_iterator_tag@Base 2.1.0
 _ZN11__gnu_debug18__valid_range_aux2IPN7blocxx618IntrusiveReferenceINS1_6ThreadEEEEEbRKT_S8_St26random_access_iterator_tag@Base 2.1.0
 _ZN11__gnu_debug18__valid_range_aux2IPN7blocxx618IntrusiveReferenceINS1_7ProcessEEEEEbRKT_S8_St26random_access_iterator_tag@Base 2.1.0
 _ZN11__gnu_debug18__valid_range_aux2IPN7blocxx66Select12SelectObjectEEEbRKT_S7_St26random_access_iterator_tag@Base 2.1.0
 _ZN11__gnu_debug18__valid_range_aux2IPN7blocxx66StringEEEbRKT_S6_St26random_access_iterator_tag@Base 2.1.0
 _ZN11__gnu_debug18__valid_range_aux2IPN7blocxx69PerlRegEx7match_tEEEbRKT_S7_St26random_access_iterator_tag@Base 2.1.0
 _ZN11__gnu_debug18__valid_range_aux2IPPKcEEbRKT_S6_St26random_access_iterator_tag@Base 2.1.0
 _ZN11__gnu_debug18__valid_range_aux2IPPN7blocxx618IntrusiveReferenceINS1_8RunnableEEEEEbRKT_S9_St26random_access_iterator_tag@Base 2.1.0
 _ZN11__gnu_debug18__valid_range_aux2IPPcEEbRKT_S5_St26random_access_iterator_tag@Base 2.1.0
 _ZN11__gnu_debug18__valid_range_aux2IPSt4pairIN7blocxx66StringENS2_17EFileStatusReturnEEEEbRKT_S9_St26random_access_iterator_tag@Base 2.1.0
 _ZN11__gnu_debug18__valid_range_aux2IPSt4pairIiN7blocxx612SelectEngine4DataEEEEbRKT_S9_St26random_access_iterator_tag@Base 2.1.0
 _ZN11__gnu_debug18__valid_range_aux2IPSt4pairIiN7blocxx65ArrayINS2_6StringEEEEEEbRKT_SA_St26random_access_iterator_tag@Base 2.1.0
 _ZN11__gnu_debug18__valid_range_aux2IPcEEbRKT_S4_St26random_access_iterator_tag@Base 2.1.0
 _ZN11__gnu_debug18__valid_range_aux2IPhEEbRKT_S4_St26random_access_iterator_tag@Base 2.1.0
 _ZN11__gnu_debug18__valid_range_aux2IPiEEbRKT_S4_St26random_access_iterator_tag@Base 2.1.0
 _ZN11__gnu_debug18__valid_range_aux2IPtEEbRKT_S4_St26random_access_iterator_tag@Base 2.1.0
 _ZN11__gnu_debug19_Safe_iterator_base13_M_invalidateEv@Base 2.1.0
 _ZN11__gnu_debug19_Safe_iterator_baseC1EPKNS_19_Safe_sequence_baseEb@Base 2.1.0
 _ZN11__gnu_debug19_Safe_iterator_baseC1ERKS0_b@Base 2.1.0
 _ZN11__gnu_debug19_Safe_iterator_baseC1Ev@Base 2.1.0
 _ZN11__gnu_debug19_Safe_iterator_baseC2EPKNS_19_Safe_sequence_baseEb@Base 2.1.0
 _ZN11__gnu_debug19_Safe_iterator_baseC2ERKS0_b@Base 2.1.0
 _ZN11__gnu_debug19_Safe_iterator_baseC2Ev@Base 2.1.0
 _ZN11__gnu_debug19_Safe_iterator_baseD1Ev@Base 2.1.0
 _ZN11__gnu_debug19_Safe_iterator_baseD2Ev@Base 2.1.0
 _ZN11__gnu_debug19_Safe_sequence_baseC1Ev@Base 2.1.0
 _ZN11__gnu_debug19_Safe_sequence_baseC2Ev@Base 2.1.0
 _ZN11__gnu_debug19_Safe_sequence_baseD1Ev@Base 2.1.0
 _ZN11__gnu_debug19_Safe_sequence_baseD2Ev@Base 2.1.0
 _ZN11__gnu_debug19__check_valid_rangeINS_14_Safe_iteratorIN9__gnu_cxx17__normal_iteratorIPKN7blocxx66StringENSt9__cxx19986vectorIS5_SaIS5_EEEEENSt7__debug6vectorIS5_SA_EEEEEET_RKSH_SJ_@Base 2.1.0
 _ZN11__gnu_debug19__check_valid_rangeIPKcEET_RKS3_S5_@Base 2.1.0
 _ZN11__gnu_debug20__check_singular_auxEPKv@Base 2.1.0
 _ZN11__gnu_debug25__check_partitioned_lowerINS_14_Safe_iteratorIN9__gnu_cxx17__normal_iteratorIPKN7blocxx66StringENSt9__cxx19986vectorIS5_SaIS5_EEEEENSt7__debug6vectorIS5_SA_EEEES5_St4lessIS5_EEEbT_SJ_RKT0_T1_@Base 2.1.0
 _ZN11__gnu_debug25__check_partitioned_lowerINS_14_Safe_iteratorIN9__gnu_cxx17__normal_iteratorIPKSt4pairIN7blocxx66StringES6_ENSt9__cxx19986vectorIS7_SaIS7_EEEEENSt7__debug6vectorIS7_SC_EEEES6_NS5_26SortedVectorMapDataCompareIS6_S6_St4lessIS6_EEEEEbT_SN_RKT0_T1_@Base 2.1.0
 _ZN11__gnu_debug25__check_partitioned_lowerINS_14_Safe_iteratorIN9__gnu_cxx17__normal_iteratorIPKSt4pairIiN7blocxx65ArrayINS5_6StringEEEENSt9__cxx19986vectorIS9_SaIS9_EEEEENSt7__debug6vectorIS9_SE_EEEEiNS5_26SortedVectorMapDataCompareIiS8_St4lessIiEEEEEbT_SP_RKT0_T1_@Base 2.1.0
 _ZN11__gnu_debug25__check_partitioned_lowerINS_14_Safe_iteratorIN9__gnu_cxx17__normal_iteratorIPSt4pairIiN7blocxx612SelectEngine4DataEENSt9__cxx19986vectorIS8_SaIS8_EEEEENSt7__debug6vectorIS8_SC_EEEES4_IKiS7_ENS5_26SortedVectorMapDataCompareIiS7_St4lessIiEEEEEbT_SP_RKT0_T1_@Base 2.1.0
 _ZN11__gnu_debug25__check_partitioned_lowerINS_14_Safe_iteratorIN9__gnu_cxx17__normal_iteratorIPSt4pairIiN7blocxx612SelectEngine4DataEENSt9__cxx19986vectorIS8_SaIS8_EEEEENSt7__debug6vectorIS8_SC_EEEEiNS5_26SortedVectorMapDataCompareIiS7_St4lessIiEEEEEbT_SN_RKT0_T1_@Base 2.1.0
 _ZN11__gnu_debug25__check_partitioned_lowerINS_14_Safe_iteratorIN9__gnu_cxx17__normal_iteratorIPSt4pairIiN7blocxx65ArrayINS5_6StringEEEENSt9__cxx19986vectorIS9_SaIS9_EEEEENSt7__debug6vectorIS9_SD_EEEEiNS5_26SortedVectorMapDataCompareIiS8_St4lessIiEEEEEbT_SO_RKT0_T1_@Base 2.1.0
 _ZN11__gnu_debug25__check_partitioned_upperINS_14_Safe_iteratorIN9__gnu_cxx17__normal_iteratorIPKN7blocxx66StringENSt9__cxx19986vectorIS5_SaIS5_EEEEENSt7__debug6vectorIS5_SA_EEEES5_St4lessIS5_EEEbT_SJ_RKT0_T1_@Base 2.1.0
 _ZN11__gnu_debug25__check_partitioned_upperINS_14_Safe_iteratorIN9__gnu_cxx17__normal_iteratorIPKSt4pairIiN7blocxx65ArrayINS5_6StringEEEENSt9__cxx19986vectorIS9_SaIS9_EEEEENSt7__debug6vectorIS9_SE_EEEEiNS5_26SortedVectorMapDataCompareIiS8_St4lessIiEEEEEbT_SP_RKT0_T1_@Base 2.1.0
 _ZN11__gnu_debug6__baseINS_14_Safe_iteratorIN9__gnu_cxx17__normal_iteratorIPKN7blocxx66StringENSt9__cxx19986vectorIS5_SaIS5_EEEEENSt7__debug6vectorIS5_SA_EEEEEENS_11_Siter_baseIT_E13iterator_typeESI_@Base 2.1.0
 _ZN11__gnu_debug6__baseIPKcEENS_11_Siter_baseIT_E13iterator_typeES4_@Base 2.1.0
 _ZN11__gnu_debug9_Equal_toIN9__gnu_cxx17__normal_iteratorIPKN7blocxx618IntrusiveReferenceINS3_6ThreadEEENSt9__cxx19986vectorIS6_SaIS6_EEEEEEC1ERKSD_@Base 2.1.0
 _ZN11__gnu_debug9_Equal_toIN9__gnu_cxx17__normal_iteratorIPKN7blocxx618IntrusiveReferenceINS3_6ThreadEEENSt9__cxx19986vectorIS6_SaIS6_EEEEEEC2ERKSD_@Base 2.1.0
 _ZN11__gnu_debug9_Equal_toIN9__gnu_cxx17__normal_iteratorIPKcNSt9__cxx19986vectorIcSaIcEEEEEEC1ERKS9_@Base 2.1.0
 _ZN11__gnu_debug9_Equal_toIN9__gnu_cxx17__normal_iteratorIPKcNSt9__cxx19986vectorIcSaIcEEEEEEC2ERKS9_@Base 2.1.0
 _ZN11__gnu_debug9_Equal_toINSt9__cxx199815_Deque_iteratorIN7blocxx618IntrusiveReferenceINS3_8RunnableEEERKS6_PS7_EEEC1ERKSA_@Base 2.1.0
 _ZN11__gnu_debug9_Equal_toINSt9__cxx199815_Deque_iteratorIN7blocxx618IntrusiveReferenceINS3_8RunnableEEERKS6_PS7_EEEC2ERKSA_@Base 2.1.0
 _ZN11__gnu_debug9_Equal_toISt23_Rb_tree_const_iteratorISt4pairIKN7blocxx66StringES4_EEEC1ERKS7_@Base 2.1.0
 _ZN11__gnu_debug9_Equal_toISt23_Rb_tree_const_iteratorISt4pairIKN7blocxx66StringES4_EEEC2ERKS7_@Base 2.1.0
 _ZN11__gnu_debug9_Equal_toISt23_Rb_tree_const_iteratorISt4pairIKmN7blocxx617GenericRWLockImplImNS4_8RWLocker14ThreadComparerEE10LockerInfoEEEEC1ERKSB_@Base 2.1.0
 _ZN11__gnu_debug9_Equal_toISt23_Rb_tree_const_iteratorISt4pairIKmN7blocxx617GenericRWLockImplImNS4_8RWLocker14ThreadComparerEE10LockerInfoEEEEC2ERKSB_@Base 2.1.0
 _ZN11__gnu_debugeqIN9__gnu_cxx17__normal_iteratorIPKN7blocxx66StringENSt9__cxx19986vectorIS4_SaIS4_EEEEENSt7__debug6vectorIS4_S9_EEEEbRKNS_14_Safe_iteratorIT_T0_EESK_@Base 2.1.0
 _ZN11__gnu_debugeqIN9__gnu_cxx17__normal_iteratorIPKSt4pairIN7blocxx66StringES5_ENSt9__cxx19986vectorIS6_SaIS6_EEEEENSt7__debug6vectorIS6_SB_EEEEbRKNS_14_Safe_iteratorIT_T0_EESM_@Base 2.1.0
 _ZN11__gnu_debugeqIN9__gnu_cxx17__normal_iteratorIPKSt4pairIiN7blocxx65ArrayINS4_6StringEEEENSt9__cxx19986vectorIS8_SaIS8_EEEEENSt7__debug6vectorIS8_SD_EEEEbRKNS_14_Safe_iteratorIT_T0_EESO_@Base 2.1.0
 _ZN11__gnu_debugeqIN9__gnu_cxx17__normal_iteratorIPN7blocxx66StringENSt9__cxx19986vectorIS4_SaIS4_EEEEENSt7__debug6vectorIS4_S8_EEEEbRKNS_14_Safe_iteratorIT_T0_EESJ_@Base 2.1.0
 _ZN11__gnu_debugeqIN9__gnu_cxx17__normal_iteratorIPSt4pairIiN7blocxx612SelectEngine4DataEENSt9__cxx19986vectorIS7_SaIS7_EEEEENSt7__debug6vectorIS7_SB_EEEEbRKNS_14_Safe_iteratorIT_T0_EESM_@Base 2.1.0
 _ZN11__gnu_debugeqIN9__gnu_cxx17__normal_iteratorIPSt4pairIiN7blocxx65ArrayINS4_6StringEEEENSt9__cxx19986vectorIS8_SaIS8_EEEEENSt7__debug6vectorIS8_SC_EEEEbRKNS_14_Safe_iteratorIT_T0_EESN_@Base 2.1.0
 _ZN11__gnu_debugeqISt17_Rb_tree_iteratorISt4pairIKN7blocxx66StringES4_EENSt7__debug3mapIS4_S4_St4lessIS4_ESaIS6_EEEEEbRKNS_14_Safe_iteratorIT_T0_EESJ_@Base 2.1.0
 _ZN11__gnu_debugeqISt17_Rb_tree_iteratorISt4pairIKmN7blocxx617GenericRWLockImplImNS4_8RWLocker14ThreadComparerEE10LockerInfoEEENSt7__debug3mapImS9_S7_SaISA_EEEEEbRKNS_14_Safe_iteratorIT_T0_EESL_@Base 2.1.0
 _ZN11__gnu_debugeqISt23_Rb_tree_const_iteratorISt4pairIKN7blocxx66StringENS3_13SSLTrustStore8UserInfoEEESt17_Rb_tree_iteratorIS8_ENSt7__debug3mapIS4_S7_St4lessIS4_ESaIS8_EEEEEbRKNS_14_Safe_iteratorIT_T1_EERKNSI_IT0_SK_EE@Base 2.1.0
 _ZN11__gnu_debugltIN9__gnu_cxx17__normal_iteratorIPN7blocxx66StringENSt9__cxx19986vectorIS4_SaIS4_EEEEENSt7__debug6vectorIS4_S8_EEEEbRKNS_14_Safe_iteratorIT_T0_EESJ_@Base 2.1.0
 _ZN11__gnu_debugmiIN9__gnu_cxx17__normal_iteratorIPKN7blocxx66StringENSt9__cxx19986vectorIS4_SaIS4_EEEEENSt7__debug6vectorIS4_S9_EEEENS_14_Safe_iteratorIT_T0_E15difference_typeERKSI_SL_@Base 2.1.0
 _ZN11__gnu_debugmiIN9__gnu_cxx17__normal_iteratorIPKSt4pairIN7blocxx66StringES5_ENSt9__cxx19986vectorIS6_SaIS6_EEEEENSt7__debug6vectorIS6_SB_EEEENS_14_Safe_iteratorIT_T0_E15difference_typeERKSK_SN_@Base 2.1.0
 _ZN11__gnu_debugmiIN9__gnu_cxx17__normal_iteratorIPKSt4pairIiN7blocxx65ArrayINS4_6StringEEEENSt9__cxx19986vectorIS8_SaIS8_EEEEENSt7__debug6vectorIS8_SD_EEEENS_14_Safe_iteratorIT_T0_E15difference_typeERKSM_SP_@Base 2.1.0
 _ZN11__gnu_debugmiIN9__gnu_cxx17__normal_iteratorIPN7blocxx66StringENSt9__cxx19986vectorIS4_SaIS4_EEEEENSt7__debug6vectorIS4_S8_EEEENS_14_Safe_iteratorIT_T0_E15difference_typeERKSH_SK_@Base 2.1.0
 _ZN11__gnu_debugmiIN9__gnu_cxx17__normal_iteratorIPSt4pairIiN7blocxx612SelectEngine4DataEENSt9__cxx19986vectorIS7_SaIS7_EEEEENSt7__debug6vectorIS7_SB_EEEENS_14_Safe_iteratorIT_T0_E15difference_typeERKSK_SN_@Base 2.1.0
 _ZN11__gnu_debugmiIN9__gnu_cxx17__normal_iteratorIPSt4pairIiN7blocxx65ArrayINS4_6StringEEEENSt9__cxx19986vectorIS8_SaIS8_EEEEENSt7__debug6vectorIS8_SC_EEEENS_14_Safe_iteratorIT_T0_E15difference_typeERKSL_SO_@Base 2.1.0
 _ZN11__gnu_debugneIN9__gnu_cxx17__normal_iteratorIPK10regmatch_tNSt9__cxx19986vectorIS3_SaIS3_EEEEENS2_IPS3_S9_EENSt7__debug6vectorIS3_S8_EEEEbRKNS_14_Safe_iteratorIT_T1_EERKNSG_IT0_SI_EE@Base 2.1.0
 _ZN11__gnu_debugneIN9__gnu_cxx17__normal_iteratorIPKN7blocxx618IntrusiveReferenceINS3_26LogMessagePatternFormatter9ConverterEEENSt9__cxx19986vectorIS7_SaIS7_EEEEENSt7__debug6vectorIS7_SC_EEEEbRKNS_14_Safe_iteratorIT_T0_EESN_@Base 2.1.0
 _ZN11__gnu_debugneIN9__gnu_cxx17__normal_iteratorIPKN7blocxx66StringENSt9__cxx19986vectorIS4_SaIS4_EEEEENS2_IPS4_SA_EENSt7__debug6vectorIS4_S9_EEEEbRKNS_14_Safe_iteratorIT_T1_EERKNSH_IT0_SJ_EE@Base 2.1.0
 _ZN11__gnu_debugneIN9__gnu_cxx17__normal_iteratorIPKN7blocxx66StringENSt9__cxx19986vectorIS4_SaIS4_EEEEENSt7__debug6vectorIS4_S9_EEEEbRKNS_14_Safe_iteratorIT_T0_EESK_@Base 2.1.0
 _ZN11__gnu_debugneIN9__gnu_cxx17__normal_iteratorIPKN7blocxx69PerlRegEx7match_tENSt9__cxx19986vectorIS5_SaIS5_EEEEENS2_IPS5_SB_EENSt7__debug6vectorIS5_SA_EEEEbRKNS_14_Safe_iteratorIT_T1_EERKNSI_IT0_SK_EE@Base 2.1.0
 _ZN11__gnu_debugneIN9__gnu_cxx17__normal_iteratorIPKSt4pairIN7blocxx66StringENS4_17EFileStatusReturnEENSt9__cxx19986vectorIS7_SaIS7_EEEEENSt7__debug6vectorIS7_SC_EEEEbRKNS_14_Safe_iteratorIT_T0_EESN_@Base 2.1.0
 _ZN11__gnu_debugneIN9__gnu_cxx17__normal_iteratorIPKSt4pairIN7blocxx66StringES5_ENSt9__cxx19986vectorIS6_SaIS6_EEEEENSt7__debug6vectorIS6_SB_EEEEbRKNS_14_Safe_iteratorIT_T0_EESM_@Base 2.1.0
 _ZN11__gnu_debugneIN9__gnu_cxx17__normal_iteratorIPKSt4pairIiN7blocxx612SelectEngine4DataEENSt9__cxx19986vectorIS7_SaIS7_EEEEENS2_IPS7_SD_EENSt7__debug6vectorIS7_SC_EEEEbRKNS_14_Safe_iteratorIT_T1_EERKNSK_IT0_SM_EE@Base 2.1.0
 _ZN11__gnu_debugneIN9__gnu_cxx17__normal_iteratorIPKSt4pairIiN7blocxx65ArrayINS4_6StringEEEENSt9__cxx19986vectorIS8_SaIS8_EEEEENSt7__debug6vectorIS8_SD_EEEEbRKNS_14_Safe_iteratorIT_T0_EESO_@Base 2.1.0
 _ZN11__gnu_debugneIN9__gnu_cxx17__normal_iteratorIPN7blocxx66StringENSt9__cxx19986vectorIS4_SaIS4_EEEEENSt7__debug6vectorIS4_S8_EEEEbRKNS_14_Safe_iteratorIT_T0_EESJ_@Base 2.1.0
 _ZN11__gnu_debugneIN9__gnu_cxx17__normal_iteratorIPSt4pairIiN7blocxx612SelectEngine4DataEENSt9__cxx19986vectorIS7_SaIS7_EEEEENSt7__debug6vectorIS7_SB_EEEEbRKNS_14_Safe_iteratorIT_T0_EESM_@Base 2.1.0
 _ZN11__gnu_debugneIN9__gnu_cxx17__normal_iteratorIPSt4pairIiN7blocxx65ArrayINS4_6StringEEEENSt9__cxx19986vectorIS8_SaIS8_EEEEENSt7__debug6vectorIS8_SC_EEEEbRKNS_14_Safe_iteratorIT_T0_EESN_@Base 2.1.0
 _ZN11__gnu_debugneISt17_Rb_tree_iteratorISt4pairIKN7blocxx66StringES4_EENSt7__debug3mapIS4_S4_St4lessIS4_ESaIS6_EEEEEbRKNS_14_Safe_iteratorIT_T0_EESJ_@Base 2.1.0
 _ZN11__gnu_debugneISt17_Rb_tree_iteratorISt4pairIKmN7blocxx617GenericRWLockImplImNS4_8RWLocker14ThreadComparerEE10LockerInfoEEENSt7__debug3mapImS9_S7_SaISA_EEEEEbRKNS_14_Safe_iteratorIT_T0_EESL_@Base 2.1.0
 _ZN11__gnu_debugneISt23_Rb_tree_const_iteratorISt4pairIKN7blocxx66StringENS3_13SSLTrustStore8UserInfoEEESt17_Rb_tree_iteratorIS8_ENSt7__debug3mapIS4_S7_St4lessIS4_ESaIS8_EEEEEbRKNS_14_Safe_iteratorIT_T1_EERKNSI_IT0_SK_EE@Base 2.1.0
 _ZN11__gnu_debugneISt23_Rb_tree_const_iteratorISt4pairIKN7blocxx66StringES4_EENSt7__debug3mapIS4_S4_St4lessIS4_ESaIS6_EEEEEbRKNS_14_Safe_iteratorIT_T0_EESJ_@Base 2.1.0
 _ZN20CRYPTO_dynlock_valueC1Ev@Base 2.1.0
 _ZN20CRYPTO_dynlock_valueC2Ev@Base 2.1.0
 _ZN20CRYPTO_dynlock_valueD1Ev@Base 2.1.0
 _ZN20CRYPTO_dynlock_valueD2Ev@Base 2.1.0
 _ZN7blocxx610AutoPtrVecI10regmatch_tEC1EPS1_@Base 2.1.0
 _ZN7blocxx610AutoPtrVecI10regmatch_tEC2EPS1_@Base 2.1.0
 _ZN7blocxx610AutoPtrVecI10regmatch_tED1Ev@Base 2.1.0
 _ZN7blocxx610AutoPtrVecI10regmatch_tED2Ev@Base 2.1.0
 _ZN7blocxx610AutoPtrVecI10regmatch_tEixEj@Base 2.1.0
 _ZN7blocxx610AutoPtrVecI11epoll_eventEC1EPS1_@Base 2.1.0
 _ZN7blocxx610AutoPtrVecI11epoll_eventEC2EPS1_@Base 2.1.0
 _ZN7blocxx610AutoPtrVecI11epoll_eventED1Ev@Base 2.1.0
 _ZN7blocxx610AutoPtrVecI11epoll_eventED2Ev@Base 2.1.0
 _ZN7blocxx610AutoPtrVecI11epoll_eventEixEj@Base 2.1.0
 _ZN7blocxx610AutoPtrVecI6pollfdEC1EPS1_@Base 2.1.0
 _ZN7blocxx610AutoPtrVecI6pollfdEC2EPS1_@Base 2.1.0
 _ZN7blocxx610AutoPtrVecI6pollfdED1Ev@Base 2.1.0
 _ZN7blocxx610AutoPtrVecI6pollfdED2Ev@Base 2.1.0
 _ZN7blocxx610AutoPtrVecI6pollfdEixEj@Base 2.1.0
 _ZN7blocxx610AutoPtrVecIcE5resetEPc@Base 2.1.0
 _ZN7blocxx610AutoPtrVecIcE7releaseEv@Base 2.1.0
 _ZN7blocxx610AutoPtrVecIcEC1EPc@Base 2.1.0
 _ZN7blocxx610AutoPtrVecIcEC2EPc@Base 2.1.0
 _ZN7blocxx610AutoPtrVecIcED1Ev@Base 2.1.0
 _ZN7blocxx610AutoPtrVecIcED2Ev@Base 2.1.0
 _ZN7blocxx610AutoPtrVecIcEaSEPc@Base 2.1.0
 _ZN7blocxx610AutoPtrVecIcEixEj@Base 2.1.0
 _ZN7blocxx610COWRefSwapIVPNS_8RefCountEEEvRT_S5_@Base 2.1.0
 _ZN7blocxx610COWRefSwapIVPNSt7__debug6vectorINS_6StringESaIS3_EEEEEvRT_S9_@Base 2.1.0
 _ZN7blocxx610CerrLoggerC1Ev@Base 2.1.0
 _ZN7blocxx610CerrLoggerC2Ev@Base 2.1.0
 _ZN7blocxx610CerrLoggerD0Ev@Base 2.1.0
 _ZN7blocxx610CerrLoggerD1Ev@Base 2.1.0
 _ZN7blocxx610CerrLoggerD2Ev@Base 2.1.0
 _ZN7blocxx610FileSystem10createFileERKNS_6StringE@Base 2.1.0
 _ZN7blocxx610FileSystem10removeFileERKNS_6StringE@Base 2.1.0
 _ZN7blocxx610FileSystem10renameFileERKNS_6StringES3_@Base 2.1.0
 _ZN7blocxx610FileSystem11NullFactory6createEv@Base 2.1.0
 _ZN7blocxx610FileSystem11getFileSizeERKNS_6StringERl@Base 2.1.0
 _ZN7blocxx610FileSystem11isDirectoryERKNS_6StringE@Base 2.1.0
 _ZN7blocxx610FileSystem12getFileLinesERKNS_6StringE@Base 2.1.0
 _ZN7blocxx610FileSystem12isExecutableERKNS_6StringE@Base 2.1.0
 _ZN7blocxx610FileSystem13makeDirectoryERKNS_6StringEi@Base 2.1.0
 _ZN7blocxx610FileSystem14COMPONENT_NAMEE@Base 2.1.0
 _ZN7blocxx610FileSystem14createTempFileERNS_6StringERKS1_@Base 2.1.0
 _ZN7blocxx610FileSystem15changeDirectoryERKNS_6StringE@Base 2.1.0
 _ZN7blocxx610FileSystem15changeFileOwnerERKNS_6StringERKj@Base 2.1.0
 _ZN7blocxx610FileSystem15getFileContentsERKNS_6StringE@Base 2.1.0
 _ZN7blocxx610FileSystem15removeDirectoryERKNS_6StringE@Base 2.1.0
 _ZN7blocxx610FileSystem16openOrCreateFileERKNS_6StringE@Base 2.1.0
 _ZN7blocxx610FileSystem16readSymbolicLinkERKNS_6StringE@Base 2.1.0
 _ZN7blocxx610FileSystem20getDirectoryContentsERKNS_6StringERNS_5ArrayIS1_EE@Base 2.1.0
 _ZN7blocxx610FileSystem22g_fileSystemMockObjectE@Base 2.1.0
 _ZN7blocxx610FileSystem24createAutoDeleteTempFileERKNS_6StringE@Base 2.1.0
 _ZN7blocxx610FileSystem25openForAppendOrCreateFileERKNS_6StringE@Base 2.1.0
 _ZN7blocxx610FileSystem4Path26getCurrentWorkingDirectoryEv@Base 2.1.0
 _ZN7blocxx610FileSystem4Path7dirnameERKNS_6StringE@Base 2.1.0
 _ZN7blocxx610FileSystem4Path8basenameERKNS_6StringE@Base 2.1.0
 _ZN7blocxx610FileSystem4Path8realPathERKNS_6StringE@Base 2.1.0
 _ZN7blocxx610FileSystem4Path8securityERKNS_6StringE@Base 2.1.0
 _ZN7blocxx610FileSystem4Path8securityERKNS_6StringES4_@Base 2.1.0
 _ZN7blocxx610FileSystem4Path8securityERKNS_6StringES4_j@Base 2.1.0
 _ZN7blocxx610FileSystem4Path8securityERKNS_6StringEj@Base 2.1.0
 _ZN7blocxx610FileSystem4readERKiPvml@Base 2.1.0
 _ZN7blocxx610FileSystem4seekERKili@Base 2.1.0
 _ZN7blocxx610FileSystem4tellERKi@Base 2.1.0
 _ZN7blocxx610FileSystem5closeERKi@Base 2.1.0
 _ZN7blocxx610FileSystem5flushERi@Base 2.1.0
 _ZN7blocxx610FileSystem5writeEiPKvml@Base 2.1.0
 _ZN7blocxx610FileSystem6existsERKNS_6StringE@Base 2.1.0
 _ZN7blocxx610FileSystem6isLinkERKNS_6StringE@Base 2.1.0
 _ZN7blocxx610FileSystem6rewindERKi@Base 2.1.0
 _ZN7blocxx610FileSystem7canReadERKNS_6StringE@Base 2.1.0
 _ZN7blocxx610FileSystem8canWriteERKNS_6StringE@Base 2.1.0
 _ZN7blocxx610FileSystem8fileSizeEi@Base 2.1.0
 _ZN7blocxx610FileSystem8openFileERKNS_6StringE@Base 2.1.0
 _ZN7blocxx610LazyGlobalINS_18IntrusiveReferenceINS_11UnnamedPipeEEEiNS_6Socket24ShutDownMechanismFactoryEE7InitPtrC1ERPS3_RKi@Base 2.1.0
 _ZN7blocxx610LazyGlobalINS_18IntrusiveReferenceINS_11UnnamedPipeEEEiNS_6Socket24ShutDownMechanismFactoryEE7InitPtrC2ERPS3_RKi@Base 2.1.0
 _ZN7blocxx610LazyGlobalINS_18IntrusiveReferenceINS_11UnnamedPipeEEEiNS_6Socket24ShutDownMechanismFactoryEE7InitPtrclEv@Base 2.1.0
 _ZN7blocxx610LazyGlobalINS_18IntrusiveReferenceINS_11UnnamedPipeEEEiNS_6Socket24ShutDownMechanismFactoryEED1Ev@Base 2.1.0
 _ZN7blocxx610LazyGlobalINS_18IntrusiveReferenceINS_11UnnamedPipeEEEiNS_6Socket24ShutDownMechanismFactoryEED2Ev@Base 2.1.0
 _ZN7blocxx610LazyGlobalINS_18IntrusiveReferenceINS_11UnnamedPipeEEEiNS_6Socket24ShutDownMechanismFactoryEEaSIS3_EERS3_RKT_@Base 2.1.0
 _ZN7blocxx610LazyGlobalINS_18IntrusiveReferenceINS_11UnnamedPipeEEEiNS_6Socket24ShutDownMechanismFactoryEEcvRS3_Ev@Base 2.1.0
 _ZN7blocxx610LazyGlobalINS_5ArrayINS_6StringEEEKPKcNS_29StringArrayConstructorFactoryEE7InitPtrC1ERPS3_RS6_@Base 2.1.0
 _ZN7blocxx610LazyGlobalINS_5ArrayINS_6StringEEEKPKcNS_29StringArrayConstructorFactoryEE7InitPtrC2ERPS3_RS6_@Base 2.1.0
 _ZN7blocxx610LazyGlobalINS_5ArrayINS_6StringEEEKPKcNS_29StringArrayConstructorFactoryEE7InitPtrclEv@Base 2.1.0
 _ZN7blocxx610LazyGlobalINS_5ArrayINS_6StringEEEKPKcNS_29StringArrayConstructorFactoryEED1Ev@Base 2.1.0
 _ZN7blocxx610LazyGlobalINS_5ArrayINS_6StringEEEKPKcNS_29StringArrayConstructorFactoryEED2Ev@Base 2.1.0
 _ZN7blocxx610LazyGlobalINS_5MutexEiNS_18GlobalMutexFactoryEE7InitPtrC1ERPS1_RKi@Base 2.1.0
 _ZN7blocxx610LazyGlobalINS_5MutexEiNS_18GlobalMutexFactoryEE7InitPtrC2ERPS1_RKi@Base 2.1.0
 _ZN7blocxx610LazyGlobalINS_5MutexEiNS_18GlobalMutexFactoryEE7InitPtrclEv@Base 2.1.0
 _ZN7blocxx610LazyGlobalINS_5MutexEiNS_18GlobalMutexFactoryEED1Ev@Base 2.1.0
 _ZN7blocxx610LazyGlobalINS_5MutexEiNS_18GlobalMutexFactoryEED2Ev@Base 2.1.0
 _ZN7blocxx610LazyGlobalINS_5MutexEiNS_18GlobalMutexFactoryEEcvRS1_Ev@Base 2.1.0
 _ZN7blocxx610LazyGlobalINS_6StringEKPKcNS_33DefaultVariableConstructorFactoryIS1_S4_EEE7InitPtrC1ERPS1_RS4_@Base 2.1.0
 _ZN7blocxx610LazyGlobalINS_6StringEKPKcNS_33DefaultVariableConstructorFactoryIS1_S4_EEE7InitPtrC2ERPS1_RS4_@Base 2.1.0
 _ZN7blocxx610LazyGlobalINS_6StringEKPKcNS_33DefaultVariableConstructorFactoryIS1_S4_EEE7InitPtrclEv@Base 2.1.0
 _ZN7blocxx610LazyGlobalINS_6StringEKPKcNS_33DefaultVariableConstructorFactoryIS1_S4_EEED1Ev@Base 2.1.0
 _ZN7blocxx610LazyGlobalINS_6StringEKPKcNS_33DefaultVariableConstructorFactoryIS1_S4_EEED2Ev@Base 2.1.0
 _ZN7blocxx610LazyGlobalINS_6StringEKPKcNS_33DefaultVariableConstructorFactoryIS1_S4_EEEcvRS1_Ev@Base 2.1.0
 _ZN7blocxx610LogMessageC1ERKNS_6StringES3_S3_PKciS5_@Base 2.1.0
 _ZN7blocxx610LogMessageC2ERKNS_6StringES3_S3_PKciS5_@Base 2.1.0
 _ZN7blocxx610LogMessageD1Ev@Base 2.1.0
 _ZN7blocxx610LogMessageD2Ev@Base 2.1.0
 _ZN7blocxx610NullLoggerC1Ev@Base 2.1.0
 _ZN7blocxx610NullLoggerC2Ev@Base 2.1.0
 _ZN7blocxx610NullLoggerD0Ev@Base 2.1.0
 _ZN7blocxx610NullLoggerD1Ev@Base 2.1.0
 _ZN7blocxx610NullLoggerD2Ev@Base 2.1.0
 _ZN7blocxx610PosixRegEx4grepERKNS_5ArrayINS_6StringEEEi@Base 2.1.0
 _ZN7blocxx610PosixRegEx5splitERKNS_6StringEbi@Base 2.1.0
 _ZN7blocxx610PosixRegEx7captureERKNS_6StringEmmi@Base 2.1.0
 _ZN7blocxx610PosixRegEx7compileERKNS_6StringEi@Base 2.1.0
 _ZN7blocxx610PosixRegEx7executeERNS_5ArrayI10regmatch_tEERKNS_6StringEmmi@Base 2.1.0
 _ZN7blocxx610PosixRegEx7replaceERKNS_6StringES3_bi@Base 2.1.0
 _ZN7blocxx610PosixRegEx9errorCodeEv@Base 2.1.0
 _ZN7blocxx610PosixRegExC1ERKNS_6StringEi@Base 2.1.0
 _ZN7blocxx610PosixRegExC1ERKS0_@Base 2.1.0
 _ZN7blocxx610PosixRegExC1Ev@Base 2.1.0
 _ZN7blocxx610PosixRegExC2ERKNS_6StringEi@Base 2.1.0
 _ZN7blocxx610PosixRegExC2ERKS0_@Base 2.1.0
 _ZN7blocxx610PosixRegExC2Ev@Base 2.1.0
 _ZN7blocxx610PosixRegExD1Ev@Base 2.1.0
 _ZN7blocxx610PosixRegExD2Ev@Base 2.1.0
 _ZN7blocxx610PosixRegExaSERKS0_@Base 2.1.0
 _ZN7blocxx610SSLCtxBaseC1ERKNS_7SSLOptsE@Base 2.1.0
 _ZN7blocxx610SSLCtxBaseC2ERKNS_7SSLOptsE@Base 2.1.0
 _ZN7blocxx610SSLCtxBaseD0Ev@Base 2.1.0
 _ZN7blocxx610SSLCtxBaseD1Ev@Base 2.1.0
 _ZN7blocxx610SSLCtxBaseD2Ev@Base 2.1.0
 _ZN7blocxx610SocketImpl7readAuxEPvi@Base 2.1.0
 _ZN7blocxx610SocketImpl8writeAuxEPKvi@Base 2.1.0
 _ZN7blocxx610SocketImplC1ERKNS_13SocketAddressE@Base 2.1.0
 _ZN7blocxx610SocketImplC1EiNS_13SocketAddress11AddressTypeE@Base 2.1.0
 _ZN7blocxx610SocketImplC1Ev@Base 2.1.0
 _ZN7blocxx610SocketImplC2ERKNS_13SocketAddressE@Base 2.1.0
 _ZN7blocxx610SocketImplC2EiNS_13SocketAddress11AddressTypeE@Base 2.1.0
 _ZN7blocxx610SocketImplC2Ev@Base 2.1.0
 _ZN7blocxx610SocketImplD0Ev@Base 2.1.0
 _ZN7blocxx610SocketImplD1Ev@Base 2.1.0
 _ZN7blocxx610SocketImplD2Ev@Base 2.1.0
 _ZN7blocxx610StackTrace13getStackTraceENS0_17EDoStackTraceFlagE@Base 2.1.0
 _ZN7blocxx610StackTrace15printStackTraceENS0_17EDoStackTraceFlagE@Base 2.1.0
 _ZN7blocxx610ThreadImpl10exitThreadERmi@Base 2.1.0
 _ZN7blocxx610ThreadImpl10joinThreadERmRi@Base 2.1.0
 _ZN7blocxx610ThreadImpl10testCancelEv@Base 2.1.0
 _ZN7blocxx610ThreadImpl11sameThreadsERVKmS2_@Base 2.1.0
 _ZN7blocxx610ThreadImpl12createThreadERmPFiPvES2_j@Base 2.1.0
 _ZN7blocxx610ThreadImpl13currentThreadEv@Base 2.1.0
 _ZN7blocxx610ThreadImpl13destroyThreadERm@Base 2.1.0
 _ZN7blocxx610ThreadImpl15saveThreadInTLSEPv@Base 2.1.0
 _ZN7blocxx610ThreadImpl17setThreadDetachedERm@Base 2.1.0
 _ZN7blocxx610ThreadImpl17thread_t_ToUInt64Em@Base 2.1.0
 _ZN7blocxx610ThreadImpl18sendSignalToThreadEmi@Base 2.1.0
 _ZN7blocxx610ThreadImpl5sleepERKNS_7TimeoutE@Base 2.1.0
 _ZN7blocxx610ThreadImpl5sleepEj@Base 2.1.0
 _ZN7blocxx610ThreadImpl5yieldEv@Base 2.1.0
 _ZN7blocxx610ThreadImpl6cancelEm@Base 2.1.0
 _ZN7blocxx610ThreadPool10tryAddWorkERKNS_18IntrusiveReferenceINS_8RunnableEEE@Base 2.1.0
 _ZN7blocxx610ThreadPool10tryAddWorkERKNS_18IntrusiveReferenceINS_8RunnableEEERKNS_7TimeoutE@Base 2.1.0
 _ZN7blocxx610ThreadPool17waitForEmptyQueueEv@Base 2.1.0
 _ZN7blocxx610ThreadPool7addWorkERKNS_18IntrusiveReferenceINS_8RunnableEEE@Base 2.1.0
 _ZN7blocxx610ThreadPool8shutdownENS0_18EShutdownQueueFlagERKNS_7TimeoutE@Base 2.1.0
 _ZN7blocxx610ThreadPool8shutdownENS0_18EShutdownQueueFlagERKNS_7TimeoutES4_@Base 2.1.0
 _ZN7blocxx610ThreadPool8shutdownENS0_18EShutdownQueueFlagEi@Base 2.1.0
 _ZN7blocxx610ThreadPoolC1ENS0_8PoolTypeEjjRKNS_6LoggerERKNS_6StringE@Base 2.1.0
 _ZN7blocxx610ThreadPoolC1ENS0_8PoolTypeEjjRKNS_6StringE@Base 2.1.0
 _ZN7blocxx610ThreadPoolC1ERKS0_@Base 2.1.0
 _ZN7blocxx610ThreadPoolC2ENS0_8PoolTypeEjjRKNS_6LoggerERKNS_6StringE@Base 2.1.0
 _ZN7blocxx610ThreadPoolC2ENS0_8PoolTypeEjjRKNS_6StringE@Base 2.1.0
 _ZN7blocxx610ThreadPoolC2ERKS0_@Base 2.1.0
 _ZN7blocxx610ThreadPoolD0Ev@Base 2.1.0
 _ZN7blocxx610ThreadPoolD1Ev@Base 2.1.0
 _ZN7blocxx610ThreadPoolD2Ev@Base 2.1.0
 _ZN7blocxx610ThreadPoolaSERKS0_@Base 2.1.0
 _ZN7blocxx611IFileStream4openENS_12AutoResourceINS_20AutoDescriptorPolicyEEE@Base 2.1.0
 _ZN7blocxx611IFileStream4openEP8_IO_FILE@Base 2.1.0
 _ZN7blocxx611IFileStream4openEPKcSt13_Ios_Openmodej@Base 2.1.0
 _ZN7blocxx611IFileStream5closeEv@Base 2.1.0
 _ZN7blocxx611IFileStreamC1Ev@Base 2.1.0
 _ZN7blocxx611IFileStreamC2Ev@Base 2.1.0
 _ZN7blocxx611IFileStreamD0Ev@Base 2.1.0
 _ZN7blocxx611IFileStreamD1Ev@Base 2.1.0
 _ZN7blocxx611IFileStreamD2Ev@Base 2.1.0
 _ZN7blocxx611IOExceptionC1EPKciS2_iPKNS_9ExceptionEi@Base 2.1.0
 _ZN7blocxx611IOExceptionC1ERKS0_@Base 2.1.0
 _ZN7blocxx611IOExceptionC2EPKciS2_iPKNS_9ExceptionEi@Base 2.1.0
 _ZN7blocxx611IOExceptionC2ERKS0_@Base 2.1.0
 _ZN7blocxx611IOExceptionD0Ev@Base 2.1.0
 _ZN7blocxx611IOExceptionD1Ev@Base 2.1.0
 _ZN7blocxx611IOExceptionD2Ev@Base 2.1.0
 _ZN7blocxx611LogAppender11TYPE_MPFILEE@Base 2.1.0
 _ZN7blocxx611LogAppender11TYPE_STDERRE@Base 2.1.0
 _ZN7blocxx611LogAppender11TYPE_SYSLOGE@Base 2.1.0
 _ZN7blocxx611LogAppender14ALL_CATEGORIESE@Base 2.1.0
 _ZN7blocxx611LogAppender14ALL_COMPONENTSE@Base 2.1.0
 _ZN7blocxx611LogAppender17createLogAppenderERKNS_6StringERKNS_5ArrayIS1_EES7_S3_S3_RKNS_15SortedVectorMapIS1_S1_NS_26SortedVectorMapDataCompareIS1_S1_St4lessIS1_EEEEE@Base 2.1.0
 _ZN7blocxx611LogAppender20getThreadLogAppenderEv@Base 2.1.0
 _ZN7blocxx611LogAppender20setThreadLogAppenderERKNS_18IntrusiveReferenceIS0_EE@Base 2.1.0
 _ZN7blocxx611LogAppender21getCurrentLogAppenderEv@Base 2.1.0
 _ZN7blocxx611LogAppender21getDefaultLogAppenderEv@Base 2.1.0
 _ZN7blocxx611LogAppender21setDefaultLogAppenderERKNS_18IntrusiveReferenceIS0_EE@Base 2.1.0
 _ZN7blocxx611LogAppender23STR_TTCC_MESSAGE_FORMATE@Base 2.1.0
 _ZN7blocxx611LogAppender9TYPE_FILEE@Base 2.1.0
 _ZN7blocxx611LogAppender9TYPE_NULLE@Base 2.1.0
 _ZN7blocxx611LogAppenderC1ERKNS_5ArrayINS_6StringEEES5_RKS2_@Base 2.1.0
 _ZN7blocxx611LogAppenderC2ERKNS_5ArrayINS_6StringEEES5_RKS2_@Base 2.1.0
 _ZN7blocxx611LogAppenderD0Ev@Base 2.1.0
 _ZN7blocxx611LogAppenderD1Ev@Base 2.1.0
 _ZN7blocxx611LogAppenderD2Ev@Base 2.1.0
 _ZN7blocxx611ProcessImplC1Ev@Base 2.1.0
 _ZN7blocxx611ProcessImplC2Ev@Base 2.1.0
 _ZN7blocxx611ProcessImplD0Ev@Base 2.1.0
 _ZN7blocxx611ProcessImplD1Ev@Base 2.1.0
 _ZN7blocxx611ProcessImplD2Ev@Base 2.1.0
 _ZN7blocxx611SafeCString11fget_stringEP8_IO_FILEm@Base 2.1.0
 _ZN7blocxx611SafeCString11fgets_checkEPcmP8_IO_FILE@Base 2.1.0
 _ZN7blocxx611SafeCString11fgets_truncEPcmP8_IO_FILE@Base 2.1.0
 _ZN7blocxx611SafeCString11fgets_truncILm8192EEEPcRAT__cP8_IO_FILE@Base 2.1.0
 _ZN7blocxx611SafeCString12strcat_checkEPcmPKc@Base 2.1.0
 _ZN7blocxx611SafeCString12strcat_checkEPcmPKcm@Base 2.1.0
 _ZN7blocxx611SafeCString12strcat_truncEPcmPKc@Base 2.1.0
 _ZN7blocxx611SafeCString12strcat_truncEPcmPKcm@Base 2.1.0
 _ZN7blocxx611SafeCString12strcpy_checkEPcmPKc@Base 2.1.0
 _ZN7blocxx611SafeCString12strcpy_checkEPcmPKcm@Base 2.1.0
 _ZN7blocxx611SafeCString12strcpy_truncEPcmPKc@Base 2.1.0
 _ZN7blocxx611SafeCString12strcpy_truncEPcmPKcm@Base 2.1.0
 _ZN7blocxx611SafeCString12strcpy_truncILm65EEEPcRAT__cPKc@Base 2.1.0
 _ZN7blocxx611SafeCString15str_dup_nothrowEPKc@Base 2.1.0
 _ZN7blocxx611SafeCString17OverflowExceptionC1EPKciS3_iPKNS_9ExceptionEi@Base 2.1.0
 _ZN7blocxx611SafeCString17OverflowExceptionC1ERKS1_@Base 2.1.0
 _ZN7blocxx611SafeCString17OverflowExceptionC2EPKciS3_iPKNS_9ExceptionEi@Base 2.1.0
 _ZN7blocxx611SafeCString17OverflowExceptionC2ERKS1_@Base 2.1.0
 _ZN7blocxx611SafeCString17OverflowExceptionD0Ev@Base 2.1.0
 _ZN7blocxx611SafeCString17OverflowExceptionD1Ev@Base 2.1.0
 _ZN7blocxx611SafeCString17OverflowExceptionD2Ev@Base 2.1.0
 _ZN7blocxx611SafeCString4Impl12nchars_checkEim@Base 2.1.0
 _ZN7blocxx611SafeCString7str_dupEPKc@Base 2.1.0
 _ZN7blocxx611ScopeLoggerC1ERKNS_6StringES3_RKNS_6LoggerE@Base 2.1.0
 _ZN7blocxx611ScopeLoggerC1ERKNS_6StringES3_RKNS_9ReferenceINS_13DelayedFormatEEERKNS_6LoggerE@Base 2.1.0
 _ZN7blocxx611ScopeLoggerC1ERKNS_6StringES3_RKNS_9ReferenceINS_13DelayedFormatEEES3_RKNS_18IntrusiveReferenceINS_11LogAppenderEEE@Base 2.1.0
 _ZN7blocxx611ScopeLoggerC1ERKNS_6StringES3_S3_RKNS_18IntrusiveReferenceINS_11LogAppenderEEE@Base 2.1.0
 _ZN7blocxx611ScopeLoggerC2ERKNS_6StringES3_RKNS_6LoggerE@Base 2.1.0
 _ZN7blocxx611ScopeLoggerC2ERKNS_6StringES3_RKNS_9ReferenceINS_13DelayedFormatEEERKNS_6LoggerE@Base 2.1.0
 _ZN7blocxx611ScopeLoggerC2ERKNS_6StringES3_RKNS_9ReferenceINS_13DelayedFormatEEES3_RKNS_18IntrusiveReferenceINS_11LogAppenderEEE@Base 2.1.0
 _ZN7blocxx611ScopeLoggerC2ERKNS_6StringES3_S3_RKNS_18IntrusiveReferenceINS_11LogAppenderEEE@Base 2.1.0
 _ZN7blocxx611ScopeLoggerD0Ev@Base 2.1.0
 _ZN7blocxx611ScopeLoggerD1Ev@Base 2.1.0
 _ZN7blocxx611ScopeLoggerD2Ev@Base 2.1.0
 _ZN7blocxx611SignalScopeC1EiPFviE@Base 2.1.0
 _ZN7blocxx611SignalScopeC2EiPFviE@Base 2.1.0
 _ZN7blocxx611SignalScopeD1Ev@Base 2.1.0
 _ZN7blocxx611SignalScopeD2Ev@Base 2.1.0
 _ZN7blocxx611SignalUtils10signalNameEi@Base 2.1.0
 _ZN7blocxx611SocketUtils16inetAddrToStringEm@Base 2.1.0
 _ZN7blocxx611SocketUtils25getFullyQualifiedHostNameEv@Base 2.1.0
 _ZN7blocxx611SocketUtils9waitForIOEiRKNS_7TimeoutENS_11SocketFlags18EWaitDirectionFlagE@Base 2.1.0
 _ZN7blocxx611SocketUtils9waitForIOEiiNS_11SocketFlags18EWaitDirectionFlagE@Base 2.1.0
 _ZN7blocxx611UnnamedPipe10readStringERNS_6StringE@Base 2.1.0
 _ZN7blocxx611UnnamedPipe11createStdinEv@Base 2.1.0
 _ZN7blocxx611UnnamedPipe11setTimeoutsERKNS_7TimeoutE@Base 2.1.0
 _ZN7blocxx611UnnamedPipe11writeStringERKNS_6StringE@Base 2.1.0
 _ZN7blocxx611UnnamedPipe12createStderrEv@Base 2.1.0
 _ZN7blocxx611UnnamedPipe12createStdoutEv@Base 2.1.0
 _ZN7blocxx611UnnamedPipe14getReadTimeoutEv@Base 2.1.0
 _ZN7blocxx611UnnamedPipe14setReadTimeoutERKNS_7TimeoutE@Base 2.1.0
 _ZN7blocxx611UnnamedPipe15getWriteTimeoutEv@Base 2.1.0
 _ZN7blocxx611UnnamedPipe17createStdinStdoutEv@Base 2.1.0
 _ZN7blocxx611UnnamedPipe17createUnnamedPipeENS0_5EOpenE@Base 2.1.0
 _ZN7blocxx611UnnamedPipe20createConnectedPipesERNS_18IntrusiveReferenceIS0_EES3_@Base 2.1.0
 _ZN7blocxx611UnnamedPipe31createUnnamedPipeFromDescriptorENS_12AutoResourceINS_20AutoDescriptorPolicyEEE@Base 2.1.0
 _ZN7blocxx611UnnamedPipe31createUnnamedPipeFromDescriptorENS_12AutoResourceINS_20AutoDescriptorPolicyEEES3_@Base 2.1.0
 _ZN7blocxx611UnnamedPipe7readAllEv@Base 2.1.0
 _ZN7blocxx611UnnamedPipe7readIntEPi@Base 2.1.0
 _ZN7blocxx611UnnamedPipe8writeIntEi@Base 2.1.0
 _ZN7blocxx611UnnamedPipeC1Ev@Base 2.1.0
 _ZN7blocxx611UnnamedPipeC2Ev@Base 2.1.0
 _ZN7blocxx611UnnamedPipeD0Ev@Base 2.1.0
 _ZN7blocxx611UnnamedPipeD1Ev@Base 2.1.0
 _ZN7blocxx611UnnamedPipeD2Ev@Base 2.1.0
 _ZN7blocxx612AutoResourceINS_20AutoDescriptorPolicyEE7releaseEv@Base 2.1.0
 _ZN7blocxx612AutoResourceINS_20AutoDescriptorPolicyEEC1ENS_15AutoResourceRefIS1_EE@Base 2.1.0
 _ZN7blocxx612AutoResourceINS_20AutoDescriptorPolicyEEC1ERS2_@Base 2.1.0
 _ZN7blocxx612AutoResourceINS_20AutoDescriptorPolicyEEC1Ei@Base 2.1.0
 _ZN7blocxx612AutoResourceINS_20AutoDescriptorPolicyEEC1Ev@Base 2.1.0
 _ZN7blocxx612AutoResourceINS_20AutoDescriptorPolicyEEC2ENS_15AutoResourceRefIS1_EE@Base 2.1.0
 _ZN7blocxx612AutoResourceINS_20AutoDescriptorPolicyEEC2ERS2_@Base 2.1.0
 _ZN7blocxx612AutoResourceINS_20AutoDescriptorPolicyEEC2Ei@Base 2.1.0
 _ZN7blocxx612AutoResourceINS_20AutoDescriptorPolicyEEC2Ev@Base 2.1.0
 _ZN7blocxx612AutoResourceINS_20AutoDescriptorPolicyEED1Ev@Base 2.1.0
 _ZN7blocxx612AutoResourceINS_20AutoDescriptorPolicyEED2Ev@Base 2.1.0
 _ZN7blocxx612AutoResourceINS_20AutoDescriptorPolicyEEaSENS_15AutoResourceRefIS1_EE@Base 2.1.0
 _ZN7blocxx612AutoResourceINS_20AutoDescriptorPolicyEEcvNS_15AutoResourceRefIS1_EEEv@Base 2.1.0
 _ZN7blocxx612COWReferenceINSt7__debug3mapINS_6StringENS_13SSLTrustStore8UserInfoESt4lessIS3_ESaISt4pairIKS3_S5_EEEEE12getWriteLockEv@Base 2.1.0
 _ZN7blocxx612COWReferenceINSt7__debug3mapINS_6StringENS_13SSLTrustStore8UserInfoESt4lessIS3_ESaISt4pairIKS3_S5_EEEEE6decRefEv@Base 2.1.0
 _ZN7blocxx612COWReferenceINSt7__debug3mapINS_6StringENS_13SSLTrustStore8UserInfoESt4lessIS3_ESaISt4pairIKS3_S5_EEEEEC1EPSC_@Base 2.1.0
 _ZN7blocxx612COWReferenceINSt7__debug3mapINS_6StringENS_13SSLTrustStore8UserInfoESt4lessIS3_ESaISt4pairIKS3_S5_EEEEEC2EPSC_@Base 2.1.0
 _ZN7blocxx612COWReferenceINSt7__debug3mapINS_6StringENS_13SSLTrustStore8UserInfoESt4lessIS3_ESaISt4pairIKS3_S5_EEEEED1Ev@Base 2.1.0
 _ZN7blocxx612COWReferenceINSt7__debug3mapINS_6StringENS_13SSLTrustStore8UserInfoESt4lessIS3_ESaISt4pairIKS3_S5_EEEEED2Ev@Base 2.1.0
 _ZN7blocxx612COWReferenceINSt7__debug3mapINS_6StringENS_13SSLTrustStore8UserInfoESt4lessIS3_ESaISt4pairIKS3_S5_EEEEEptEv@Base 2.1.0
 _ZN7blocxx612COWReferenceINSt7__debug3mapINS_6StringES3_St4lessIS3_ESaISt4pairIKS3_S3_EEEEE12getWriteLockEv@Base 2.1.0
 _ZN7blocxx612COWReferenceINSt7__debug3mapINS_6StringES3_St4lessIS3_ESaISt4pairIKS3_S3_EEEEE6decRefEv@Base 2.1.0
 _ZN7blocxx612COWReferenceINSt7__debug3mapINS_6StringES3_St4lessIS3_ESaISt4pairIKS3_S3_EEEEEC1EPSA_@Base 2.1.0
 _ZN7blocxx612COWReferenceINSt7__debug3mapINS_6StringES3_St4lessIS3_ESaISt4pairIKS3_S3_EEEEEC2EPSA_@Base 2.1.0
 _ZN7blocxx612COWReferenceINSt7__debug3mapINS_6StringES3_St4lessIS3_ESaISt4pairIKS3_S3_EEEEED1Ev@Base 2.1.0
 _ZN7blocxx612COWReferenceINSt7__debug3mapINS_6StringES3_St4lessIS3_ESaISt4pairIKS3_S3_EEEEED2Ev@Base 2.1.0
 _ZN7blocxx612COWReferenceINSt7__debug3mapINS_6StringES3_St4lessIS3_ESaISt4pairIKS3_S3_EEEEEptEv@Base 2.1.0
 _ZN7blocxx612COWReferenceINSt7__debug6vectorI10regmatch_tSaIS3_EEEE12getWriteLockEv@Base 2.1.0
 _ZN7blocxx612COWReferenceINSt7__debug6vectorI10regmatch_tSaIS3_EEEE6decRefEv@Base 2.1.0
 _ZN7blocxx612COWReferenceINSt7__debug6vectorI10regmatch_tSaIS3_EEEEC1EPS5_@Base 2.1.0
 _ZN7blocxx612COWReferenceINSt7__debug6vectorI10regmatch_tSaIS3_EEEEC2EPS5_@Base 2.1.0
 _ZN7blocxx612COWReferenceINSt7__debug6vectorI10regmatch_tSaIS3_EEEED1Ev@Base 2.1.0
 _ZN7blocxx612COWReferenceINSt7__debug6vectorI10regmatch_tSaIS3_EEEED2Ev@Base 2.1.0
 _ZN7blocxx612COWReferenceINSt7__debug6vectorI10regmatch_tSaIS3_EEEEptEv@Base 2.1.0
 _ZN7blocxx612COWReferenceINSt7__debug6vectorINS_18IntrusiveReferenceINS_11LogAppenderEEESaIS5_EEEE12getWriteLockEv@Base 2.1.0
 _ZN7blocxx612COWReferenceINSt7__debug6vectorINS_18IntrusiveReferenceINS_11LogAppenderEEESaIS5_EEEE6decRefEv@Base 2.1.0
 _ZN7blocxx612COWReferenceINSt7__debug6vectorINS_18IntrusiveReferenceINS_11LogAppenderEEESaIS5_EEEEC1EPS7_@Base 2.1.0
 _ZN7blocxx612COWReferenceINSt7__debug6vectorINS_18IntrusiveReferenceINS_11LogAppenderEEESaIS5_EEEEC1ERKS8_@Base 2.1.0
 _ZN7blocxx612COWReferenceINSt7__debug6vectorINS_18IntrusiveReferenceINS_11LogAppenderEEESaIS5_EEEEC2EPS7_@Base 2.1.0
 _ZN7blocxx612COWReferenceINSt7__debug6vectorINS_18IntrusiveReferenceINS_11LogAppenderEEESaIS5_EEEEC2ERKS8_@Base 2.1.0
 _ZN7blocxx612COWReferenceINSt7__debug6vectorINS_18IntrusiveReferenceINS_11LogAppenderEEESaIS5_EEEED1Ev@Base 2.1.0
 _ZN7blocxx612COWReferenceINSt7__debug6vectorINS_18IntrusiveReferenceINS_11LogAppenderEEESaIS5_EEEED2Ev@Base 2.1.0
 _ZN7blocxx612COWReferenceINSt7__debug6vectorINS_18IntrusiveReferenceINS_11LogAppenderEEESaIS5_EEEEptEv@Base 2.1.0
 _ZN7blocxx612COWReferenceINSt7__debug6vectorINS_18IntrusiveReferenceINS_26LogMessagePatternFormatter9ConverterEEESaIS6_EEEE12getWriteLockEv@Base 2.1.0
 _ZN7blocxx612COWReferenceINSt7__debug6vectorINS_18IntrusiveReferenceINS_26LogMessagePatternFormatter9ConverterEEESaIS6_EEEE6decRefEv@Base 2.1.0
 _ZN7blocxx612COWReferenceINSt7__debug6vectorINS_18IntrusiveReferenceINS_26LogMessagePatternFormatter9ConverterEEESaIS6_EEEEC1EPS8_@Base 2.1.0
 _ZN7blocxx612COWReferenceINSt7__debug6vectorINS_18IntrusiveReferenceINS_26LogMessagePatternFormatter9ConverterEEESaIS6_EEEEC2EPS8_@Base 2.1.0
 _ZN7blocxx612COWReferenceINSt7__debug6vectorINS_18IntrusiveReferenceINS_26LogMessagePatternFormatter9ConverterEEESaIS6_EEEED1Ev@Base 2.1.0
 _ZN7blocxx612COWReferenceINSt7__debug6vectorINS_18IntrusiveReferenceINS_26LogMessagePatternFormatter9ConverterEEESaIS6_EEEED2Ev@Base 2.1.0
 _ZN7blocxx612COWReferenceINSt7__debug6vectorINS_18IntrusiveReferenceINS_26LogMessagePatternFormatter9ConverterEEESaIS6_EEEEptEv@Base 2.1.0
 _ZN7blocxx612COWReferenceINSt7__debug6vectorINS_18IntrusiveReferenceINS_6ThreadEEESaIS5_EEEE12getWriteLockEv@Base 2.1.0
 _ZN7blocxx612COWReferenceINSt7__debug6vectorINS_18IntrusiveReferenceINS_6ThreadEEESaIS5_EEEE6decRefEv@Base 2.1.0
 _ZN7blocxx612COWReferenceINSt7__debug6vectorINS_18IntrusiveReferenceINS_6ThreadEEESaIS5_EEEEC1EPS7_@Base 2.1.0
 _ZN7blocxx612COWReferenceINSt7__debug6vectorINS_18IntrusiveReferenceINS_6ThreadEEESaIS5_EEEEC2EPS7_@Base 2.1.0
 _ZN7blocxx612COWReferenceINSt7__debug6vectorINS_18IntrusiveReferenceINS_6ThreadEEESaIS5_EEEED1Ev@Base 2.1.0
 _ZN7blocxx612COWReferenceINSt7__debug6vectorINS_18IntrusiveReferenceINS_6ThreadEEESaIS5_EEEED2Ev@Base 2.1.0
 _ZN7blocxx612COWReferenceINSt7__debug6vectorINS_18IntrusiveReferenceINS_6ThreadEEESaIS5_EEEEptEv@Base 2.1.0
 _ZN7blocxx612COWReferenceINSt7__debug6vectorINS_18IntrusiveReferenceINS_7ProcessEEESaIS5_EEEE12getWriteLockEv@Base 2.1.0
 _ZN7blocxx612COWReferenceINSt7__debug6vectorINS_18IntrusiveReferenceINS_7ProcessEEESaIS5_EEEE6decRefEv@Base 2.1.0
 _ZN7blocxx612COWReferenceINSt7__debug6vectorINS_18IntrusiveReferenceINS_7ProcessEEESaIS5_EEEEC1EPS7_@Base 2.1.0
 _ZN7blocxx612COWReferenceINSt7__debug6vectorINS_18IntrusiveReferenceINS_7ProcessEEESaIS5_EEEEC2EPS7_@Base 2.1.0
 _ZN7blocxx612COWReferenceINSt7__debug6vectorINS_18IntrusiveReferenceINS_7ProcessEEESaIS5_EEEED1Ev@Base 2.1.0
 _ZN7blocxx612COWReferenceINSt7__debug6vectorINS_18IntrusiveReferenceINS_7ProcessEEESaIS5_EEEED2Ev@Base 2.1.0
 _ZN7blocxx612COWReferenceINSt7__debug6vectorINS_18IntrusiveReferenceINS_7ProcessEEESaIS5_EEEEptEv@Base 2.1.0
 _ZN7blocxx612COWReferenceINSt7__debug6vectorINS_5ArrayIcEESaIS4_EEEE12getWriteLockEv@Base 2.1.0
 _ZN7blocxx612COWReferenceINSt7__debug6vectorINS_5ArrayIcEESaIS4_EEEE6decRefEv@Base 2.1.0
 _ZN7blocxx612COWReferenceINSt7__debug6vectorINS_5ArrayIcEESaIS4_EEEEC1EPS6_@Base 2.1.0
 _ZN7blocxx612COWReferenceINSt7__debug6vectorINS_5ArrayIcEESaIS4_EEEEC2EPS6_@Base 2.1.0
 _ZN7blocxx612COWReferenceINSt7__debug6vectorINS_5ArrayIcEESaIS4_EEEED1Ev@Base 2.1.0
 _ZN7blocxx612COWReferenceINSt7__debug6vectorINS_5ArrayIcEESaIS4_EEEED2Ev@Base 2.1.0
 _ZN7blocxx612COWReferenceINSt7__debug6vectorINS_5ArrayIcEESaIS4_EEEEptEv@Base 2.1.0
 _ZN7blocxx612COWReferenceINSt7__debug6vectorINS_6Select12SelectObjectESaIS4_EEEE12getWriteLockEv@Base 2.1.0
 _ZN7blocxx612COWReferenceINSt7__debug6vectorINS_6Select12SelectObjectESaIS4_EEEE6decRefEv@Base 2.1.0
 _ZN7blocxx612COWReferenceINSt7__debug6vectorINS_6Select12SelectObjectESaIS4_EEEEC1EPS6_@Base 2.1.0
 _ZN7blocxx612COWReferenceINSt7__debug6vectorINS_6Select12SelectObjectESaIS4_EEEEC2EPS6_@Base 2.1.0
 _ZN7blocxx612COWReferenceINSt7__debug6vectorINS_6Select12SelectObjectESaIS4_EEEED1Ev@Base 2.1.0
 _ZN7blocxx612COWReferenceINSt7__debug6vectorINS_6Select12SelectObjectESaIS4_EEEED2Ev@Base 2.1.0
 _ZN7blocxx612COWReferenceINSt7__debug6vectorINS_6Select12SelectObjectESaIS4_EEEEptEv@Base 2.1.0
 _ZN7blocxx612COWReferenceINSt7__debug6vectorINS_6StringESaIS3_EEEE12getWriteLockEv@Base 2.1.0
 _ZN7blocxx612COWReferenceINSt7__debug6vectorINS_6StringESaIS3_EEEE4swapERS6_@Base 2.1.0
 _ZN7blocxx612COWReferenceINSt7__debug6vectorINS_6StringESaIS3_EEEE6decRefEv@Base 2.1.0
 _ZN7blocxx612COWReferenceINSt7__debug6vectorINS_6StringESaIS3_EEEEC1EPS5_@Base 2.1.0
 _ZN7blocxx612COWReferenceINSt7__debug6vectorINS_6StringESaIS3_EEEEC1ERKS6_@Base 2.1.0
 _ZN7blocxx612COWReferenceINSt7__debug6vectorINS_6StringESaIS3_EEEEC2EPS5_@Base 2.1.0
 _ZN7blocxx612COWReferenceINSt7__debug6vectorINS_6StringESaIS3_EEEEC2ERKS6_@Base 2.1.0
 _ZN7blocxx612COWReferenceINSt7__debug6vectorINS_6StringESaIS3_EEEED1Ev@Base 2.1.0
 _ZN7blocxx612COWReferenceINSt7__debug6vectorINS_6StringESaIS3_EEEED2Ev@Base 2.1.0
 _ZN7blocxx612COWReferenceINSt7__debug6vectorINS_6StringESaIS3_EEEEaSERKS6_@Base 2.1.0
 _ZN7blocxx612COWReferenceINSt7__debug6vectorINS_6StringESaIS3_EEEEptEv@Base 2.1.0
 _ZN7blocxx612COWReferenceINSt7__debug6vectorINS_9PerlRegEx7match_tESaIS4_EEEE12getWriteLockEv@Base 2.1.0
 _ZN7blocxx612COWReferenceINSt7__debug6vectorINS_9PerlRegEx7match_tESaIS4_EEEE6decRefEv@Base 2.1.0
 _ZN7blocxx612COWReferenceINSt7__debug6vectorINS_9PerlRegEx7match_tESaIS4_EEEEC1EPS6_@Base 2.1.0
 _ZN7blocxx612COWReferenceINSt7__debug6vectorINS_9PerlRegEx7match_tESaIS4_EEEEC2EPS6_@Base 2.1.0
 _ZN7blocxx612COWReferenceINSt7__debug6vectorINS_9PerlRegEx7match_tESaIS4_EEEED1Ev@Base 2.1.0
 _ZN7blocxx612COWReferenceINSt7__debug6vectorINS_9PerlRegEx7match_tESaIS4_EEEED2Ev@Base 2.1.0
 _ZN7blocxx612COWReferenceINSt7__debug6vectorINS_9PerlRegEx7match_tESaIS4_EEEEptEv@Base 2.1.0
 _ZN7blocxx612COWReferenceINSt7__debug6vectorINS_9ReferenceINS_22DelayedFormatInternals26DelayedFormatReferenceBaseEEESaIS6_EEEE6decRefEv@Base 2.1.0
 _ZN7blocxx612COWReferenceINSt7__debug6vectorINS_9ReferenceINS_22DelayedFormatInternals26DelayedFormatReferenceBaseEEESaIS6_EEEEC1EPS8_@Base 2.1.0
 _ZN7blocxx612COWReferenceINSt7__debug6vectorINS_9ReferenceINS_22DelayedFormatInternals26DelayedFormatReferenceBaseEEESaIS6_EEEEC2EPS8_@Base 2.1.0
 _ZN7blocxx612COWReferenceINSt7__debug6vectorINS_9ReferenceINS_22DelayedFormatInternals26DelayedFormatReferenceBaseEEESaIS6_EEEED1Ev@Base 2.1.0
 _ZN7blocxx612COWReferenceINSt7__debug6vectorINS_9ReferenceINS_22DelayedFormatInternals26DelayedFormatReferenceBaseEEESaIS6_EEEED2Ev@Base 2.1.0
 _ZN7blocxx612COWReferenceINSt7__debug6vectorIPKcSaIS4_EEEE12getWriteLockEv@Base 2.1.0
 _ZN7blocxx612COWReferenceINSt7__debug6vectorIPKcSaIS4_EEEE6decRefEv@Base 2.1.0
 _ZN7blocxx612COWReferenceINSt7__debug6vectorIPKcSaIS4_EEEEC1EPS6_@Base 2.1.0
 _ZN7blocxx612COWReferenceINSt7__debug6vectorIPKcSaIS4_EEEEC2EPS6_@Base 2.1.0
 _ZN7blocxx612COWReferenceINSt7__debug6vectorIPKcSaIS4_EEEED1Ev@Base 2.1.0
 _ZN7blocxx612COWReferenceINSt7__debug6vectorIPKcSaIS4_EEEED2Ev@Base 2.1.0
 _ZN7blocxx612COWReferenceINSt7__debug6vectorIPKcSaIS4_EEEEptEv@Base 2.1.0
 _ZN7blocxx612COWReferenceINSt7__debug6vectorISt4pairINS_6StringENS_17EFileStatusReturnEESaIS6_EEEE12getWriteLockEv@Base 2.1.0
 _ZN7blocxx612COWReferenceINSt7__debug6vectorISt4pairINS_6StringENS_17EFileStatusReturnEESaIS6_EEEE6decRefEv@Base 2.1.0
 _ZN7blocxx612COWReferenceINSt7__debug6vectorISt4pairINS_6StringENS_17EFileStatusReturnEESaIS6_EEEEC1EPS8_@Base 2.1.0
 _ZN7blocxx612COWReferenceINSt7__debug6vectorISt4pairINS_6StringENS_17EFileStatusReturnEESaIS6_EEEEC2EPS8_@Base 2.1.0
 _ZN7blocxx612COWReferenceINSt7__debug6vectorISt4pairINS_6StringENS_17EFileStatusReturnEESaIS6_EEEED1Ev@Base 2.1.0
 _ZN7blocxx612COWReferenceINSt7__debug6vectorISt4pairINS_6StringENS_17EFileStatusReturnEESaIS6_EEEED2Ev@Base 2.1.0
 _ZN7blocxx612COWReferenceINSt7__debug6vectorISt4pairINS_6StringENS_17EFileStatusReturnEESaIS6_EEEEptEv@Base 2.1.0
 _ZN7blocxx612COWReferenceINSt7__debug6vectorISt4pairIiNS_12SelectEngine4DataEESaIS6_EEEE12getWriteLockEv@Base 2.1.0
 _ZN7blocxx612COWReferenceINSt7__debug6vectorISt4pairIiNS_12SelectEngine4DataEESaIS6_EEEEptEv@Base 2.1.0
 _ZN7blocxx612COWReferenceINSt7__debug6vectorISt4pairIiNS_5ArrayINS_6StringEEEESaIS7_EEEE12getWriteLockEv@Base 2.1.0
 _ZN7blocxx612COWReferenceINSt7__debug6vectorISt4pairIiNS_5ArrayINS_6StringEEEESaIS7_EEEE6decRefEv@Base 2.1.0
 _ZN7blocxx612COWReferenceINSt7__debug6vectorISt4pairIiNS_5ArrayINS_6StringEEEESaIS7_EEEEC1EPS9_@Base 2.1.0
 _ZN7blocxx612COWReferenceINSt7__debug6vectorISt4pairIiNS_5ArrayINS_6StringEEEESaIS7_EEEEC2EPS9_@Base 2.1.0
 _ZN7blocxx612COWReferenceINSt7__debug6vectorISt4pairIiNS_5ArrayINS_6StringEEEESaIS7_EEEED1Ev@Base 2.1.0
 _ZN7blocxx612COWReferenceINSt7__debug6vectorISt4pairIiNS_5ArrayINS_6StringEEEESaIS7_EEEED2Ev@Base 2.1.0
 _ZN7blocxx612COWReferenceINSt7__debug6vectorISt4pairIiNS_5ArrayINS_6StringEEEESaIS7_EEEEptEv@Base 2.1.0
 _ZN7blocxx612COWReferenceINSt7__debug6vectorIcSaIcEEEE12getWriteLockEv@Base 2.1.0
 _ZN7blocxx612COWReferenceINSt7__debug6vectorIcSaIcEEEE6decRefEv@Base 2.1.0
 _ZN7blocxx612COWReferenceINSt7__debug6vectorIcSaIcEEEEC1EPS4_@Base 2.1.0
 _ZN7blocxx612COWReferenceINSt7__debug6vectorIcSaIcEEEEC1ERKS5_@Base 2.1.0
 _ZN7blocxx612COWReferenceINSt7__debug6vectorIcSaIcEEEEC2EPS4_@Base 2.1.0
 _ZN7blocxx612COWReferenceINSt7__debug6vectorIcSaIcEEEEC2ERKS5_@Base 2.1.0
 _ZN7blocxx612COWReferenceINSt7__debug6vectorIcSaIcEEEED1Ev@Base 2.1.0
 _ZN7blocxx612COWReferenceINSt7__debug6vectorIcSaIcEEEED2Ev@Base 2.1.0
 _ZN7blocxx612COWReferenceINSt7__debug6vectorIcSaIcEEEEptEv@Base 2.1.0
 _ZN7blocxx612COWReferenceINSt7__debug6vectorIiSaIiEEEE12getWriteLockEv@Base 2.1.0
 _ZN7blocxx612COWReferenceINSt7__debug6vectorIiSaIiEEEEptEv@Base 2.1.0
 _ZN7blocxx612COWReferenceINSt7__debug6vectorItSaItEEEE12getWriteLockEv@Base 2.1.0
 _ZN7blocxx612COWReferenceINSt7__debug6vectorItSaItEEEE6decRefEv@Base 2.1.0
 _ZN7blocxx612COWReferenceINSt7__debug6vectorItSaItEEEEC1EPS4_@Base 2.1.0
 _ZN7blocxx612COWReferenceINSt7__debug6vectorItSaItEEEEC2EPS4_@Base 2.1.0
 _ZN7blocxx612COWReferenceINSt7__debug6vectorItSaItEEEED1Ev@Base 2.1.0
 _ZN7blocxx612COWReferenceINSt7__debug6vectorItSaItEEEED2Ev@Base 2.1.0
 _ZN7blocxx612COWReferenceINSt7__debug6vectorItSaItEEEEptEv@Base 2.1.0
 _ZN7blocxx612CerrAppender27STR_DEFAULT_MESSAGE_PATTERNE@Base 2.1.0
 _ZN7blocxx612CerrAppenderC1ERKNS_5ArrayINS_6StringEEES5_RKS2_@Base 2.1.0
 _ZN7blocxx612CerrAppenderC1Ev@Base 2.1.0
 _ZN7blocxx612CerrAppenderC2ERKNS_5ArrayINS_6StringEEES5_RKS2_@Base 2.1.0
 _ZN7blocxx612CerrAppenderC2Ev@Base 2.1.0
 _ZN7blocxx612CerrAppenderD0Ev@Base 2.1.0
 _ZN7blocxx612CerrAppenderD1Ev@Base 2.1.0
 _ZN7blocxx612CerrAppenderD2Ev@Base 2.1.0
 _ZN7blocxx612FileAppender27STR_DEFAULT_MESSAGE_PATTERNE@Base 2.1.0
 _ZN7blocxx612FileAppenderC1ERKNS_5ArrayINS_6StringEEES5_PKcRKS2_mjb@Base 2.1.0
 _ZN7blocxx612FileAppenderC2ERKNS_5ArrayINS_6StringEEES5_PKcRKS2_mjb@Base 2.1.0
 _ZN7blocxx612FileAppenderD0Ev@Base 2.1.0
 _ZN7blocxx612FileAppenderD1Ev@Base 2.1.0
 _ZN7blocxx612FileAppenderD2Ev@Base 2.1.0
 _ZN7blocxx612IPCMutexLockC1ERNS_8IPCMutexE@Base 2.1.0
 _ZN7blocxx612IPCMutexLockC2ERNS_8IPCMutexE@Base 2.1.0
 _ZN7blocxx612IPCMutexLockD1Ev@Base 2.1.0
 _ZN7blocxx612IPCMutexLockD2Ev@Base 2.1.0
 _ZN7blocxx612MD5ExceptionC1EPKciS2_iPKNS_9ExceptionEi@Base 2.1.0
 _ZN7blocxx612MD5ExceptionC1ERKS0_@Base 2.1.0
 _ZN7blocxx612MD5ExceptionC2EPKciS2_iPKNS_9ExceptionEi@Base 2.1.0
 _ZN7blocxx612MD5ExceptionC2ERKS0_@Base 2.1.0
 _ZN7blocxx612MD5ExceptionD0Ev@Base 2.1.0
 _ZN7blocxx612MD5ExceptionD1Ev@Base 2.1.0
 _ZN7blocxx612MD5ExceptionD2Ev@Base 2.1.0
 _ZN7blocxx612NullAppender27STR_DEFAULT_MESSAGE_PATTERNE@Base 2.1.0
 _ZN7blocxx612NullAppenderC1ERKNS_5ArrayINS_6StringEEES5_RKS2_@Base 2.1.0
 _ZN7blocxx612NullAppenderC1Ev@Base 2.1.0
 _ZN7blocxx612NullAppenderC2ERKNS_5ArrayINS_6StringEEES5_RKS2_@Base 2.1.0
 _ZN7blocxx612NullAppenderC2Ev@Base 2.1.0
 _ZN7blocxx612NullAppenderD0Ev@Base 2.1.0
 _ZN7blocxx612NullAppenderD1Ev@Base 2.1.0
 _ZN7blocxx612NullAppenderD2Ev@Base 2.1.0
 _ZN7blocxx612OWSSLContextC1Ev@Base 2.1.0
 _ZN7blocxx612OWSSLContextC2Ev@Base 2.1.0
 _ZN7blocxx612OWSSLContextD1Ev@Base 2.1.0
 _ZN7blocxx612OWSSLContextD2Ev@Base 2.1.0
 _ZN7blocxx612RandomNumber13getNextNumberEv@Base 2.1.0
 _ZN7blocxx612RandomNumber14initRandomnessEv@Base 2.1.0
 _ZN7blocxx612RandomNumber15saveRandomStateEv@Base 2.1.0
 _ZN7blocxx612RandomNumberC1Eii@Base 2.1.0
 _ZN7blocxx612RandomNumberC2Eii@Base 2.1.0
 _ZN7blocxx612SSLClientCtxC1ERKNS_7SSLOptsE@Base 2.1.0
 _ZN7blocxx612SSLClientCtxC2ERKNS_7SSLOptsE@Base 2.1.0
 _ZN7blocxx612SSLClientCtxD0Ev@Base 2.1.0
 _ZN7blocxx612SSLClientCtxD1Ev@Base 2.1.0
 _ZN7blocxx612SSLClientCtxD2Ev@Base 2.1.0
 _ZN7blocxx612SSLExceptionC1EPKciS2_iPKNS_9ExceptionEi@Base 2.1.0
 _ZN7blocxx612SSLExceptionC1ERKS0_@Base 2.1.0
 _ZN7blocxx612SSLExceptionC2EPKciS2_iPKNS_9ExceptionEi@Base 2.1.0
 _ZN7blocxx612SSLExceptionC2ERKS0_@Base 2.1.0
 _ZN7blocxx612SSLExceptionD0Ev@Base 2.1.0
 _ZN7blocxx612SSLExceptionD1Ev@Base 2.1.0
 _ZN7blocxx612SSLExceptionD2Ev@Base 2.1.0
 _ZN7blocxx612SSLServerCtxC1ERKNS_7SSLOptsE@Base 2.1.0
 _ZN7blocxx612SSLServerCtxC2ERKNS_7SSLOptsE@Base 2.1.0
 _ZN7blocxx612SSLServerCtxD0Ev@Base 2.1.0
 _ZN7blocxx612SSLServerCtxD1Ev@Base 2.1.0
 _ZN7blocxx612SSLServerCtxD2Ev@Base 2.1.0
 _ZN7blocxx612SelectEngine19addSelectableObjectERKiRKNS_18IntrusiveReferenceINS_21SelectableCallbackIFCEEENS4_10EEventTypeE@Base 2.1.0
 _ZN7blocxx612SelectEngine22removeSelectableObjectERKiNS_21SelectableCallbackIFC10EEventTypeE@Base 2.1.0
 _ZN7blocxx612SelectEngine2goERKNS_7TimeoutE@Base 2.1.0
 _ZN7blocxx612SelectEngine4DataC1ERKNS_18IntrusiveReferenceINS_21SelectableCallbackIFCEEENS3_10EEventTypeE@Base 2.1.0
 _ZN7blocxx612SelectEngine4DataC1ERKS1_@Base 2.1.0
 _ZN7blocxx612SelectEngine4DataC2ERKNS_18IntrusiveReferenceINS_21SelectableCallbackIFCEEENS3_10EEventTypeE@Base 2.1.0
 _ZN7blocxx612SelectEngine4DataC2ERKS1_@Base 2.1.0
 _ZN7blocxx612SelectEngine4DataD1Ev@Base 2.1.0
 _ZN7blocxx612SelectEngine4DataD2Ev@Base 2.1.0
 _ZN7blocxx612SelectEngine4DataaSERKS1_@Base 2.1.0
 _ZN7blocxx612SelectEngine4stopEv@Base 2.1.0
 _ZN7blocxx612ServerSocket15getLocalAddressEv@Base 2.1.0
 _ZN7blocxx612ServerSocket5closeEv@Base 2.1.0
 _ZN7blocxx612ServerSocket6acceptERKNS_7TimeoutE@Base 2.1.0
 _ZN7blocxx612ServerSocket6acceptEi@Base 2.1.0
 _ZN7blocxx612ServerSocket8doListenERKNS_6StringEib@Base 2.1.0
 _ZN7blocxx612ServerSocket8doListenEtNS_11SocketFlags8ESSLFlagEiRKNS_6StringENS1_14EReuseAddrFlagE@Base 2.1.0
 _ZN7blocxx612ServerSocket8doListenEtiRKNS_6StringENS_11SocketFlags14EReuseAddrFlagE@Base 2.1.0
 _ZN7blocxx612ServerSocketC1ENS_11SocketFlags8ESSLFlagE@Base 2.1.0
 _ZN7blocxx612ServerSocketC1ENS_18IntrusiveReferenceINS_12SSLServerCtxEEE@Base 2.1.0
 _ZN7blocxx612ServerSocketC1ERKS0_@Base 2.1.0
 _ZN7blocxx612ServerSocketC2ENS_11SocketFlags8ESSLFlagE@Base 2.1.0
 _ZN7blocxx612ServerSocketC2ENS_18IntrusiveReferenceINS_12SSLServerCtxEEE@Base 2.1.0
 _ZN7blocxx612ServerSocketC2ERKS0_@Base 2.1.0
 _ZN7blocxx612ServerSocketD0Ev@Base 2.1.0
 _ZN7blocxx612ServerSocketD1Ev@Base 2.1.0
 _ZN7blocxx612StringBuffer10checkAvailEm@Base 2.1.0
 _ZN7blocxx612StringBuffer13releaseStringEv@Base 2.1.0
 _ZN7blocxx612StringBuffer4chopEv@Base 2.1.0
 _ZN7blocxx612StringBuffer4swapERS0_@Base 2.1.0
 _ZN7blocxx612StringBuffer4trimEv@Base 2.1.0
 _ZN7blocxx612StringBuffer5resetEv@Base 2.1.0
 _ZN7blocxx612StringBuffer6appendEPKc@Base 2.1.0
 _ZN7blocxx612StringBuffer6appendEPKcm@Base 2.1.0
 _ZN7blocxx612StringBuffer6appendERKNS_6StringE@Base 2.1.0
 _ZN7blocxx612StringBuffer6appendERKS0_@Base 2.1.0
 _ZN7blocxx612StringBuffer6appendEc@Base 2.1.0
 _ZN7blocxx612StringBuffer7getLineERSib@Base 2.1.0
 _ZN7blocxx612StringBuffer8truncateEm@Base 2.1.0
 _ZN7blocxx612StringBufferC1EPKc@Base 2.1.0
 _ZN7blocxx612StringBufferC1ERKNS_6StringE@Base 2.1.0
 _ZN7blocxx612StringBufferC1ERKS0_@Base 2.1.0
 _ZN7blocxx612StringBufferC1Em@Base 2.1.0
 _ZN7blocxx612StringBufferC2EPKc@Base 2.1.0
 _ZN7blocxx612StringBufferC2ERKNS_6StringE@Base 2.1.0
 _ZN7blocxx612StringBufferC2ERKS0_@Base 2.1.0
 _ZN7blocxx612StringBufferC2Em@Base 2.1.0
 _ZN7blocxx612StringBufferD1Ev@Base 2.1.0
 _ZN7blocxx612StringBufferD2Ev@Base 2.1.0
 _ZN7blocxx612StringBufferaSEPKc@Base 2.1.0
 _ZN7blocxx612StringBufferaSERKNS_6StringE@Base 2.1.0
 _ZN7blocxx612StringBufferaSERKS0_@Base 2.1.0
 _ZN7blocxx612StringBufferpLENS_4BoolE@Base 2.1.0
 _ZN7blocxx612StringBufferpLEPKc@Base 2.1.0
 _ZN7blocxx612StringBufferpLERKNS_6StringE@Base 2.1.0
 _ZN7blocxx612StringBufferpLERKS0_@Base 2.1.0
 _ZN7blocxx612StringBufferpLEa@Base 2.1.0
 _ZN7blocxx612StringBufferpLEc@Base 2.1.0
 _ZN7blocxx612StringBufferpLEd@Base 2.1.0
 _ZN7blocxx612StringBufferpLEf@Base 2.1.0
 _ZN7blocxx612StringBufferpLEh@Base 2.1.0
 _ZN7blocxx612StringBufferpLEi@Base 2.1.0
 _ZN7blocxx612StringBufferpLEj@Base 2.1.0
 _ZN7blocxx612StringBufferpLEl@Base 2.1.0
 _ZN7blocxx612StringBufferpLEm@Base 2.1.0
 _ZN7blocxx612StringBufferpLEs@Base 2.1.0
 _ZN7blocxx612StringBufferpLEt@Base 2.1.0
 _ZN7blocxx612TimeoutTimer11resetOnLoopEv@Base 2.1.0
 _ZN7blocxx612TimeoutTimer4loopEv@Base 2.1.0
 _ZN7blocxx612TimeoutTimer5startEv@Base 2.1.0
 _ZN7blocxx612TimeoutTimerC1ERKNS_7TimeoutE@Base 2.1.0
 _ZN7blocxx612TimeoutTimerC2ERKNS_7TimeoutE@Base 2.1.0
 _ZN7blocxx612TimeoutTimerD0Ev@Base 2.1.0
 _ZN7blocxx612TimeoutTimerD1Ev@Base 2.1.0
 _ZN7blocxx612TimeoutTimerD2Ev@Base 2.1.0
 _ZN7blocxx613CmdLineParser8getUsageEPKNS0_6OptionEj@Base 2.1.0
 _ZN7blocxx613CmdLineParserC1EiPKPKcPKNS0_6OptionENS0_23EAllowNonOptionArgsFlagE@Base 2.1.0
 _ZN7blocxx613CmdLineParserC2EiPKPKcPKNS0_6OptionENS0_23EAllowNonOptionArgsFlagE@Base 2.1.0
 _ZN7blocxx613DelayedFormatC1ERKNS_6StringE@Base 2.1.0
 _ZN7blocxx613DelayedFormatC2ERKNS_6StringE@Base 2.1.0
 _ZN7blocxx613DelayedFormatD1Ev@Base 2.1.0
 _ZN7blocxx613DelayedFormatD2Ev@Base 2.1.0
 _ZN7blocxx613IStringStreamC1ERKNS_6StringE@Base 2.1.0
 _ZN7blocxx613IStringStreamC2ERKNS_6StringE@Base 2.1.0
 _ZN7blocxx613IStringStreamD0Ev@Base 2.1.0
 _ZN7blocxx613IStringStreamD1Ev@Base 2.1.0
 _ZN7blocxx613IStringStreamD2Ev@Base 2.1.0
 _ZN7blocxx613MultiAppender14addLogAppenderERKNS_18IntrusiveReferenceINS_11LogAppenderEEE@Base 2.1.0
 _ZN7blocxx613MultiAppenderC1ERKNS_18IntrusiveReferenceINS_11LogAppenderEEE@Base 2.1.0
 _ZN7blocxx613MultiAppenderC1ERKNS_5ArrayINS_18IntrusiveReferenceINS_11LogAppenderEEEEE@Base 2.1.0
 _ZN7blocxx613MultiAppenderC2ERKNS_18IntrusiveReferenceINS_11LogAppenderEEE@Base 2.1.0
 _ZN7blocxx613MultiAppenderC2ERKNS_5ArrayINS_18IntrusiveReferenceINS_11LogAppenderEEEEE@Base 2.1.0
 _ZN7blocxx613MultiAppenderD0Ev@Base 2.1.0
 _ZN7blocxx613MultiAppenderD1Ev@Base 2.1.0
 _ZN7blocxx613MultiAppenderD2Ev@Base 2.1.0
 _ZN7blocxx613OStringStream13releaseStringEv@Base 2.1.0
 _ZN7blocxx613OStringStream5resetEv@Base 2.1.0
 _ZN7blocxx613OStringStreamC1ERKS0_@Base 2.1.0
 _ZN7blocxx613OStringStreamC1Em@Base 2.1.0
 _ZN7blocxx613OStringStreamC2ERKS0_@Base 2.1.0
 _ZN7blocxx613OStringStreamC2Em@Base 2.1.0
 _ZN7blocxx613OStringStreamD0Ev@Base 2.1.0
 _ZN7blocxx613OStringStreamD1Ev@Base 2.1.0
 _ZN7blocxx613OStringStreamD2Ev@Base 2.1.0
 _ZN7blocxx613OStringStreamaSERKS0_@Base 2.1.0
 _ZN7blocxx613ReferenceBase4swapERS0_@Base 2.1.0
 _ZN7blocxx613ReferenceBase6decRefEv@Base 2.1.0
 _ZN7blocxx613ReferenceBaseC1ERKS0_@Base 2.1.0
 _ZN7blocxx613ReferenceBaseC1Ev@Base 2.1.0
 _ZN7blocxx613ReferenceBaseC2ERKS0_@Base 2.1.0
 _ZN7blocxx613ReferenceBaseC2Ev@Base 2.1.0
 _ZN7blocxx613SSLSocketImpl10connectSSLEv@Base 2.1.0
 _ZN7blocxx613SSLSocketImpl10disconnectEv@Base 2.1.0
 _ZN7blocxx613SSLSocketImpl12waitForInputERKNS_7TimeoutE@Base 2.1.0
 _ZN7blocxx613SSLSocketImpl7connectERKNS_13SocketAddressE@Base 2.1.0
 _ZN7blocxx613SSLSocketImpl7readAuxEPvi@Base 2.1.0
 _ZN7blocxx613SSLSocketImpl8writeAuxEPKvi@Base 2.1.0
 _ZN7blocxx613SSLSocketImplC1ENS_18IntrusiveReferenceINS_12SSLClientCtxEEE@Base 2.1.0
 _ZN7blocxx613SSLSocketImplC1ERKNS_13SocketAddressE@Base 2.1.0
 _ZN7blocxx613SSLSocketImplC1EiNS_13SocketAddress11AddressTypeE@Base 2.1.0
 _ZN7blocxx613SSLSocketImplC1EiNS_13SocketAddress11AddressTypeERKNS_18IntrusiveReferenceINS_12SSLServerCtxEEE@Base 2.1.0
 _ZN7blocxx613SSLSocketImplC1Ev@Base 2.1.0
 _ZN7blocxx613SSLSocketImplC2ENS_18IntrusiveReferenceINS_12SSLClientCtxEEE@Base 2.1.0
 _ZN7blocxx613SSLSocketImplC2ERKNS_13SocketAddressE@Base 2.1.0
 _ZN7blocxx613SSLSocketImplC2EiNS_13SocketAddress11AddressTypeE@Base 2.1.0
 _ZN7blocxx613SSLSocketImplC2EiNS_13SocketAddress11AddressTypeERKNS_18IntrusiveReferenceINS_12SSLServerCtxEEE@Base 2.1.0
 _ZN7blocxx613SSLSocketImplC2Ev@Base 2.1.0
 _ZN7blocxx613SSLSocketImplD0Ev@Base 2.1.0
 _ZN7blocxx613SSLSocketImplD1Ev@Base 2.1.0
 _ZN7blocxx613SSLSocketImplD2Ev@Base 2.1.0
 _ZN7blocxx613SSLTrustStore14addCertificateEP7x509_stRKNS_6StringES5_@Base 2.1.0
 _ZN7blocxx613SSLTrustStore21getCertMD5FingerprintEP7x509_st@Base 2.1.0
 _ZN7blocxx613SSLTrustStore7getUserERKNS_6StringERS1_S4_@Base 2.1.0
 _ZN7blocxx613SSLTrustStore7readMapEv@Base 2.1.0
 _ZN7blocxx613SSLTrustStore8UserInfoC1ERKS1_@Base 2.1.0
 _ZN7blocxx613SSLTrustStore8UserInfoC1Ev@Base 2.1.0
 _ZN7blocxx613SSLTrustStore8UserInfoC2ERKS1_@Base 2.1.0
 _ZN7blocxx613SSLTrustStore8UserInfoC2Ev@Base 2.1.0
 _ZN7blocxx613SSLTrustStore8UserInfoD1Ev@Base 2.1.0
 _ZN7blocxx613SSLTrustStore8UserInfoD2Ev@Base 2.1.0
 _ZN7blocxx613SSLTrustStore8UserInfoaSERKS1_@Base 2.1.0
 _ZN7blocxx613SSLTrustStore8writeMapEv@Base 2.1.0
 _ZN7blocxx613SSLTrustStoreC1ERKNS_6StringE@Base 2.1.0
 _ZN7blocxx613SSLTrustStoreC2ERKNS_6StringE@Base 2.1.0
 _ZN7blocxx613SSLTrustStoreD0Ev@Base 2.1.0
 _ZN7blocxx613SSLTrustStoreD1Ev@Base 2.1.0
 _ZN7blocxx613SSLTrustStoreD2Ev@Base 2.1.0
 _ZN7blocxx613SelectableIFCC2Ev@Base 2.1.0
 _ZN7blocxx613SelectableIFCD0Ev@Base 2.1.0
 _ZN7blocxx613SelectableIFCD1Ev@Base 2.1.0
 _ZN7blocxx613SelectableIFCD2Ev@Base 2.1.0
 _ZN7blocxx613SharedLibraryC1Ev@Base 2.1.0
 _ZN7blocxx613SharedLibraryC2Ev@Base 2.1.0
 _ZN7blocxx613SharedLibraryD0Ev@Base 2.1.0
 _ZN7blocxx613SharedLibraryD1Ev@Base 2.1.0
 _ZN7blocxx613SharedLibraryD2Ev@Base 2.1.0
 _ZN7blocxx613SocketAddress15getAnyLocalHostEt@Base 2.1.0
 _ZN7blocxx613SocketAddress17allocEmptyAddressENS0_11AddressTypeE@Base 2.1.0
 _ZN7blocxx613SocketAddress17getFromNativeFormERK11sockaddr_un@Base 2.1.0
 _ZN7blocxx613SocketAddress17getFromNativeFormERK16sockaddr_storage@Base 2.1.0
 _ZN7blocxx613SocketAddress17getFromNativeFormERK7in_addrtRKNS_6StringE@Base 2.1.0
 _ZN7blocxx613SocketAddress19ALL_LOCAL_ADDRESSESE@Base 2.1.0
 _ZN7blocxx613SocketAddress20assignFromNativeFormEPK11sockaddr_unm@Base 2.1.0
 _ZN7blocxx613SocketAddress20assignFromNativeFormEPK16sockaddr_storagem@Base 2.1.0
 _ZN7blocxx613SocketAddress6getUDSERKNS_6StringE@Base 2.1.0
 _ZN7blocxx613SocketAddress9getByNameERKNS_6StringEt@Base 2.1.0
 _ZN7blocxx613SocketAddressC1ERK11sockaddr_un@Base 2.1.0
 _ZN7blocxx613SocketAddressC1ERK16sockaddr_storage@Base 2.1.0
 _ZN7blocxx613SocketAddressC1ERKS0_@Base 2.1.0
 _ZN7blocxx613SocketAddressC1Ev@Base 2.1.0
 _ZN7blocxx613SocketAddressC2ERK11sockaddr_un@Base 2.1.0
 _ZN7blocxx613SocketAddressC2ERK16sockaddr_storage@Base 2.1.0
 _ZN7blocxx613SocketAddressC2ERKS0_@Base 2.1.0
 _ZN7blocxx613SocketAddressC2Ev@Base 2.1.0
 _ZN7blocxx613SocketAddressD1Ev@Base 2.1.0
 _ZN7blocxx613SocketAddressD2Ev@Base 2.1.0
 _ZN7blocxx613SocketAddressaSERKS0_@Base 2.1.0
 _ZN7blocxx613ThreadBarrier4waitEv@Base 2.1.0
 _ZN7blocxx613ThreadBarrierC1ERKS0_@Base 2.1.0
 _ZN7blocxx613ThreadBarrierC1Ej@Base 2.1.0
 _ZN7blocxx613ThreadBarrierC2ERKS0_@Base 2.1.0
 _ZN7blocxx613ThreadBarrierC2Ej@Base 2.1.0
 _ZN7blocxx613ThreadBarrierD1Ev@Base 2.1.0
 _ZN7blocxx613ThreadBarrierD2Ev@Base 2.1.0
 _ZN7blocxx613ThreadBarrieraSERKS0_@Base 2.1.0
 _ZN7blocxx613ThreadCounter10waitForAllERKNS_7TimeoutE@Base 2.1.0
 _ZN7blocxx613ThreadCounter10waitForAllEjj@Base 2.1.0
 _ZN7blocxx613ThreadCounter14decThreadCountEv@Base 2.1.0
 _ZN7blocxx613ThreadCounter14getThreadCountEv@Base 2.1.0
 _ZN7blocxx613ThreadCounter14incThreadCountERKNS_7TimeoutE@Base 2.1.0
 _ZN7blocxx613ThreadCounter14incThreadCountEjj@Base 2.1.0
 _ZN7blocxx613ThreadCounter6setMaxEi@Base 2.1.0
 _ZN7blocxx613ThreadCounterC1Ei@Base 2.1.0
 _ZN7blocxx613ThreadCounterC2Ei@Base 2.1.0
 _ZN7blocxx613ThreadCounterD0Ev@Base 2.1.0
 _ZN7blocxx613ThreadCounterD1Ev@Base 2.1.0
 _ZN7blocxx613ThreadCounterD2Ev@Base 2.1.0
 _ZN7blocxx613UUIDExceptionC1EPKciS2_iPKNS_9ExceptionEi@Base 2.1.0
 _ZN7blocxx613UUIDExceptionC1ERKS0_@Base 2.1.0
 _ZN7blocxx613UUIDExceptionC2EPKciS2_iPKNS_9ExceptionEi@Base 2.1.0
 _ZN7blocxx613UUIDExceptionC2ERKS0_@Base 2.1.0
 _ZN7blocxx613UUIDExceptionD0Ev@Base 2.1.0
 _ZN7blocxx613UUIDExceptionD1Ev@Base 2.1.0
 _ZN7blocxx613UUIDExceptionD2Ev@Base 2.1.0
 _ZN7blocxx613check_grp_othERK4stat@Base 2.1.0
 _ZN7blocxx613getFileStatusERK4statjbRKNS_6StringE@Base 2.1.0
 _ZN7blocxx614AppenderLogger14addLogAppenderERKNS_18IntrusiveReferenceINS_11LogAppenderEEE@Base 2.1.0
 _ZN7blocxx614AppenderLogger8getLevelERKNS_5ArrayINS_18IntrusiveReferenceINS_11LogAppenderEEEEE@Base 2.1.0
 _ZN7blocxx614AppenderLoggerC1ERKNS_6StringENS_9ELogLevelERKNS_18IntrusiveReferenceINS_11LogAppenderEEE@Base 2.1.0
 _ZN7blocxx614AppenderLoggerC1ERKNS_6StringENS_9ELogLevelERKNS_5ArrayINS_18IntrusiveReferenceINS_11LogAppenderEEEEE@Base 2.1.0
 _ZN7blocxx614AppenderLoggerC1ERKNS_6StringERKNS_18IntrusiveReferenceINS_11LogAppenderEEE@Base 2.1.0
 _ZN7blocxx614AppenderLoggerC1ERKNS_6StringERKNS_5ArrayINS_18IntrusiveReferenceINS_11LogAppenderEEEEE@Base 2.1.0
 _ZN7blocxx614AppenderLoggerC2ERKNS_6StringENS_9ELogLevelERKNS_18IntrusiveReferenceINS_11LogAppenderEEE@Base 2.1.0
 _ZN7blocxx614AppenderLoggerC2ERKNS_6StringENS_9ELogLevelERKNS_5ArrayINS_18IntrusiveReferenceINS_11LogAppenderEEEEE@Base 2.1.0
 _ZN7blocxx614AppenderLoggerC2ERKNS_6StringERKNS_18IntrusiveReferenceINS_11LogAppenderEEE@Base 2.1.0
 _ZN7blocxx614AppenderLoggerC2ERKNS_6StringERKNS_5ArrayINS_18IntrusiveReferenceINS_11LogAppenderEEEEE@Base 2.1.0
 _ZN7blocxx614AppenderLoggerD0Ev@Base 2.1.0
 _ZN7blocxx614AppenderLoggerD1Ev@Base 2.1.0
 _ZN7blocxx614AppenderLoggerD2Ev@Base 2.1.0
 _ZN7blocxx614DataIStreamBuf7seekoffElSt12_Ios_SeekdirSt13_Ios_Openmode@Base 2.1.0
 _ZN7blocxx614DataIStreamBuf7seekposESt4fposI11__mbstate_tESt13_Ios_Openmode@Base 2.1.0
 _ZN7blocxx614DataIStreamBuf9underflowEv@Base 2.1.0
 _ZN7blocxx614DataIStreamBufD0Ev@Base 2.1.0
 _ZN7blocxx614DataIStreamBufD1Ev@Base 2.1.0
 _ZN7blocxx614DataIStreamBufD2Ev@Base 2.1.0
 _ZN7blocxx614DataOStreamBuf6xsputnEPKcl@Base 2.1.0
 _ZN7blocxx614DataOStreamBuf8overflowEi@Base 2.1.0
 _ZN7blocxx614DataOStreamBufC1Em@Base 2.1.0
 _ZN7blocxx614DataOStreamBufC2Em@Base 2.1.0
 _ZN7blocxx614DataOStreamBufD0Ev@Base 2.1.0
 _ZN7blocxx614DataOStreamBufD1Ev@Base 2.1.0
 _ZN7blocxx614DataOStreamBufD2Ev@Base 2.1.0
 _ZN7blocxx614ExecMockObject29executeProcessAndGatherOutputEPKPKcRNS_6StringES4_RKNS_7TimeoutEiS2_@Base 2.1.0
 _ZN7blocxx614ExecMockObject30executeProcessAndGatherOutput2EPKPKcRNS_6StringES6_S4_RKNS_7TimeoutEiS2_@Base 2.1.0
 _ZN7blocxx614ExecMockObjectD0Ev@Base 2.1.0
 _ZN7blocxx614ExecMockObjectD1Ev@Base 2.1.0
 _ZN7blocxx614ExecMockObjectD2Ev@Base 2.1.0
 _ZN7blocxx614MD5OStreamBaseC1EPNS_3MD5E@Base 2.1.0
 _ZN7blocxx614MD5OStreamBaseC2EPNS_3MD5E@Base 2.1.0
 _ZN7blocxx614MD5OStreamBaseD1Ev@Base 2.1.0
 _ZN7blocxx614MD5OStreamBaseD2Ev@Base 2.1.0
 _ZN7blocxx614SocketBaseImpl10disconnectEv@Base 2.1.0
 _ZN7blocxx614SocketBaseImpl11getIOStreamEv@Base 2.1.0
 _ZN7blocxx614SocketBaseImpl12setDumpFilesERKNS_6StringES3_@Base 2.1.0
 _ZN7blocxx614SocketBaseImpl12waitForInputERKNS_7TimeoutE@Base 2.1.0
 _ZN7blocxx614SocketBaseImpl13m_traceFileInE@Base 2.1.0
 _ZN7blocxx614SocketBaseImpl13waitForOutputERKNS_7TimeoutE@Base 2.1.0
 _ZN7blocxx614SocketBaseImpl14getInputStreamEv@Base 2.1.0
 _ZN7blocxx614SocketBaseImpl14m_traceFileOutE@Base 2.1.0
 _ZN7blocxx614SocketBaseImpl15getOutputStreamEv@Base 2.1.0
 _ZN7blocxx614SocketBaseImpl17fillInetAddrParmsEv@Base 2.1.0
 _ZN7blocxx614SocketBaseImpl17fillUnixAddrParmsEv@Base 2.1.0
 _ZN7blocxx614SocketBaseImpl4readEPviNS_5IOIFC11ErrorActionE@Base 2.1.0
 _ZN7blocxx614SocketBaseImpl5writeEPKviNS_5IOIFC11ErrorActionE@Base 2.1.0
 _ZN7blocxx614SocketBaseImpl7connectERKNS_13SocketAddressE@Base 2.1.0
 _ZN7blocxx614SocketBaseImplC1ERKNS_13SocketAddressE@Base 2.1.0
 _ZN7blocxx614SocketBaseImplC1EiNS_13SocketAddress11AddressTypeE@Base 2.1.0
 _ZN7blocxx614SocketBaseImplC1Ev@Base 2.1.0
 _ZN7blocxx614SocketBaseImplC2ERKNS_13SocketAddressE@Base 2.1.0
 _ZN7blocxx614SocketBaseImplC2EiNS_13SocketAddress11AddressTypeE@Base 2.1.0
 _ZN7blocxx614SocketBaseImplC2Ev@Base 2.1.0
 _ZN7blocxx614SocketBaseImplD0Ev@Base 2.1.0
 _ZN7blocxx614SocketBaseImplD1Ev@Base 2.1.0
 _ZN7blocxx614SocketBaseImplD2Ev@Base 2.1.0
 _ZN7blocxx614SyslogAppender13calledOpenLogE@Base 2.1.0
 _ZN7blocxx614SyslogAppender27STR_DEFAULT_MESSAGE_PATTERNE@Base 2.1.0
 _ZN7blocxx614SyslogAppenderC1ERKNS_5ArrayINS_6StringEEES5_RKS2_S7_S7_@Base 2.1.0
 _ZN7blocxx614SyslogAppenderC2ERKNS_5ArrayINS_6StringEEES5_RKS2_S7_S7_@Base 2.1.0
 _ZN7blocxx614SyslogAppenderD0Ev@Base 2.1.0
 _ZN7blocxx614SyslogAppenderD1Ev@Base 2.1.0
 _ZN7blocxx614SyslogAppenderD2Ev@Base 2.1.0
 _ZN7blocxx614TempFileBuffer10buffer_outEv@Base 2.1.0
 _ZN7blocxx614TempFileBuffer11initBuffersEv@Base 2.1.0
 _ZN7blocxx614TempFileBuffer13initGetBufferEv@Base 2.1.0
 _ZN7blocxx614TempFileBuffer13initPutBufferEv@Base 2.1.0
 _ZN7blocxx614TempFileBuffer16buffer_to_deviceEPKci@Base 2.1.0
 _ZN7blocxx614TempFileBuffer18buffer_from_deviceEPci@Base 2.1.0
 _ZN7blocxx614TempFileBuffer19releaseFileAndResetEv@Base 2.1.0
 _ZN7blocxx614TempFileBuffer5resetEv@Base 2.1.0
 _ZN7blocxx614TempFileBuffer6rewindEv@Base 2.1.0
 _ZN7blocxx614TempFileBuffer6xsputnEPKcl@Base 2.1.0
 _ZN7blocxx614TempFileBuffer7getSizeEv@Base 2.1.0
 _ZN7blocxx614TempFileBuffer8overflowEi@Base 2.1.0
 _ZN7blocxx614TempFileBuffer9buffer_inEv@Base 2.1.0
 _ZN7blocxx614TempFileBuffer9underflowEv@Base 2.1.0
 _ZN7blocxx614TempFileBufferC1ERKNS_6StringEmNS0_13EKeepFileFlagE@Base 2.1.0
 _ZN7blocxx614TempFileBufferC1EmNS0_13EKeepFileFlagE@Base 2.1.0
 _ZN7blocxx614TempFileBufferC2ERKNS_6StringEmNS0_13EKeepFileFlagE@Base 2.1.0
 _ZN7blocxx614TempFileBufferC2EmNS0_13EKeepFileFlagE@Base 2.1.0
 _ZN7blocxx614TempFileBufferD0Ev@Base 2.1.0
 _ZN7blocxx614TempFileBufferD1Ev@Base 2.1.0
 _ZN7blocxx614TempFileBufferD2Ev@Base 2.1.0
 _ZN7blocxx614TempFileStream19releaseFileAndResetEv@Base 2.1.0
 _ZN7blocxx614TempFileStream5resetEv@Base 2.1.0
 _ZN7blocxx614TempFileStream6rewindEv@Base 2.1.0
 _ZN7blocxx614TempFileStreamC1ERKNS_6StringEmNS_14TempFileBuffer13EKeepFileFlagE@Base 2.1.0
 _ZN7blocxx614TempFileStreamC1EmNS_14TempFileBuffer13EKeepFileFlagE@Base 2.1.0
 _ZN7blocxx614TempFileStreamC2ERKNS_6StringEmNS_14TempFileBuffer13EKeepFileFlagE@Base 2.1.0
 _ZN7blocxx614TempFileStreamC2EmNS_14TempFileBuffer13EKeepFileFlagE@Base 2.1.0
 _ZN7blocxx614TempFileStreamD0Ev@Base 2.1.0
 _ZN7blocxx614TempFileStreamD1Ev@Base 2.1.0
 _ZN7blocxx614ThreadPoolImplC1Ev@Base 2.1.0
 _ZN7blocxx614ThreadPoolImplC2Ev@Base 2.1.0
 _ZN7blocxx614ThreadPoolImplD0Ev@Base 2.1.0
 _ZN7blocxx614ThreadPoolImplD1Ev@Base 2.1.0
 _ZN7blocxx614ThreadPoolImplD2Ev@Base 2.1.0
 _ZN7blocxx614isPathAbsoluteERKNS_6StringE@Base 2.1.0
 _ZN7blocxx614passDescriptorEiii@Base 2.1.0
 _ZN7blocxx614pollStatusImplEi@Base 2.1.0
 _ZN7blocxx615AutoResourceRefINS_20AutoDescriptorPolicyEEC1Ei@Base 2.1.0
 _ZN7blocxx615AutoResourceRefINS_20AutoDescriptorPolicyEEC2Ei@Base 2.1.0
 _ZN7blocxx615ExceptionDetail13FormatMsgImplC1Ev@Base 2.1.0
 _ZN7blocxx615ExceptionDetail13FormatMsgImplC2Ev@Base 2.1.0
 _ZN7blocxx615ExceptionDetail13FormatMsgImplD1Ev@Base 2.1.0
 _ZN7blocxx615ExceptionDetail13FormatMsgImplD2Ev@Base 2.1.0
 _ZN7blocxx615ExceptionDetail15strerror_r_wrapINS0_5dummyEEEiPFPciS3_mEiS3_jT_@Base 2.1.0
 _ZN7blocxx615ExceptionDetail19portable_strerror_rEiPcj@Base 2.1.0
 _ZN7blocxx615ExceptionDetail5ErrnoINS_11IOExceptionEE6formatEPKciS5_i@Base 2.1.0
 _ZN7blocxx615ExceptionDetail5ErrnoINS_11IOExceptionEE6formatINS_6FormatEEES2_PKciRKT_i@Base 2.1.0
 _ZN7blocxx615ExceptionDetail5ErrnoINS_12SSLExceptionEE6formatEPKciS5_i@Base 2.1.0
 _ZN7blocxx615ExceptionDetail5ErrnoINS_15SelectExceptionEE6formatEPKciS5_i@Base 2.1.0
 _ZN7blocxx615ExceptionDetail5ErrnoINS_15SocketExceptionEE6formatEPKciS5_i@Base 2.1.0
 _ZN7blocxx615ExceptionDetail5ErrnoINS_15ThreadExceptionEE6formatEPKciS5_i@Base 2.1.0
 _ZN7blocxx615ExceptionDetail5ErrnoINS_17IPCMutexExceptionEE6formatEPKciS5_i@Base 2.1.0
 _ZN7blocxx615ExceptionDetail5ErrnoINS_18ExecErrorExceptionEE6formatEPKciS5_i@Base 2.1.0
 _ZN7blocxx615ExceptionDetail5ErrnoINS_19FileSystemExceptionEE6formatEPKciS5_i@Base 2.1.0
 _ZN7blocxx615ExceptionDetail5ErrnoINS_19FileSystemExceptionEE6formatINS_6StringEEES2_PKciRKT_i@Base 2.1.0
 _ZN7blocxx615ExceptionDetail5ErrnoINS_19FileSystemExceptionEE6simpleEPKcii@Base 2.1.0
 _ZN7blocxx615ExceptionDetail5ErrnoINS_20UnnamedPipeExceptionEE6formatEPKciS5_i@Base 2.1.0
 _ZN7blocxx615ExceptionDetail5ErrnoINS_21ProcessErrorExceptionEE6formatEPKciS5_i@Base 2.1.0
 _ZN7blocxx615ExceptionDetail5ErrnoINS_6Secure21ProcessAbortExceptionEE6formatEPKciS6_i@Base 2.1.0
 _ZN7blocxx615ExceptionDetail9FormatMsgC1EPKci@Base 2.1.0
 _ZN7blocxx615ExceptionDetail9FormatMsgC2EPKci@Base 2.1.0
 _ZN7blocxx615ExceptionDetail9FormatMsgD1Ev@Base 2.1.0
 _ZN7blocxx615ExceptionDetail9FormatMsgD2Ev@Base 2.1.0
 _ZN7blocxx615LoggerExceptionC1EPKciS2_iPKNS_9ExceptionEi@Base 2.1.0
 _ZN7blocxx615LoggerExceptionC1ERKS0_@Base 2.1.0
 _ZN7blocxx615LoggerExceptionC2EPKciS2_iPKNS_9ExceptionEi@Base 2.1.0
 _ZN7blocxx615LoggerExceptionC2ERKS0_@Base 2.1.0
 _ZN7blocxx615LoggerExceptionD0Ev@Base 2.1.0
 _ZN7blocxx615LoggerExceptionD1Ev@Base 2.1.0
 _ZN7blocxx615LoggerExceptionD2Ev@Base 2.1.0
 _ZN7blocxx615MD5StreamBuffer6xsputnEPKcl@Base 2.1.0
 _ZN7blocxx615MD5StreamBuffer8overflowEi@Base 2.1.0
 _ZN7blocxx615MD5StreamBufferC1EPNS_3MD5E@Base 2.1.0
 _ZN7blocxx615MD5StreamBufferC2EPNS_3MD5E@Base 2.1.0
 _ZN7blocxx615MD5StreamBufferD0Ev@Base 2.1.0
 _ZN7blocxx615MD5StreamBufferD1Ev@Base 2.1.0
 _ZN7blocxx615MD5StreamBufferD2Ev@Base 2.1.0
 _ZN7blocxx615SelectExceptionC1EPKciS2_iPKNS_9ExceptionEi@Base 2.1.0
 _ZN7blocxx615SelectExceptionC1ERKS0_@Base 2.1.0
 _ZN7blocxx615SelectExceptionC2EPKciS2_iPKNS_9ExceptionEi@Base 2.1.0
 _ZN7blocxx615SelectExceptionC2ERKS0_@Base 2.1.0
 _ZN7blocxx615SelectExceptionD0Ev@Base 2.1.0
 _ZN7blocxx615SelectExceptionD1Ev@Base 2.1.0
 _ZN7blocxx615SelectExceptionD2Ev@Base 2.1.0
 _ZN7blocxx615SocketExceptionC1EPKciS2_iPKNS_9ExceptionEi@Base 2.1.0
 _ZN7blocxx615SocketExceptionC1ERKS0_@Base 2.1.0
 _ZN7blocxx615SocketExceptionC2EPKciS2_iPKNS_9ExceptionEi@Base 2.1.0
 _ZN7blocxx615SocketExceptionC2ERKS0_@Base 2.1.0
 _ZN7blocxx615SocketExceptionD0Ev@Base 2.1.0
 _ZN7blocxx615SocketExceptionD1Ev@Base 2.1.0
 _ZN7blocxx615SocketExceptionD2Ev@Base 2.1.0
 _ZN7blocxx615SortedVectorMapINS_6StringES1_NS_26SortedVectorMapDataCompareIS1_S1_St4lessIS1_EEEE10equivalentERKS1_S8_@Base 2.1.0
 _ZN7blocxx615SortedVectorMapIiNS_12SelectEngine4DataENS_26SortedVectorMapDataCompareIiS2_St4lessIiEEEE10equivalentERKiS9_@Base 2.1.0
 _ZN7blocxx615SortedVectorMapIiNS_12SelectEngine4DataENS_26SortedVectorMapDataCompareIiS2_St4lessIiEEEE3endEv@Base 2.1.0
 _ZN7blocxx615SortedVectorMapIiNS_12SelectEngine4DataENS_26SortedVectorMapDataCompareIiS2_St4lessIiEEEE4findERKi@Base 2.1.0
 _ZN7blocxx615SortedVectorMapIiNS_12SelectEngine4DataENS_26SortedVectorMapDataCompareIiS2_St4lessIiEEEE5beginEv@Base 2.1.0
 _ZN7blocxx615SortedVectorMapIiNS_12SelectEngine4DataENS_26SortedVectorMapDataCompareIiS2_St4lessIiEEEE5eraseERKi@Base 2.1.0
 _ZN7blocxx615SortedVectorMapIiNS_12SelectEngine4DataENS_26SortedVectorMapDataCompareIiS2_St4lessIiEEEE6insertERKSt4pairIKiS2_E@Base 2.1.0
 _ZN7blocxx615SortedVectorMapIiNS_5ArrayINS_6StringEEENS_26SortedVectorMapDataCompareIiS3_St4lessIiEEEE10equivalentERKiSA_@Base 2.1.0
 _ZN7blocxx615SortedVectorMapIiNS_5ArrayINS_6StringEEENS_26SortedVectorMapDataCompareIiS3_St4lessIiEEEEC1Ev@Base 2.1.0
 _ZN7blocxx615SortedVectorMapIiNS_5ArrayINS_6StringEEENS_26SortedVectorMapDataCompareIiS3_St4lessIiEEEEC2Ev@Base 2.1.0
 _ZN7blocxx615SortedVectorMapIiNS_5ArrayINS_6StringEEENS_26SortedVectorMapDataCompareIiS3_St4lessIiEEEED1Ev@Base 2.1.0
 _ZN7blocxx615SortedVectorMapIiNS_5ArrayINS_6StringEEENS_26SortedVectorMapDataCompareIiS3_St4lessIiEEEED2Ev@Base 2.1.0
 _ZN7blocxx615SortedVectorMapIiNS_5ArrayINS_6StringEEENS_26SortedVectorMapDataCompareIiS3_St4lessIiEEEEixERKi@Base 2.1.0
 _ZN7blocxx615SortedVectorSetINS_6StringESt4lessIS1_EE10equivalentERKS1_S6_@Base 2.1.0
 _ZN7blocxx615SortedVectorSetINS_6StringESt4lessIS1_EEC1IN11__gnu_debug14_Safe_iteratorIN9__gnu_cxx17__normal_iteratorIPKS1_NSt9__cxx19986vectorIS1_SaIS1_EEEEENSt7__debug6vectorIS1_SE_EEEEEET_SL_@Base 2.1.0
 _ZN7blocxx615SortedVectorSetINS_6StringESt4lessIS1_EEC2IN11__gnu_debug14_Safe_iteratorIN9__gnu_cxx17__normal_iteratorIPKS1_NSt9__cxx19986vectorIS1_SaIS1_EEEEENSt7__debug6vectorIS1_SE_EEEEEET_SL_@Base 2.1.0
 _ZN7blocxx615SortedVectorSetINS_6StringESt4lessIS1_EED1Ev@Base 2.1.0
 _ZN7blocxx615SortedVectorSetINS_6StringESt4lessIS1_EED2Ev@Base 2.1.0
 _ZN7blocxx615ThreadExceptionC1EPKciS2_iPKNS_9ExceptionEi@Base 2.1.0
 _ZN7blocxx615ThreadExceptionC1ERKS0_@Base 2.1.0
 _ZN7blocxx615ThreadExceptionC2EPKciS2_iPKNS_9ExceptionEi@Base 2.1.0
 _ZN7blocxx615ThreadExceptionC2ERKS0_@Base 2.1.0
 _ZN7blocxx615ThreadExceptionD0Ev@Base 2.1.0
 _ZN7blocxx615ThreadExceptionD1Ev@Base 2.1.0
 _ZN7blocxx615ThreadExceptionD2Ev@Base 2.1.0
 _ZN7blocxx615dlSharedLibrary13isFakeLibraryERKNS_6StringE@Base 2.1.0
 _ZN7blocxx615dlSharedLibrary14s_call_dlcloseE@Base 2.1.0
 _ZN7blocxx615dlSharedLibraryC1EPvRKNS_6StringE@Base 2.1.0
 _ZN7blocxx615dlSharedLibraryC2EPvRKNS_6StringE@Base 2.1.0
 _ZN7blocxx615dlSharedLibraryD0Ev@Base 2.1.0
 _ZN7blocxx615dlSharedLibraryD1Ev@Base 2.1.0
 _ZN7blocxx615dlSharedLibraryD2Ev@Base 2.1.0
 _ZN7blocxx616AtomicDecAndTestERNS_8Atomic_tE@Base 2.1.0
 _ZN7blocxx616BaseStreamBuffer10buffer_outEv@Base 2.1.0
 _ZN7blocxx616BaseStreamBuffer11initBuffersEv@Base 2.1.0
 _ZN7blocxx616BaseStreamBuffer13initGetBufferEv@Base 2.1.0
 _ZN7blocxx616BaseStreamBuffer13initPutBufferEv@Base 2.1.0
 _ZN7blocxx616BaseStreamBuffer16buffer_to_deviceEPKci@Base 2.1.0
 _ZN7blocxx616BaseStreamBuffer18buffer_from_deviceEPci@Base 2.1.0
 _ZN7blocxx616BaseStreamBuffer4syncEv@Base 2.1.0
 _ZN7blocxx616BaseStreamBuffer6xsputnEPKcl@Base 2.1.0
 _ZN7blocxx616BaseStreamBuffer8overflowEi@Base 2.1.0
 _ZN7blocxx616BaseStreamBuffer9buffer_inEv@Base 2.1.0
 _ZN7blocxx616BaseStreamBuffer9underflowEv@Base 2.1.0
 _ZN7blocxx616BaseStreamBufferC1ENS0_14EDirectionFlagEm@Base 2.1.0
 _ZN7blocxx616BaseStreamBufferC2ENS0_14EDirectionFlagEm@Base 2.1.0
 _ZN7blocxx616BaseStreamBufferD0Ev@Base 2.1.0
 _ZN7blocxx616BaseStreamBufferD1Ev@Base 2.1.0
 _ZN7blocxx616BaseStreamBufferD2Ev@Base 2.1.0
 _ZN7blocxx616COWReferenceBase12getWriteLockEv@Base 2.1.0
 _ZN7blocxx616COWReferenceBase4swapERS0_@Base 2.1.0
 _ZN7blocxx616COWReferenceBase6decRefEv@Base 2.1.0
 _ZN7blocxx616COWReferenceBase6incRefEv@Base 2.1.0
 _ZN7blocxx616COWReferenceBaseC1ERKS0_@Base 2.1.0
 _ZN7blocxx616COWReferenceBaseC1Ev@Base 2.1.0
 _ZN7blocxx616COWReferenceBaseC2ERKS0_@Base 2.1.0
 _ZN7blocxx616COWReferenceBaseC2Ev@Base 2.1.0
 _ZN7blocxx616IStringStreamBuf9underflowEv@Base 2.1.0
 _ZN7blocxx616IStringStreamBufC1ERKNS_6StringE@Base 2.1.0
 _ZN7blocxx616IStringStreamBufC2ERKNS_6StringE@Base 2.1.0
 _ZN7blocxx616IStringStreamBufD0Ev@Base 2.1.0
 _ZN7blocxx616IStringStreamBufD1Ev@Base 2.1.0
 _ZN7blocxx616IStringStreamBufD2Ev@Base 2.1.0
 _ZN7blocxx616LogAppenderScopeC1ERKNS_18IntrusiveReferenceINS_11LogAppenderEEE@Base 2.1.0
 _ZN7blocxx616LogAppenderScopeC2ERKNS_18IntrusiveReferenceINS_11LogAppenderEEE@Base 2.1.0
 _ZN7blocxx616LogAppenderScopeD1Ev@Base 2.1.0
 _ZN7blocxx616LogAppenderScopeD2Ev@Base 2.1.0
 _ZN7blocxx616LogConfigOptions10g_defaultsE@Base 2.1.0
 _ZN7blocxx616LogConfigOptions13g_defaultsEndE@Base 2.1.0
 _ZN7blocxx616LogConfigOptions15LOG_1_FLUSH_optE@Base 2.1.0
 _ZN7blocxx616LogConfigOptions18LOG_1_LOCATION_optE@Base 2.1.0
 _ZN7blocxx616LogConfigOptions23LOG_1_MAX_FILE_SIZE_optE@Base 2.1.0
 _ZN7blocxx616LogConfigOptions25LOG_1_SYSLOG_FACILITY_optE@Base 2.1.0
 _ZN7blocxx616LogConfigOptions25LOG_1_SYSLOG_IDENTITY_optE@Base 2.1.0
 _ZN7blocxx616LogConfigOptions26LOG_1_MAX_BACKUP_INDEX_optE@Base 2.1.0
 _ZN7blocxx616OStringStreamBuf13releaseStringEv@Base 2.1.0
 _ZN7blocxx616OStringStreamBuf16buffer_to_deviceEPKci@Base 2.1.0
 _ZN7blocxx616OStringStreamBuf5resetEv@Base 2.1.0
 _ZN7blocxx616OStringStreamBufC1Em@Base 2.1.0
 _ZN7blocxx616OStringStreamBufC2Em@Base 2.1.0
 _ZN7blocxx616OStringStreamBufD0Ev@Base 2.1.0
 _ZN7blocxx616OStringStreamBufD1Ev@Base 2.1.0
 _ZN7blocxx616OStringStreamBufD2Ev@Base 2.1.0
 _ZN7blocxx616PosixUnnamedPipe11setBlockingENS_11UnnamedPipe13EBlockingModeE@Base 2.1.0
 _ZN7blocxx616PosixUnnamedPipe14passDescriptorEiRKNS_18IntrusiveReferenceINS_11UnnamedPipeEEERKNS1_INS_7ProcessEEE@Base 2.1.0
 _ZN7blocxx616PosixUnnamedPipe15setReadBlockingENS_11UnnamedPipe13EBlockingModeE@Base 2.1.0
 _ZN7blocxx616PosixUnnamedPipe16closeInputHandleEv@Base 2.1.0
 _ZN7blocxx616PosixUnnamedPipe16setWriteBlockingENS_11UnnamedPipe13EBlockingModeE@Base 2.1.0
 _ZN7blocxx616PosixUnnamedPipe17closeOutputHandleEv@Base 2.1.0
 _ZN7blocxx616PosixUnnamedPipe17receiveDescriptorERKNS_18IntrusiveReferenceINS_11UnnamedPipeEEE@Base 2.1.0
 _ZN7blocxx616PosixUnnamedPipe4openEv@Base 2.1.0
 _ZN7blocxx616PosixUnnamedPipe4readEPviNS_5IOIFC11ErrorActionE@Base 2.1.0
 _ZN7blocxx616PosixUnnamedPipe5closeEv@Base 2.1.0
 _ZN7blocxx616PosixUnnamedPipe5writeEPKviNS_5IOIFC11ErrorActionE@Base 2.1.0
 _ZN7blocxx616PosixUnnamedPipeC1ENS_11UnnamedPipe5EOpenE@Base 2.1.0
 _ZN7blocxx616PosixUnnamedPipeC1ENS_12AutoResourceINS_20AutoDescriptorPolicyEEES3_@Base 2.1.0
 _ZN7blocxx616PosixUnnamedPipeC2ENS_11UnnamedPipe5EOpenE@Base 2.1.0
 _ZN7blocxx616PosixUnnamedPipeC2ENS_12AutoResourceINS_20AutoDescriptorPolicyEEES3_@Base 2.1.0
 _ZN7blocxx616PosixUnnamedPipeD0Ev@Base 2.1.0
 _ZN7blocxx616PosixUnnamedPipeD1Ev@Base 2.1.0
 _ZN7blocxx616PosixUnnamedPipeD2Ev@Base 2.1.0
 _ZN7blocxx616ReferenceHelpers18throwNULLExceptionEv@Base 2.1.0
 _ZN7blocxx616ReferenceHelpers9checkNullEPKv@Base 2.1.0
 _ZN7blocxx616ServerSocketImpl11doListenUDSERKNS_6StringEib@Base 2.1.0
 _ZN7blocxx616ServerSocketImpl12doListenIPv4EtiRKNS_6StringE@Base 2.1.0
 _ZN7blocxx616ServerSocketImpl12doListenIPv6EtiRKNS_6StringE@Base 2.1.0
 _ZN7blocxx616ServerSocketImpl13fillAddrParmsEv@Base 2.1.0
 _ZN7blocxx616ServerSocketImpl15getLocalAddressEv@Base 2.1.0
 _ZN7blocxx616ServerSocketImpl5closeEv@Base 2.1.0
 _ZN7blocxx616ServerSocketImpl6acceptERKNS_7TimeoutE@Base 2.1.0
 _ZN7blocxx616ServerSocketImpl8doListenEtNS_11SocketFlags8ESSLFlagEiRKNS_6StringENS1_14EReuseAddrFlagE@Base 2.1.0
 _ZN7blocxx616ServerSocketImpl8doListenEtiRKNS_6StringENS_11SocketFlags14EReuseAddrFlagE@Base 2.1.0
 _ZN7blocxx616ServerSocketImplC1ENS_11SocketFlags8ESSLFlagE@Base 2.1.0
 _ZN7blocxx616ServerSocketImplC1ENS_18IntrusiveReferenceINS_12SSLServerCtxEEE@Base 2.1.0
 _ZN7blocxx616ServerSocketImplC2ENS_11SocketFlags8ESSLFlagE@Base 2.1.0
 _ZN7blocxx616ServerSocketImplC2ENS_18IntrusiveReferenceINS_12SSLServerCtxEEE@Base 2.1.0
 _ZN7blocxx616ServerSocketImplD0Ev@Base 2.1.0
 _ZN7blocxx616ServerSocketImplD1Ev@Base 2.1.0
 _ZN7blocxx616ServerSocketImplD2Ev@Base 2.1.0
 _ZN7blocxx616TimeoutExceptionC1EPKciS2_iPKNS_9ExceptionEi@Base 2.1.0
 _ZN7blocxx616TimeoutExceptionC1ERKS0_@Base 2.1.0
 _ZN7blocxx616TimeoutExceptionC2EPKciS2_iPKNS_9ExceptionEi@Base 2.1.0
 _ZN7blocxx616TimeoutExceptionC2ERKS0_@Base 2.1.0
 _ZN7blocxx616TimeoutExceptionD0Ev@Base 2.1.0
 _ZN7blocxx616TimeoutExceptionD1Ev@Base 2.1.0
 _ZN7blocxx616TimeoutExceptionD2Ev@Base 2.1.0
 _ZN7blocxx616WaitpidThreadFix12spawnProcessEPKcPKS2_S4_RNS_4Exec7PreExecE@Base 2.1.0
 _ZN7blocxx616WaitpidThreadFix25shouldUseWaitpidThreadFixEv@Base 2.1.0
 _ZN7blocxx616WaitpidThreadFix26setWaitpidThreadFixEnabledEb@Base 2.1.0
 _ZN7blocxx616WaitpidThreadFix7waitPidERKi@Base 2.1.0
 _ZN7blocxx617COWReferenceCloneI10regmatch_tEEPNSt7__debug6vectorIT_SaIS4_EEES7_@Base 2.1.0
 _ZN7blocxx617COWReferenceCloneINS_18IntrusiveReferenceINS_11LogAppenderEEEEEPNSt7__debug6vectorIT_SaIS6_EEES9_@Base 2.1.0
 _ZN7blocxx617COWReferenceCloneINS_18IntrusiveReferenceINS_26LogMessagePatternFormatter9ConverterEEEEEPNSt7__debug6vectorIT_SaIS7_EEESA_@Base 2.1.0
 _ZN7blocxx617COWReferenceCloneINS_18IntrusiveReferenceINS_6ThreadEEEEEPNSt7__debug6vectorIT_SaIS6_EEES9_@Base 2.1.0
 _ZN7blocxx617COWReferenceCloneINS_18IntrusiveReferenceINS_7ProcessEEEEEPNSt7__debug6vectorIT_SaIS6_EEES9_@Base 2.1.0
 _ZN7blocxx617COWReferenceCloneINS_5ArrayIcEEEEPNSt7__debug6vectorIT_SaIS5_EEES8_@Base 2.1.0
 _ZN7blocxx617COWReferenceCloneINS_6Select12SelectObjectEEEPNSt7__debug6vectorIT_SaIS5_EEES8_@Base 2.1.0
 _ZN7blocxx617COWReferenceCloneINS_6StringEEEPNSt7__debug6vectorIT_SaIS4_EEES7_@Base 2.1.0
 _ZN7blocxx617COWReferenceCloneINS_6StringENS_13SSLTrustStore8UserInfoESt4lessIS1_EEEPNSt7__debug3mapIT_T0_T1_SaISt4pairIKS8_S9_EEEESG_@Base 2.1.0
 _ZN7blocxx617COWReferenceCloneINS_6StringES1_St4lessIS1_EEEPNSt7__debug3mapIT_T0_T1_SaISt4pairIKS6_S7_EEEESE_@Base 2.1.0
 _ZN7blocxx617COWReferenceCloneINS_9PerlRegEx7match_tEEEPNSt7__debug6vectorIT_SaIS5_EEES8_@Base 2.1.0
 _ZN7blocxx617COWReferenceCloneIPKcEEPNSt7__debug6vectorIT_SaIS5_EEES8_@Base 2.1.0
 _ZN7blocxx617COWReferenceCloneISt4pairINS_6StringENS_17EFileStatusReturnEEEEPNSt7__debug6vectorIT_SaIS7_EEESA_@Base 2.1.0
 _ZN7blocxx617COWReferenceCloneISt4pairIiNS_12SelectEngine4DataEEEEPNSt7__debug6vectorIT_SaIS7_EEESA_@Base 2.1.0
 _ZN7blocxx617COWReferenceCloneISt4pairIiNS_5ArrayINS_6StringEEEEEEPNSt7__debug6vectorIT_SaIS8_EEESB_@Base 2.1.0
 _ZN7blocxx617COWReferenceCloneIcEEPNSt7__debug6vectorIT_SaIS3_EEES6_@Base 2.1.0
 _ZN7blocxx617COWReferenceCloneIiEEPNSt7__debug6vectorIT_SaIS3_EEES6_@Base 2.1.0
 _ZN7blocxx617COWReferenceCloneItEEPNSt7__debug6vectorIT_SaIS3_EEES6_@Base 2.1.0
 _ZN7blocxx617DateTimeExceptionC1EPKciS2_iPKNS_9ExceptionEi@Base 2.1.0
 _ZN7blocxx617DateTimeExceptionC1ERKS0_@Base 2.1.0
 _ZN7blocxx617DateTimeExceptionC2EPKciS2_iPKNS_9ExceptionEi@Base 2.1.0
 _ZN7blocxx617DateTimeExceptionC2ERKS0_@Base 2.1.0
 _ZN7blocxx617DateTimeExceptionD0Ev@Base 2.1.0
 _ZN7blocxx617DateTimeExceptionD1Ev@Base 2.1.0
 _ZN7blocxx617DateTimeExceptionD2Ev@Base 2.1.0
 _ZN7blocxx617DeadlockExceptionC1EPKciS2_iPKNS_9ExceptionEi@Base 2.1.0
 _ZN7blocxx617DeadlockExceptionC1ERKS0_@Base 2.1.0
 _ZN7blocxx617DeadlockExceptionC2EPKciS2_iPKNS_9ExceptionEi@Base 2.1.0
 _ZN7blocxx617DeadlockExceptionC2ERKS0_@Base 2.1.0
 _ZN7blocxx617DeadlockExceptionD0Ev@Base 2.1.0
 _ZN7blocxx617DeadlockExceptionD1Ev@Base 2.1.0
 _ZN7blocxx617DeadlockExceptionD2Ev@Base 2.1.0
 _ZN7blocxx617GenericRWLockImplImNS_8RWLocker14ThreadComparerEE15acquireReadLockEmRKNS_7TimeoutE@Base 2.1.0
 _ZN7blocxx617GenericRWLockImplImNS_8RWLocker14ThreadComparerEE15releaseReadLockEm@Base 2.1.0
 _ZN7blocxx617GenericRWLockImplImNS_8RWLocker14ThreadComparerEE16acquireWriteLockEmRKNS_7TimeoutE@Base 2.1.0
 _ZN7blocxx617GenericRWLockImplImNS_8RWLocker14ThreadComparerEE16releaseWriteLockEm@Base 2.1.0
 _ZN7blocxx617GenericRWLockImplImNS_8RWLocker14ThreadComparerEEC1Ev@Base 2.1.0
 _ZN7blocxx617GenericRWLockImplImNS_8RWLocker14ThreadComparerEEC2Ev@Base 2.1.0
 _ZN7blocxx617GenericRWLockImplImNS_8RWLocker14ThreadComparerEED1Ev@Base 2.1.0
 _ZN7blocxx617GenericRWLockImplImNS_8RWLocker14ThreadComparerEED2Ev@Base 2.1.0
 _ZN7blocxx617IOIFCStreamBuffer14setErrorActionENS_5IOIFC11ErrorActionE@Base 2.1.0
 _ZN7blocxx617IOIFCStreamBuffer16buffer_to_deviceEPKci@Base 2.1.0
 _ZN7blocxx617IOIFCStreamBuffer18buffer_from_deviceEPci@Base 2.1.0
 _ZN7blocxx617IOIFCStreamBuffer3tieEPSt15basic_streambufIcSt11char_traitsIcEE@Base 2.1.0
 _ZN7blocxx617IOIFCStreamBuffer5resetEv@Base 2.1.0
 _ZN7blocxx617IOIFCStreamBufferC1EPNS_5IOIFCENS_16BaseStreamBuffer14EDirectionFlagEi@Base 2.1.0
 _ZN7blocxx617IOIFCStreamBufferC1EPNS_5IOIFCEiPKc@Base 2.1.0
 _ZN7blocxx617IOIFCStreamBufferC2EPNS_5IOIFCENS_16BaseStreamBuffer14EDirectionFlagEi@Base 2.1.0
 _ZN7blocxx617IOIFCStreamBufferC2EPNS_5IOIFCEiPKc@Base 2.1.0
 _ZN7blocxx617IOIFCStreamBufferD0Ev@Base 2.1.0
 _ZN7blocxx617IOIFCStreamBufferD1Ev@Base 2.1.0
 _ZN7blocxx617IOIFCStreamBufferD2Ev@Base 2.1.0
 _ZN7blocxx617IPCMutexExceptionC1EPKciS2_iPKNS_9ExceptionEi@Base 2.1.0
 _ZN7blocxx617IPCMutexExceptionC1ERKS0_@Base 2.1.0
 _ZN7blocxx617IPCMutexExceptionC2EPKciS2_iPKNS_9ExceptionEi@Base 2.1.0
 _ZN7blocxx617IPCMutexExceptionC2ERKS0_@Base 2.1.0
 _ZN7blocxx617IPCMutexExceptionD0Ev@Base 2.1.0
 _ZN7blocxx617IPCMutexExceptionD1Ev@Base 2.1.0
 _ZN7blocxx617IPCMutexExceptionD2Ev@Base 2.1.0
 _ZN7blocxx617IStringStreamBaseC1ERKNS_6StringE@Base 2.1.0
 _ZN7blocxx617IStringStreamBaseC2ERKNS_6StringE@Base 2.1.0
 _ZN7blocxx617IStringStreamBaseD1Ev@Base 2.1.0
 _ZN7blocxx617IStringStreamBaseD2Ev@Base 2.1.0
 _ZN7blocxx617NonRecursiveMutex16conditionPreWaitERNS_26NonRecursiveMutexLockStateE@Base 2.1.0
 _ZN7blocxx617NonRecursiveMutex17conditionPostWaitERNS_26NonRecursiveMutexLockStateE@Base 2.1.0
 _ZN7blocxx617NonRecursiveMutex7acquireEv@Base 2.1.0
 _ZN7blocxx617NonRecursiveMutex7releaseEv@Base 2.1.0
 _ZN7blocxx617NonRecursiveMutexC1Ev@Base 2.1.0
 _ZN7blocxx617NonRecursiveMutexC2Ev@Base 2.1.0
 _ZN7blocxx617NonRecursiveMutexD1Ev@Base 2.1.0
 _ZN7blocxx617NonRecursiveMutexD2Ev@Base 2.1.0
 _ZN7blocxx617OStringStreamBaseC1Em@Base 2.1.0
 _ZN7blocxx617OStringStreamBaseC2Em@Base 2.1.0
 _ZN7blocxx617OStringStreamBaseD1Ev@Base 2.1.0
 _ZN7blocxx617OStringStreamBaseD2Ev@Base 2.1.0
 _ZN7blocxx617RWLockerExceptionC1EPKciS2_iPKNS_9ExceptionEi@Base 2.1.0
 _ZN7blocxx617RWLockerExceptionC1ERKS0_@Base 2.1.0
 _ZN7blocxx617RWLockerExceptionC2EPKciS2_iPKNS_9ExceptionEi@Base 2.1.0
 _ZN7blocxx617RWLockerExceptionC2ERKS0_@Base 2.1.0
 _ZN7blocxx617RWLockerExceptionD0Ev@Base 2.1.0
 _ZN7blocxx617RWLockerExceptionD1Ev@Base 2.1.0
 _ZN7blocxx617RWLockerExceptionD2Ev@Base 2.1.0
 _ZN7blocxx617ThreadBarrierImpl4waitEv@Base 2.1.0
 _ZN7blocxx617ThreadBarrierImplC1Ej@Base 2.1.0
 _ZN7blocxx617ThreadBarrierImplC2Ej@Base 2.1.0
 _ZN7blocxx617ThreadBarrierImplD0Ev@Base 2.1.0
 _ZN7blocxx617ThreadBarrierImplD1Ev@Base 2.1.0
 _ZN7blocxx617ThreadBarrierImplD2Ev@Base 2.1.0
 _ZN7blocxx617receiveDescriptorEi@Base 2.1.0
 _ZN7blocxx617receiveDescriptorEiPcm@Base 2.1.0
 _ZN7blocxx618AssertionExceptionC1EPKciS2_iPKNS_9ExceptionEi@Base 2.1.0
 _ZN7blocxx618AssertionExceptionC1ERKS0_@Base 2.1.0
 _ZN7blocxx618AssertionExceptionC2EPKciS2_iPKNS_9ExceptionEi@Base 2.1.0
 _ZN7blocxx618AssertionExceptionC2ERKS0_@Base 2.1.0
 _ZN7blocxx618AssertionExceptionD0Ev@Base 2.1.0
 _ZN7blocxx618AssertionExceptionD1Ev@Base 2.1.0
 _ZN7blocxx618AssertionExceptionD2Ev@Base 2.1.0
 _ZN7blocxx618ExecErrorExceptionC1EPKciS2_iPKNS_9ExceptionEi@Base 2.1.0
 _ZN7blocxx618ExecErrorExceptionC1ERKS0_@Base 2.1.0
 _ZN7blocxx618ExecErrorExceptionC2EPKciS2_iPKNS_9ExceptionEi@Base 2.1.0
 _ZN7blocxx618ExecErrorExceptionC2ERKS0_@Base 2.1.0
 _ZN7blocxx618ExecErrorExceptionD0Ev@Base 2.1.0
 _ZN7blocxx618ExecErrorExceptionD1Ev@Base 2.1.0
 _ZN7blocxx618ExecErrorExceptionD2Ev@Base 2.1.0
 _ZN7blocxx618GlobalMutexFactory6createEi@Base 2.1.0
 _ZN7blocxx618IntrusiveReferenceINS_11LogAppenderEE4swapERS2_@Base 2.1.0
 _ZN7blocxx618IntrusiveReferenceINS_11LogAppenderEEC1EPS1_b@Base 2.1.0
 _ZN7blocxx618IntrusiveReferenceINS_11LogAppenderEEC1ERKS2_@Base 2.1.0
 _ZN7blocxx618IntrusiveReferenceINS_11LogAppenderEEC1Ev@Base 2.1.0
 _ZN7blocxx618IntrusiveReferenceINS_11LogAppenderEEC2EPS1_b@Base 2.1.0
 _ZN7blocxx618IntrusiveReferenceINS_11LogAppenderEEC2ERKS2_@Base 2.1.0
 _ZN7blocxx618IntrusiveReferenceINS_11LogAppenderEEC2Ev@Base 2.1.0
 _ZN7blocxx618IntrusiveReferenceINS_11LogAppenderEED1Ev@Base 2.1.0
 _ZN7blocxx618IntrusiveReferenceINS_11LogAppenderEED2Ev@Base 2.1.0
 _ZN7blocxx618IntrusiveReferenceINS_11LogAppenderEEaSEPS1_@Base 2.1.0
 _ZN7blocxx618IntrusiveReferenceINS_11LogAppenderEEaSERKS2_@Base 2.1.0
 _ZN7blocxx618IntrusiveReferenceINS_11ProcessImplEEC1EPS1_b@Base 2.1.0
 _ZN7blocxx618IntrusiveReferenceINS_11ProcessImplEEC1ERKS2_@Base 2.1.0
 _ZN7blocxx618IntrusiveReferenceINS_11ProcessImplEEC2EPS1_b@Base 2.1.0
 _ZN7blocxx618IntrusiveReferenceINS_11ProcessImplEEC2ERKS2_@Base 2.1.0
 _ZN7blocxx618IntrusiveReferenceINS_11ProcessImplEED1Ev@Base 2.1.0
 _ZN7blocxx618IntrusiveReferenceINS_11ProcessImplEED2Ev@Base 2.1.0
 _ZN7blocxx618IntrusiveReferenceINS_11UnnamedPipeEE4swapERS2_@Base 2.1.0
 _ZN7blocxx618IntrusiveReferenceINS_11UnnamedPipeEEC1EPS1_b@Base 2.1.0
 _ZN7blocxx618IntrusiveReferenceINS_11UnnamedPipeEEC1ERKS2_@Base 2.1.0
 _ZN7blocxx618IntrusiveReferenceINS_11UnnamedPipeEEC1Ev@Base 2.1.0
 _ZN7blocxx618IntrusiveReferenceINS_11UnnamedPipeEEC2EPS1_b@Base 2.1.0
 _ZN7blocxx618IntrusiveReferenceINS_11UnnamedPipeEEC2ERKS2_@Base 2.1.0
 _ZN7blocxx618IntrusiveReferenceINS_11UnnamedPipeEEC2Ev@Base 2.1.0
 _ZN7blocxx618IntrusiveReferenceINS_11UnnamedPipeEED1Ev@Base 2.1.0
 _ZN7blocxx618IntrusiveReferenceINS_11UnnamedPipeEED2Ev@Base 2.1.0
 _ZN7blocxx618IntrusiveReferenceINS_11UnnamedPipeEEaSEPS1_@Base 2.1.0
 _ZN7blocxx618IntrusiveReferenceINS_11UnnamedPipeEEaSERKS2_@Base 2.1.0
 _ZN7blocxx618IntrusiveReferenceINS_12SSLClientCtxEEC1ERKS2_@Base 2.1.0
 _ZN7blocxx618IntrusiveReferenceINS_12SSLClientCtxEEC1Ev@Base 2.1.0
 _ZN7blocxx618IntrusiveReferenceINS_12SSLClientCtxEEC2ERKS2_@Base 2.1.0
 _ZN7blocxx618IntrusiveReferenceINS_12SSLClientCtxEEC2Ev@Base 2.1.0
 _ZN7blocxx618IntrusiveReferenceINS_12SSLClientCtxEED1Ev@Base 2.1.0
 _ZN7blocxx618IntrusiveReferenceINS_12SSLClientCtxEED2Ev@Base 2.1.0
 _ZN7blocxx618IntrusiveReferenceINS_12SSLServerCtxEEC1ERKS2_@Base 2.1.0
 _ZN7blocxx618IntrusiveReferenceINS_12SSLServerCtxEEC1Ev@Base 2.1.0
 _ZN7blocxx618IntrusiveReferenceINS_12SSLServerCtxEEC2ERKS2_@Base 2.1.0
 _ZN7blocxx618IntrusiveReferenceINS_12SSLServerCtxEEC2Ev@Base 2.1.0
 _ZN7blocxx618IntrusiveReferenceINS_12SSLServerCtxEED1Ev@Base 2.1.0
 _ZN7blocxx618IntrusiveReferenceINS_12SSLServerCtxEED2Ev@Base 2.1.0
 _ZN7blocxx618IntrusiveReferenceINS_13MultiAppenderEEC1EPS1_b@Base 2.1.0
 _ZN7blocxx618IntrusiveReferenceINS_13MultiAppenderEEC2EPS1_b@Base 2.1.0
 _ZN7blocxx618IntrusiveReferenceINS_13MultiAppenderEED1Ev@Base 2.1.0
 _ZN7blocxx618IntrusiveReferenceINS_13MultiAppenderEED2Ev@Base 2.1.0
 _ZN7blocxx618IntrusiveReferenceINS_13SSLSocketImplEEC1EPS1_b@Base 2.1.0
 _ZN7blocxx618IntrusiveReferenceINS_13SSLSocketImplEEC2EPS1_b@Base 2.1.0
 _ZN7blocxx618IntrusiveReferenceINS_13SSLSocketImplEED1Ev@Base 2.1.0
 _ZN7blocxx618IntrusiveReferenceINS_13SSLSocketImplEED2Ev@Base 2.1.0
 _ZN7blocxx618IntrusiveReferenceINS_13SharedLibraryEEC1EPS1_b@Base 2.1.0
 _ZN7blocxx618IntrusiveReferenceINS_13SharedLibraryEEC2EPS1_b@Base 2.1.0
 _ZN7blocxx618IntrusiveReferenceINS_13ThreadCounterEEC1ERKS2_@Base 2.1.0
 _ZN7blocxx618IntrusiveReferenceINS_13ThreadCounterEEC2ERKS2_@Base 2.1.0
 _ZN7blocxx618IntrusiveReferenceINS_13ThreadCounterEED1Ev@Base 2.1.0
 _ZN7blocxx618IntrusiveReferenceINS_13ThreadCounterEED2Ev@Base 2.1.0
 _ZN7blocxx618IntrusiveReferenceINS_14SocketBaseImplEE4swapERS2_@Base 2.1.0
 _ZN7blocxx618IntrusiveReferenceINS_14SocketBaseImplEEC1EPS1_b@Base 2.1.0
 _ZN7blocxx618IntrusiveReferenceINS_14SocketBaseImplEEC1ERKS2_@Base 2.1.0
 _ZN7blocxx618IntrusiveReferenceINS_14SocketBaseImplEEC1Ev@Base 2.1.0
 _ZN7blocxx618IntrusiveReferenceINS_14SocketBaseImplEEC2EPS1_b@Base 2.1.0
 _ZN7blocxx618IntrusiveReferenceINS_14SocketBaseImplEEC2ERKS2_@Base 2.1.0
 _ZN7blocxx618IntrusiveReferenceINS_14SocketBaseImplEEC2Ev@Base 2.1.0
 _ZN7blocxx618IntrusiveReferenceINS_14SocketBaseImplEED1Ev@Base 2.1.0
 _ZN7blocxx618IntrusiveReferenceINS_14SocketBaseImplEED2Ev@Base 2.1.0
 _ZN7blocxx618IntrusiveReferenceINS_14SocketBaseImplEEaSERKS2_@Base 2.1.0
 _ZN7blocxx618IntrusiveReferenceINS_14ThreadPoolImplEE4swapERS2_@Base 2.1.0
 _ZN7blocxx618IntrusiveReferenceINS_14ThreadPoolImplEEC1EPS1_b@Base 2.1.0
 _ZN7blocxx618IntrusiveReferenceINS_14ThreadPoolImplEEC1ERKS2_@Base 2.1.0
 _ZN7blocxx618IntrusiveReferenceINS_14ThreadPoolImplEEC1Ev@Base 2.1.0
 _ZN7blocxx618IntrusiveReferenceINS_14ThreadPoolImplEEC2EPS1_b@Base 2.1.0
 _ZN7blocxx618IntrusiveReferenceINS_14ThreadPoolImplEEC2ERKS2_@Base 2.1.0
 _ZN7blocxx618IntrusiveReferenceINS_14ThreadPoolImplEEC2Ev@Base 2.1.0
 _ZN7blocxx618IntrusiveReferenceINS_14ThreadPoolImplEED1Ev@Base 2.1.0
 _ZN7blocxx618IntrusiveReferenceINS_14ThreadPoolImplEED2Ev@Base 2.1.0
 _ZN7blocxx618IntrusiveReferenceINS_14ThreadPoolImplEEaSEPS1_@Base 2.1.0
 _ZN7blocxx618IntrusiveReferenceINS_14ThreadPoolImplEEaSERKS2_@Base 2.1.0
 _ZN7blocxx618IntrusiveReferenceINS_16PosixUnnamedPipeEE4swapERS2_@Base 2.1.0
 _ZN7blocxx618IntrusiveReferenceINS_16PosixUnnamedPipeEEC1EPS1_b@Base 2.1.0
 _ZN7blocxx618IntrusiveReferenceINS_16PosixUnnamedPipeEEC1ERKS2_@Base 2.1.0
 _ZN7blocxx618IntrusiveReferenceINS_16PosixUnnamedPipeEEC1Ev@Base 2.1.0
 _ZN7blocxx618IntrusiveReferenceINS_16PosixUnnamedPipeEEC2EPS1_b@Base 2.1.0
 _ZN7blocxx618IntrusiveReferenceINS_16PosixUnnamedPipeEEC2ERKS2_@Base 2.1.0
 _ZN7blocxx618IntrusiveReferenceINS_16PosixUnnamedPipeEEC2Ev@Base 2.1.0
 _ZN7blocxx618IntrusiveReferenceINS_16PosixUnnamedPipeEED1Ev@Base 2.1.0
 _ZN7blocxx618IntrusiveReferenceINS_16PosixUnnamedPipeEED2Ev@Base 2.1.0
 _ZN7blocxx618IntrusiveReferenceINS_16PosixUnnamedPipeEEaSERKS2_@Base 2.1.0
 _ZN7blocxx618IntrusiveReferenceINS_16ServerSocketImplEEC1EPS1_b@Base 2.1.0
 _ZN7blocxx618IntrusiveReferenceINS_16ServerSocketImplEEC1ERKS2_@Base 2.1.0
 _ZN7blocxx618IntrusiveReferenceINS_16ServerSocketImplEEC2EPS1_b@Base 2.1.0
 _ZN7blocxx618IntrusiveReferenceINS_16ServerSocketImplEEC2ERKS2_@Base 2.1.0
 _ZN7blocxx618IntrusiveReferenceINS_16ServerSocketImplEED1Ev@Base 2.1.0
 _ZN7blocxx618IntrusiveReferenceINS_16ServerSocketImplEED2Ev@Base 2.1.0
 _ZN7blocxx618IntrusiveReferenceINS_17ThreadBarrierImplEE4swapERS2_@Base 2.1.0
 _ZN7blocxx618IntrusiveReferenceINS_17ThreadBarrierImplEEC1EPS1_b@Base 2.1.0
 _ZN7blocxx618IntrusiveReferenceINS_17ThreadBarrierImplEEC1ERKS2_@Base 2.1.0
 _ZN7blocxx618IntrusiveReferenceINS_17ThreadBarrierImplEEC2EPS1_b@Base 2.1.0
 _ZN7blocxx618IntrusiveReferenceINS_17ThreadBarrierImplEEC2ERKS2_@Base 2.1.0
 _ZN7blocxx618IntrusiveReferenceINS_17ThreadBarrierImplEED1Ev@Base 2.1.0
 _ZN7blocxx618IntrusiveReferenceINS_17ThreadBarrierImplEED2Ev@Base 2.1.0
 _ZN7blocxx618IntrusiveReferenceINS_17ThreadBarrierImplEEaSERKS2_@Base 2.1.0
 _ZN7blocxx618IntrusiveReferenceINS_18ThreadDoneCallbackEEC1EPS1_b@Base 2.1.0
 _ZN7blocxx618IntrusiveReferenceINS_18ThreadDoneCallbackEEC1ERKS2_@Base 2.1.0
 _ZN7blocxx618IntrusiveReferenceINS_18ThreadDoneCallbackEEC2EPS1_b@Base 2.1.0
 _ZN7blocxx618IntrusiveReferenceINS_18ThreadDoneCallbackEEC2ERKS2_@Base 2.1.0
 _ZN7blocxx618IntrusiveReferenceINS_18ThreadDoneCallbackEED1Ev@Base 2.1.0
 _ZN7blocxx618IntrusiveReferenceINS_18ThreadDoneCallbackEED2Ev@Base 2.1.0
 _ZN7blocxx618IntrusiveReferenceINS_19SharedLibraryLoaderEEC1EPS1_b@Base 2.1.0
 _ZN7blocxx618IntrusiveReferenceINS_19SharedLibraryLoaderEEC2EPS1_b@Base 2.1.0
 _ZN7blocxx618IntrusiveReferenceINS_21SelectableCallbackIFCEE4swapERS2_@Base 2.1.0
 _ZN7blocxx618IntrusiveReferenceINS_21SelectableCallbackIFCEEC1ERKS2_@Base 2.1.0
 _ZN7blocxx618IntrusiveReferenceINS_21SelectableCallbackIFCEEC2ERKS2_@Base 2.1.0
 _ZN7blocxx618IntrusiveReferenceINS_21SelectableCallbackIFCEED1Ev@Base 2.1.0
 _ZN7blocxx618IntrusiveReferenceINS_21SelectableCallbackIFCEED2Ev@Base 2.1.0
 _ZN7blocxx618IntrusiveReferenceINS_21SelectableCallbackIFCEEaSERKS2_@Base 2.1.0
 _ZN7blocxx618IntrusiveReferenceINS_26LogMessagePatternFormatter9ConverterEE4swapERS3_@Base 2.1.0
 _ZN7blocxx618IntrusiveReferenceINS_26LogMessagePatternFormatter9ConverterEEC1EPS2_b@Base 2.1.0
 _ZN7blocxx618IntrusiveReferenceINS_26LogMessagePatternFormatter9ConverterEEC1ERKS3_@Base 2.1.0
 _ZN7blocxx618IntrusiveReferenceINS_26LogMessagePatternFormatter9ConverterEEC1Ev@Base 2.1.0
 _ZN7blocxx618IntrusiveReferenceINS_26LogMessagePatternFormatter9ConverterEEC2EPS2_b@Base 2.1.0
 _ZN7blocxx618IntrusiveReferenceINS_26LogMessagePatternFormatter9ConverterEEC2ERKS3_@Base 2.1.0
 _ZN7blocxx618IntrusiveReferenceINS_26LogMessagePatternFormatter9ConverterEEC2Ev@Base 2.1.0
 _ZN7blocxx618IntrusiveReferenceINS_26LogMessagePatternFormatter9ConverterEED1Ev@Base 2.1.0
 _ZN7blocxx618IntrusiveReferenceINS_26LogMessagePatternFormatter9ConverterEED2Ev@Base 2.1.0
 _ZN7blocxx618IntrusiveReferenceINS_26LogMessagePatternFormatter9ConverterEEaSEPS2_@Base 2.1.0
 _ZN7blocxx618IntrusiveReferenceINS_26LogMessagePatternFormatter9ConverterEEaSERKS3_@Base 2.1.0
 _ZN7blocxx618IntrusiveReferenceINS_6LoggerEEC1EPS1_b@Base 2.1.0
 _ZN7blocxx618IntrusiveReferenceINS_6LoggerEEC2EPS1_b@Base 2.1.0
 _ZN7blocxx618IntrusiveReferenceINS_6ThreadEE4swapERS2_@Base 2.1.0
 _ZN7blocxx618IntrusiveReferenceINS_6ThreadEEC1EPS1_b@Base 2.1.0
 _ZN7blocxx618IntrusiveReferenceINS_6ThreadEEC1ERKS2_@Base 2.1.0
 _ZN7blocxx618IntrusiveReferenceINS_6ThreadEEC1Ev@Base 2.1.0
 _ZN7blocxx618IntrusiveReferenceINS_6ThreadEEC2EPS1_b@Base 2.1.0
 _ZN7blocxx618IntrusiveReferenceINS_6ThreadEEC2ERKS2_@Base 2.1.0
 _ZN7blocxx618IntrusiveReferenceINS_6ThreadEEC2Ev@Base 2.1.0
 _ZN7blocxx618IntrusiveReferenceINS_6ThreadEED1Ev@Base 2.1.0
 _ZN7blocxx618IntrusiveReferenceINS_6ThreadEED2Ev@Base 2.1.0
 _ZN7blocxx618IntrusiveReferenceINS_6ThreadEEaSERKS2_@Base 2.1.0
 _ZN7blocxx618IntrusiveReferenceINS_7ProcessEE4swapERS2_@Base 2.1.0
 _ZN7blocxx618IntrusiveReferenceINS_7ProcessEEC1EPS1_b@Base 2.1.0
 _ZN7blocxx618IntrusiveReferenceINS_7ProcessEEC1ERKS2_@Base 2.1.0
 _ZN7blocxx618IntrusiveReferenceINS_7ProcessEEC1Ev@Base 2.1.0
 _ZN7blocxx618IntrusiveReferenceINS_7ProcessEEC2EPS1_b@Base 2.1.0
 _ZN7blocxx618IntrusiveReferenceINS_7ProcessEEC2ERKS2_@Base 2.1.0
 _ZN7blocxx618IntrusiveReferenceINS_7ProcessEEC2Ev@Base 2.1.0
 _ZN7blocxx618IntrusiveReferenceINS_7ProcessEED1Ev@Base 2.1.0
 _ZN7blocxx618IntrusiveReferenceINS_7ProcessEED2Ev@Base 2.1.0
 _ZN7blocxx618IntrusiveReferenceINS_7ProcessEEaSERKS2_@Base 2.1.0
 _ZN7blocxx618IntrusiveReferenceINS_8RunnableEE4swapERS2_@Base 2.1.0
 _ZN7blocxx618IntrusiveReferenceINS_8RunnableEEC1EPS1_b@Base 2.1.0
 _ZN7blocxx618IntrusiveReferenceINS_8RunnableEEC1ERKS2_@Base 2.1.0
 _ZN7blocxx618IntrusiveReferenceINS_8RunnableEEC1Ev@Base 2.1.0
 _ZN7blocxx618IntrusiveReferenceINS_8RunnableEEC2EPS1_b@Base 2.1.0
 _ZN7blocxx618IntrusiveReferenceINS_8RunnableEEC2ERKS2_@Base 2.1.0
 _ZN7blocxx618IntrusiveReferenceINS_8RunnableEEC2Ev@Base 2.1.0
 _ZN7blocxx618IntrusiveReferenceINS_8RunnableEED1Ev@Base 2.1.0
 _ZN7blocxx618IntrusiveReferenceINS_8RunnableEED2Ev@Base 2.1.0
 _ZN7blocxx618IntrusiveReferenceINS_8RunnableEEaSEPS1_@Base 2.1.0
 _ZN7blocxx618IntrusiveReferenceINS_8RunnableEEaSERKS2_@Base 2.1.0
 _ZN7blocxx618NULLValueExceptionC1EPKciS2_iPKNS_9ExceptionEi@Base 2.1.0
 _ZN7blocxx618NULLValueExceptionC1ERKS0_@Base 2.1.0
 _ZN7blocxx618NULLValueExceptionC2EPKciS2_iPKNS_9ExceptionEi@Base 2.1.0
 _ZN7blocxx618NULLValueExceptionC2ERKS0_@Base 2.1.0
 _ZN7blocxx618NULLValueExceptionD0Ev@Base 2.1.0
 _ZN7blocxx618NULLValueExceptionD1Ev@Base 2.1.0
 _ZN7blocxx618NULLValueExceptionD2Ev@Base 2.1.0
 _ZN7blocxx618SocketStreamBufferC1EPNS_14SocketBaseImplE@Base 2.1.0
 _ZN7blocxx618SocketStreamBufferC2EPNS_14SocketBaseImplE@Base 2.1.0
 _ZN7blocxx618SocketStreamBufferD0Ev@Base 2.1.0
 _ZN7blocxx618SocketStreamBufferD1Ev@Base 2.1.0
 _ZN7blocxx618SocketStreamBufferD2Ev@Base 2.1.0
 _ZN7blocxx618ThreadDoneCallback16notifyThreadDoneEPNS_6ThreadE@Base 2.1.0
 _ZN7blocxx618ThreadDoneCallbackC1Ev@Base 2.1.0
 _ZN7blocxx618ThreadDoneCallbackC2Ev@Base 2.1.0
 _ZN7blocxx618ThreadDoneCallbackD0Ev@Base 2.1.0
 _ZN7blocxx618ThreadDoneCallbackD1Ev@Base 2.1.0
 _ZN7blocxx618ThreadDoneCallbackD2Ev@Base 2.1.0
 _ZN7blocxx619BinarySerialization10writeArrayINS_5ArrayINS_6StringEEEEEvRSt15basic_streambufIcSt11char_traitsIcEERKT_@Base 2.1.0
 _ZN7blocxx619BinarySerialization15verifySignatureERSt15basic_streambufIcSt11char_traitsIcEEh@Base 2.1.0
 _ZN7blocxx619BinarySerialization16writeStringArrayERSt15basic_streambufIcSt11char_traitsIcEEPKNS_5ArrayINS_6StringEEE@Base 2.1.0
 _ZN7blocxx619BinarySerialization16writeStringArrayERSt15basic_streambufIcSt11char_traitsIcEERKNS_5ArrayINS_6StringEEE@Base 2.1.0
 _ZN7blocxx619BinarySerialization4readERSt15basic_streambufIcSt11char_traitsIcEEPvm@Base 2.1.0
 _ZN7blocxx619BinarySerialization4readERSt15basic_streambufIcSt11char_traitsIcEERh@Base 2.1.0
 _ZN7blocxx619BinarySerialization4readERSt15basic_streambufIcSt11char_traitsIcEERt@Base 2.1.0
 _ZN7blocxx619BinarySerialization5writeERSt15basic_streambufIcSt11char_traitsIcEEPKvm@Base 2.1.0
 _ZN7blocxx619BinarySerialization5writeERSt15basic_streambufIcSt11char_traitsIcEEh@Base 2.1.0
 _ZN7blocxx619BinarySerialization5writeERSt15basic_streambufIcSt11char_traitsIcEEt@Base 2.1.0
 _ZN7blocxx619BinarySerialization7readLenERSt15basic_streambufIcSt11char_traitsIcEERj@Base 2.1.0
 _ZN7blocxx619BinarySerialization8writeLenERSt15basic_streambufIcSt11char_traitsIcEEj@Base 2.1.0
 _ZN7blocxx619BinarySerialization9writeBoolERSt15basic_streambufIcSt11char_traitsIcEENS_4BoolE@Base 2.1.0
 _ZN7blocxx619FileSystemExceptionC1EPKciS2_iPKNS_9ExceptionEi@Base 2.1.0
 _ZN7blocxx619FileSystemExceptionC1ERKS0_@Base 2.1.0
 _ZN7blocxx619FileSystemExceptionC2EPKciS2_iPKNS_9ExceptionEi@Base 2.1.0
 _ZN7blocxx619FileSystemExceptionC2ERKS0_@Base 2.1.0
 _ZN7blocxx619FileSystemExceptionD0Ev@Base 2.1.0
 _ZN7blocxx619FileSystemExceptionD1Ev@Base 2.1.0
 _ZN7blocxx619FileSystemExceptionD2Ev@Base 2.1.0
 _ZN7blocxx619SecureRandExceptionC1EPKciS2_iPKNS_9ExceptionEi@Base 2.1.0
 _ZN7blocxx619SecureRandExceptionC1ERKS0_@Base 2.1.0
 _ZN7blocxx619SecureRandExceptionC2EPKciS2_iPKNS_9ExceptionEi@Base 2.1.0
 _ZN7blocxx619SecureRandExceptionC2ERKS0_@Base 2.1.0
 _ZN7blocxx619SecureRandExceptionD0Ev@Base 2.1.0
 _ZN7blocxx619SecureRandExceptionD1Ev@Base 2.1.0
 _ZN7blocxx619SecureRandExceptionD2Ev@Base 2.1.0
 _ZN7blocxx619SelectEngineStopper10doSelectedERiNS_21SelectableCallbackIFC10EEventTypeE@Base 2.1.0
 _ZN7blocxx619SelectEngineStopperC1ERNS_12SelectEngineE@Base 2.1.0
 _ZN7blocxx619SelectEngineStopperC2ERNS_12SelectEngineE@Base 2.1.0
 _ZN7blocxx619SelectEngineStopperD0Ev@Base 2.1.0
 _ZN7blocxx619SelectEngineStopperD1Ev@Base 2.1.0
 _ZN7blocxx619SharedLibraryLoader25createSharedLibraryLoaderEv@Base 2.1.0
 _ZN7blocxx619SharedLibraryLoaderC1Ev@Base 2.1.0
 _ZN7blocxx619SharedLibraryLoaderC2Ev@Base 2.1.0
 _ZN7blocxx619SharedLibraryLoaderD0Ev@Base 2.1.0
 _ZN7blocxx619SharedLibraryLoaderD1Ev@Base 2.1.0
 _ZN7blocxx619SharedLibraryLoaderD2Ev@Base 2.1.0
 _ZN7blocxx619ThreadPoolExceptionC1EPKciS2_iPKNS_9ExceptionEi@Base 2.1.0
 _ZN7blocxx619ThreadPoolExceptionC1ERKS0_@Base 2.1.0
 _ZN7blocxx619ThreadPoolExceptionC2EPKciS2_iPKNS_9ExceptionEi@Base 2.1.0
 _ZN7blocxx619ThreadPoolExceptionC2ERKS0_@Base 2.1.0
 _ZN7blocxx619ThreadPoolExceptionD0Ev@Base 2.1.0
 _ZN7blocxx619ThreadPoolExceptionD1Ev@Base 2.1.0
 _ZN7blocxx619ThreadPoolExceptionD2Ev@Base 2.1.0
 _ZN7blocxx620AutoDescriptorPolicy4freeEi@Base 2.1.0
 _ZN7blocxx620AutoDescriptorPolicy4nullEv@Base 2.1.0
 _ZN7blocxx620AutoDescriptorPolicy5equalEii@Base 2.1.0
 _ZN7blocxx620EnumerationExceptionC1EPKciS2_iPKNS_9ExceptionEi@Base 2.1.0
 _ZN7blocxx620EnumerationExceptionC1ERKS0_@Base 2.1.0
 _ZN7blocxx620EnumerationExceptionC2EPKciS2_iPKNS_9ExceptionEi@Base 2.1.0
 _ZN7blocxx620EnumerationExceptionC2ERKS0_@Base 2.1.0
 _ZN7blocxx620EnumerationExceptionD0Ev@Base 2.1.0
 _ZN7blocxx620EnumerationExceptionD1Ev@Base 2.1.0
 _ZN7blocxx620EnumerationExceptionD2Ev@Base 2.1.0
 _ZN7blocxx620ExecTimeoutExceptionC1EPKciS2_iPKNS_9ExceptionEi@Base 2.1.0
 _ZN7blocxx620ExecTimeoutExceptionC1ERKS0_@Base 2.1.0
 _ZN7blocxx620ExecTimeoutExceptionC2EPKciS2_iPKNS_9ExceptionEi@Base 2.1.0
 _ZN7blocxx620ExecTimeoutExceptionC2ERKS0_@Base 2.1.0
 _ZN7blocxx620ExecTimeoutExceptionD0Ev@Base 2.1.0
 _ZN7blocxx620ExecTimeoutExceptionD1Ev@Base 2.1.0
 _ZN7blocxx620ExecTimeoutExceptionD2Ev@Base 2.1.0
 _ZN7blocxx620FileSystemMockObject10createFileERKNS_6StringE@Base 2.1.0
 _ZN7blocxx620FileSystemMockObject10removeFileERKNS_6StringE@Base 2.1.0
 _ZN7blocxx620FileSystemMockObject10renameFileERKNS_6StringES3_@Base 2.1.0
 _ZN7blocxx620FileSystemMockObject11getFileSizeERKNS_6StringERl@Base 2.1.0
 _ZN7blocxx620FileSystemMockObject11isDirectoryERKNS_6StringE@Base 2.1.0
 _ZN7blocxx620FileSystemMockObject12getFileLinesERKNS_6StringE@Base 2.1.0
 _ZN7blocxx620FileSystemMockObject12isExecutableERKNS_6StringE@Base 2.1.0
 _ZN7blocxx620FileSystemMockObject13makeDirectoryERKNS_6StringEi@Base 2.1.0
 _ZN7blocxx620FileSystemMockObject14createTempFileERKNS_6StringE@Base 2.1.0
 _ZN7blocxx620FileSystemMockObject14createTempFileERNS_6StringERKS1_@Base 2.1.0
 _ZN7blocxx620FileSystemMockObject15changeDirectoryERKNS_6StringE@Base 2.1.0
 _ZN7blocxx620FileSystemMockObject15changeFileOwnerERKNS_6StringERKj@Base 2.1.0
 _ZN7blocxx620FileSystemMockObject15getFileContentsERKNS_6StringE@Base 2.1.0
 _ZN7blocxx620FileSystemMockObject15removeDirectoryERKNS_6StringE@Base 2.1.0
 _ZN7blocxx620FileSystemMockObject16openOrCreateFileERKNS_6StringE@Base 2.1.0
 _ZN7blocxx620FileSystemMockObject16readSymbolicLinkERKNS_6StringE@Base 2.1.0
 _ZN7blocxx620FileSystemMockObject20getDirectoryContentsERKNS_6StringERNS_5ArrayIS1_EE@Base 2.1.0
 _ZN7blocxx620FileSystemMockObject25openForAppendOrCreateFileERKNS_6StringE@Base 2.1.0
 _ZN7blocxx620FileSystemMockObject26getCurrentWorkingDirectoryEv@Base 2.1.0
 _ZN7blocxx620FileSystemMockObject4readERKiPvml@Base 2.1.0
 _ZN7blocxx620FileSystemMockObject4seekERKili@Base 2.1.0
 _ZN7blocxx620FileSystemMockObject4tellERKi@Base 2.1.0
 _ZN7blocxx620FileSystemMockObject5closeERKi@Base 2.1.0
 _ZN7blocxx620FileSystemMockObject5flushERi@Base 2.1.0
 _ZN7blocxx620FileSystemMockObject5writeEiPKvml@Base 2.1.0
 _ZN7blocxx620FileSystemMockObject6existsERKNS_6StringE@Base 2.1.0
 _ZN7blocxx620FileSystemMockObject6isLinkERKNS_6StringE@Base 2.1.0
 _ZN7blocxx620FileSystemMockObject6rewindERKi@Base 2.1.0
 _ZN7blocxx620FileSystemMockObject7canReadERKNS_6StringE@Base 2.1.0
 _ZN7blocxx620FileSystemMockObject7dirnameERKNS_6StringE@Base 2.1.0
 _ZN7blocxx620FileSystemMockObject8basenameERKNS_6StringE@Base 2.1.0
 _ZN7blocxx620FileSystemMockObject8canWriteERKNS_6StringE@Base 2.1.0
 _ZN7blocxx620FileSystemMockObject8fileSizeEi@Base 2.1.0
 _ZN7blocxx620FileSystemMockObject8openFileERKNS_6StringE@Base 2.1.0
 _ZN7blocxx620FileSystemMockObject8realPathERKNS_6StringE@Base 2.1.0
 _ZN7blocxx620FileSystemMockObject8securityERKNS_6StringE@Base 2.1.0
 _ZN7blocxx620FileSystemMockObject8securityERKNS_6StringES3_@Base 2.1.0
 _ZN7blocxx620FileSystemMockObject8securityERKNS_6StringES3_j@Base 2.1.0
 _ZN7blocxx620FileSystemMockObject8securityERKNS_6StringEj@Base 2.1.0
 _ZN7blocxx620FileSystemMockObjectD0Ev@Base 2.1.0
 _ZN7blocxx620FileSystemMockObjectD1Ev@Base 2.1.0
 _ZN7blocxx620FileSystemMockObjectD2Ev@Base 2.1.0
 _ZN7blocxx620InvalidUTF8ExceptionC1EPKciS2_iPKNS_9ExceptionEi@Base 2.1.0
 _ZN7blocxx620InvalidUTF8ExceptionC1ERKS0_@Base 2.1.0
 _ZN7blocxx620InvalidUTF8ExceptionC2EPKciS2_iPKNS_9ExceptionEi@Base 2.1.0
 _ZN7blocxx620InvalidUTF8ExceptionC2ERKS0_@Base 2.1.0
 _ZN7blocxx620InvalidUTF8ExceptionD0Ev@Base 2.1.0
 _ZN7blocxx620InvalidUTF8ExceptionD1Ev@Base 2.1.0
 _ZN7blocxx620InvalidUTF8ExceptionD2Ev@Base 2.1.0
 _ZN7blocxx620OutOfBoundsExceptionC1EPKciS2_iPKNS_9ExceptionEi@Base 2.1.0
 _ZN7blocxx620OutOfBoundsExceptionC1ERKS0_@Base 2.1.0
 _ZN7blocxx620OutOfBoundsExceptionC2EPKciS2_iPKNS_9ExceptionEi@Base 2.1.0
 _ZN7blocxx620OutOfBoundsExceptionC2ERKS0_@Base 2.1.0
 _ZN7blocxx620OutOfBoundsExceptionD0Ev@Base 2.1.0
 _ZN7blocxx620OutOfBoundsExceptionD1Ev@Base 2.1.0
 _ZN7blocxx620OutOfBoundsExceptionD2Ev@Base 2.1.0
 _ZN7blocxx620UnknownHostExceptionC1EPKciS2_iPKNS_9ExceptionEi@Base 2.1.0
 _ZN7blocxx620UnknownHostExceptionC1ERKS0_@Base 2.1.0
 _ZN7blocxx620UnknownHostExceptionC2EPKciS2_iPKNS_9ExceptionEi@Base 2.1.0
 _ZN7blocxx620UnknownHostExceptionC2ERKS0_@Base 2.1.0
 _ZN7blocxx620UnknownHostExceptionD0Ev@Base 2.1.0
 _ZN7blocxx620UnknownHostExceptionD1Ev@Base 2.1.0
 _ZN7blocxx620UnknownHostExceptionD2Ev@Base 2.1.0
 _ZN7blocxx620UnnamedPipeExceptionC1EPKciS2_iPKNS_9ExceptionEi@Base 2.1.0
 _ZN7blocxx620UnnamedPipeExceptionC1ERKS0_@Base 2.1.0
 _ZN7blocxx620UnnamedPipeExceptionC2EPKciS2_iPKNS_9ExceptionEi@Base 2.1.0
 _ZN7blocxx620UnnamedPipeExceptionC2ERKS0_@Base 2.1.0
 _ZN7blocxx620UnnamedPipeExceptionD0Ev@Base 2.1.0
 _ZN7blocxx620UnnamedPipeExceptionD1Ev@Base 2.1.0
 _ZN7blocxx620UnnamedPipeExceptionD2Ev@Base 2.1.0
 _ZN7blocxx621BadSignatureExceptionC1EPKciS2_iPKNS_9ExceptionEi@Base 2.1.0
 _ZN7blocxx621BadSignatureExceptionC1ERKS0_@Base 2.1.0
 _ZN7blocxx621BadSignatureExceptionC2EPKciS2_iPKNS_9ExceptionEi@Base 2.1.0
 _ZN7blocxx621BadSignatureExceptionC2ERKS0_@Base 2.1.0
 _ZN7blocxx621BadSignatureExceptionD0Ev@Base 2.1.0
 _ZN7blocxx621BadSignatureExceptionD1Ev@Base 2.1.0
 _ZN7blocxx621BadSignatureExceptionD2Ev@Base 2.1.0
 _ZN7blocxx621COWIntrusiveReferenceINS_6String7ByteBufEE12getWriteLockEv@Base 2.1.0
 _ZN7blocxx621COWIntrusiveReferenceINS_6String7ByteBufEE4swapERS3_@Base 2.1.0
 _ZN7blocxx621COWIntrusiveReferenceINS_6String7ByteBufEEC1EPS2_b@Base 2.1.0
 _ZN7blocxx621COWIntrusiveReferenceINS_6String7ByteBufEEC1ERKS3_@Base 2.1.0
 _ZN7blocxx621COWIntrusiveReferenceINS_6String7ByteBufEEC2EPS2_b@Base 2.1.0
 _ZN7blocxx621COWIntrusiveReferenceINS_6String7ByteBufEEC2ERKS3_@Base 2.1.0
 _ZN7blocxx621COWIntrusiveReferenceINS_6String7ByteBufEED1Ev@Base 2.1.0
 _ZN7blocxx621COWIntrusiveReferenceINS_6String7ByteBufEED2Ev@Base 2.1.0
 _ZN7blocxx621COWIntrusiveReferenceINS_6String7ByteBufEEaSEPS2_@Base 2.1.0
 _ZN7blocxx621COWIntrusiveReferenceINS_6String7ByteBufEEaSERKS3_@Base 2.1.0
 _ZN7blocxx621COWIntrusiveReferenceINS_6String7ByteBufEEptEv@Base 2.1.0
 _ZN7blocxx621NonRecursiveMutexImpl11createMutexERNS_19NonRecursiveMutex_tE@Base 2.1.0
 _ZN7blocxx621NonRecursiveMutexImpl12acquireMutexERNS_19NonRecursiveMutex_tE@Base 2.1.0
 _ZN7blocxx621NonRecursiveMutexImpl12destroyMutexERNS_19NonRecursiveMutex_tE@Base 2.1.0
 _ZN7blocxx621NonRecursiveMutexImpl12releaseMutexERNS_19NonRecursiveMutex_tE@Base 2.1.0
 _ZN7blocxx621NonRecursiveMutexImpl16conditionPreWaitERNS_19NonRecursiveMutex_tERNS_26NonRecursiveMutexLockStateE@Base 2.1.0
 _ZN7blocxx621NonRecursiveMutexImpl17conditionPostWaitERNS_19NonRecursiveMutex_tERNS_26NonRecursiveMutexLockStateE@Base 2.1.0
 _ZN7blocxx621NonRecursiveMutexLock4lockEv@Base 2.1.0
 _ZN7blocxx621NonRecursiveMutexLock7releaseEv@Base 2.1.0
 _ZN7blocxx621NonRecursiveMutexLockC1ERNS_17NonRecursiveMutexEb@Base 2.1.0
 _ZN7blocxx621NonRecursiveMutexLockC2ERNS_17NonRecursiveMutexEb@Base 2.1.0
 _ZN7blocxx621NonRecursiveMutexLockD1Ev@Base 2.1.0
 _ZN7blocxx621NonRecursiveMutexLockD2Ev@Base 2.1.0
 _ZN7blocxx621ProcessErrorExceptionC1EPKciS2_iPKNS_9ExceptionEi@Base 2.1.0
 _ZN7blocxx621ProcessErrorExceptionC1ERKS0_@Base 2.1.0
 _ZN7blocxx621ProcessErrorExceptionC2EPKciS2_iPKNS_9ExceptionEi@Base 2.1.0
 _ZN7blocxx621ProcessErrorExceptionC2ERKS0_@Base 2.1.0
 _ZN7blocxx621ProcessErrorExceptionD0Ev@Base 2.1.0
 _ZN7blocxx621ProcessErrorExceptionD1Ev@Base 2.1.0
 _ZN7blocxx621ProcessErrorExceptionD2Ev@Base 2.1.0
 _ZN7blocxx621RegExCompileExceptionC1EPKciS2_iPKNS_9ExceptionEi@Base 2.1.0
 _ZN7blocxx621RegExCompileExceptionC1ERKS0_@Base 2.1.0
 _ZN7blocxx621RegExCompileExceptionC2EPKciS2_iPKNS_9ExceptionEi@Base 2.1.0
 _ZN7blocxx621RegExCompileExceptionC2ERKS0_@Base 2.1.0
 _ZN7blocxx621RegExCompileExceptionD0Ev@Base 2.1.0
 _ZN7blocxx621RegExCompileExceptionD1Ev@Base 2.1.0
 _ZN7blocxx621RegExCompileExceptionD2Ev@Base 2.1.0
 _ZN7blocxx621RegExExecuteExceptionC1EPKciS2_iPKNS_9ExceptionEi@Base 2.1.0
 _ZN7blocxx621RegExExecuteExceptionC1ERKS0_@Base 2.1.0
 _ZN7blocxx621RegExExecuteExceptionC2EPKciS2_iPKNS_9ExceptionEi@Base 2.1.0
 _ZN7blocxx621RegExExecuteExceptionC2ERKS0_@Base 2.1.0
 _ZN7blocxx621RegExExecuteExceptionD0Ev@Base 2.1.0
 _ZN7blocxx621RegExExecuteExceptionD1Ev@Base 2.1.0
 _ZN7blocxx621RegExExecuteExceptionD2Ev@Base 2.1.0
 _ZN7blocxx621SelectableCallbackIFC8selectedERiNS0_10EEventTypeE@Base 2.1.0
 _ZN7blocxx621SelectableCallbackIFCC2Ev@Base 2.1.0
 _ZN7blocxx621SelectableCallbackIFCD0Ev@Base 2.1.0
 _ZN7blocxx621SelectableCallbackIFCD1Ev@Base 2.1.0
 _ZN7blocxx621SelectableCallbackIFCD2Ev@Base 2.1.0
 _ZN7blocxx621dlSharedLibraryLoaderC1Ev@Base 2.1.0
 _ZN7blocxx621dlSharedLibraryLoaderC2Ev@Base 2.1.0
 _ZN7blocxx621dlSharedLibraryLoaderD0Ev@Base 2.1.0
 _ZN7blocxx621dlSharedLibraryLoaderD1Ev@Base 2.1.0
 _ZN7blocxx621dlSharedLibraryLoaderD2Ev@Base 2.1.0
 _ZN7blocxx621dlSharedLibrary_guardE@Base 2.1.0
 _ZN7blocxx622CmdLineParserExceptionC1EPKciS2_iPKNS_9ExceptionEi@Base 2.1.0
 _ZN7blocxx622CmdLineParserExceptionC1ERKS0_@Base 2.1.0
 _ZN7blocxx622CmdLineParserExceptionC2EPKciS2_iPKNS_9ExceptionEi@Base 2.1.0
 _ZN7blocxx622CmdLineParserExceptionC2ERKS0_@Base 2.1.0
 _ZN7blocxx622CmdLineParserExceptionD0Ev@Base 2.1.0
 _ZN7blocxx622CmdLineParserExceptionD1Ev@Base 2.1.0
 _ZN7blocxx622CmdLineParserExceptionD2Ev@Base 2.1.0
 _ZN7blocxx622ConditionLockExceptionC1EPKciS2_iPKNS_9ExceptionEi@Base 2.1.0
 _ZN7blocxx622ConditionLockExceptionC1ERKS0_@Base 2.1.0
 _ZN7blocxx622ConditionLockExceptionC2EPKciS2_iPKNS_9ExceptionEi@Base 2.1.0
 _ZN7blocxx622ConditionLockExceptionC2ERKS0_@Base 2.1.0
 _ZN7blocxx622ConditionLockExceptionD0Ev@Base 2.1.0
 _ZN7blocxx622ConditionLockExceptionD1Ev@Base 2.1.0
 _ZN7blocxx622ConditionLockExceptionD2Ev@Base 2.1.0
 _ZN7blocxx622DelayedFormatInternals26DelayedFormatReferenceBaseC1Ev@Base 2.1.0
 _ZN7blocxx622DelayedFormatInternals26DelayedFormatReferenceBaseC2Ev@Base 2.1.0
 _ZN7blocxx622DelayedFormatInternals26DelayedFormatReferenceBaseD0Ev@Base 2.1.0
 _ZN7blocxx622DelayedFormatInternals26DelayedFormatReferenceBaseD1Ev@Base 2.1.0
 _ZN7blocxx622DelayedFormatInternals26DelayedFormatReferenceBaseD2Ev@Base 2.1.0
 _ZN7blocxx622DelayedFormatInternalslsERSoRKNS0_26DelayedFormatReferenceBaseE@Base 2.1.0
 _ZN7blocxx622IntrusiveCountableBaseC1ERKS0_@Base 2.1.0
 _ZN7blocxx622IntrusiveCountableBaseC1Ev@Base 2.1.0
 _ZN7blocxx622IntrusiveCountableBaseC2ERKS0_@Base 2.1.0
 _ZN7blocxx622IntrusiveCountableBaseC2Ev@Base 2.1.0
 _ZN7blocxx622IntrusiveCountableBaseD0Ev@Base 2.1.0
 _ZN7blocxx622IntrusiveCountableBaseD1Ev@Base 2.1.0
 _ZN7blocxx622IntrusiveCountableBaseD2Ev@Base 2.1.0
 _ZN7blocxx622NULLReferenceExceptionC1EPKciS2_iPKNS_9ExceptionEi@Base 2.1.0
 _ZN7blocxx622NULLReferenceExceptionC1ERKS0_@Base 2.1.0
 _ZN7blocxx622NULLReferenceExceptionC2EPKciS2_iPKNS_9ExceptionEi@Base 2.1.0
 _ZN7blocxx622NULLReferenceExceptionC2ERKS0_@Base 2.1.0
 _ZN7blocxx622NULLReferenceExceptionD0Ev@Base 2.1.0
 _ZN7blocxx622NULLReferenceExceptionD1Ev@Base 2.1.0
 _ZN7blocxx622NULLReferenceExceptionD2Ev@Base 2.1.0
 _ZN7blocxx622SharedLibraryExceptionC1EPKciS2_iPKNS_9ExceptionEi@Base 2.1.0
 _ZN7blocxx622SharedLibraryExceptionC1ERKS0_@Base 2.1.0
 _ZN7blocxx622SharedLibraryExceptionC2EPKciS2_iPKNS_9ExceptionEi@Base 2.1.0
 _ZN7blocxx622SharedLibraryExceptionC2ERKS0_@Base 2.1.0
 _ZN7blocxx622SharedLibraryExceptionD0Ev@Base 2.1.0
 _ZN7blocxx622SharedLibraryExceptionD1Ev@Base 2.1.0
 _ZN7blocxx622SharedLibraryExceptionD2Ev@Base 2.1.0
 _ZN7blocxx622SocketAddressExceptionC1EPKciS2_iPKNS_9ExceptionEi@Base 2.1.0
 _ZN7blocxx622SocketAddressExceptionC1ERKS0_@Base 2.1.0
 _ZN7blocxx622SocketAddressExceptionC2EPKciS2_iPKNS_9ExceptionEi@Base 2.1.0
 _ZN7blocxx622SocketAddressExceptionC2ERKS0_@Base 2.1.0
 _ZN7blocxx622SocketAddressExceptionD0Ev@Base 2.1.0
 _ZN7blocxx622SocketAddressExceptionD1Ev@Base 2.1.0
 _ZN7blocxx622SocketAddressExceptionD2Ev@Base 2.1.0
 _ZN7blocxx622SocketTimeoutExceptionC1EPKciS2_iPKNS_9ExceptionEi@Base 2.1.0
 _ZN7blocxx622SocketTimeoutExceptionC1ERKS0_@Base 2.1.0
 _ZN7blocxx622SocketTimeoutExceptionC2EPKciS2_iPKNS_9ExceptionEi@Base 2.1.0
 _ZN7blocxx622SocketTimeoutExceptionC2ERKS0_@Base 2.1.0
 _ZN7blocxx622SocketTimeoutExceptionD0Ev@Base 2.1.0
 _ZN7blocxx622SocketTimeoutExceptionD1Ev@Base 2.1.0
 _ZN7blocxx622SocketTimeoutExceptionD2Ev@Base 2.1.0
 _ZN7blocxx622ThreadBarrierExceptionC1EPKciS2_iPKNS_9ExceptionEi@Base 2.1.0
 _ZN7blocxx622ThreadBarrierExceptionC1ERKS0_@Base 2.1.0
 _ZN7blocxx622ThreadBarrierExceptionC2EPKciS2_iPKNS_9ExceptionEi@Base 2.1.0
 _ZN7blocxx622ThreadBarrierExceptionC2ERKS0_@Base 2.1.0
 _ZN7blocxx622ThreadBarrierExceptionD0Ev@Base 2.1.0
 _ZN7blocxx622ThreadBarrierExceptionD1Ev@Base 2.1.0
 _ZN7blocxx622ThreadBarrierExceptionD2Ev@Base 2.1.0
 _ZN7blocxx622ThreadCountDecrementer18doNotifyThreadDoneEPNS_6ThreadE@Base 2.1.0
 _ZN7blocxx622ThreadCountDecrementerC1ERKNS_18IntrusiveReferenceINS_13ThreadCounterEEE@Base 2.1.0
 _ZN7blocxx622ThreadCountDecrementerC2ERKNS_18IntrusiveReferenceINS_13ThreadCounterEEE@Base 2.1.0
 _ZN7blocxx622ThreadCountDecrementerD0Ev@Base 2.1.0
 _ZN7blocxx622ThreadCountDecrementerD1Ev@Base 2.1.0
 _ZN7blocxx622ThreadCountDecrementerD2Ev@Base 2.1.0
 _ZN7blocxx622readWriteMemoryBarrierEv@Base 2.1.0
 _ZN7blocxx623ExecBufferFullExceptionC1EPKciS2_iPKNS_9ExceptionEi@Base 2.1.0
 _ZN7blocxx623ExecBufferFullExceptionC1ERKS0_@Base 2.1.0
 _ZN7blocxx623ExecBufferFullExceptionC2EPKciS2_iPKNS_9ExceptionEi@Base 2.1.0
 _ZN7blocxx623ExecBufferFullExceptionC2ERKS0_@Base 2.1.0
 _ZN7blocxx623ExecBufferFullExceptionD0Ev@Base 2.1.0
 _ZN7blocxx623ExecBufferFullExceptionD1Ev@Base 2.1.0
 _ZN7blocxx623ExecBufferFullExceptionD2Ev@Base 2.1.0
 _ZN7blocxx624IntrusiveReferenceAddRefEPNS_22IntrusiveCountableBaseE@Base 2.1.0
 _ZN7blocxx624MultiProcessFileAppenderC1ERKNS_5ArrayINS_6StringEEES5_RKS2_S7_mj@Base 2.1.0
 _ZN7blocxx624MultiProcessFileAppenderC2ERKNS_5ArrayINS_6StringEEES5_RKS2_S7_mj@Base 2.1.0
 _ZN7blocxx624MultiProcessFileAppenderD0Ev@Base 2.1.0
 _ZN7blocxx624MultiProcessFileAppenderD1Ev@Base 2.1.0
 _ZN7blocxx624MultiProcessFileAppenderD2Ev@Base 2.1.0
 _ZN7blocxx625COWIntrusiveCountableBaseC1ERKS0_@Base 2.1.0
 _ZN7blocxx625COWIntrusiveCountableBaseC1Ev@Base 2.1.0
 _ZN7blocxx625COWIntrusiveCountableBaseC2ERKS0_@Base 2.1.0
 _ZN7blocxx625COWIntrusiveCountableBaseC2Ev@Base 2.1.0
 _ZN7blocxx625COWIntrusiveCountableBaseD0Ev@Base 2.1.0
 _ZN7blocxx625COWIntrusiveCountableBaseD1Ev@Base 2.1.0
 _ZN7blocxx625COWIntrusiveCountableBaseD2Ev@Base 2.1.0
 _ZN7blocxx625IntrusiveReferenceReleaseEPNS_22IntrusiveCountableBaseE@Base 2.1.0
 _ZN7blocxx625StringConversionExceptionC1EPKciS2_iPKNS_9ExceptionEi@Base 2.1.0
 _ZN7blocxx625StringConversionExceptionC1ERKS0_@Base 2.1.0
 _ZN7blocxx625StringConversionExceptionC2EPKciS2_iPKNS_9ExceptionEi@Base 2.1.0
 _ZN7blocxx625StringConversionExceptionC2ERKS0_@Base 2.1.0
 _ZN7blocxx625StringConversionExceptionD0Ev@Base 2.1.0
 _ZN7blocxx625StringConversionExceptionD1Ev@Base 2.1.0
 _ZN7blocxx625StringConversionExceptionD2Ev@Base 2.1.0
 _ZN7blocxx626COWIntrusiveReferenceCloneINS_6String7ByteBufEEEPT_S4_@Base 2.1.0
 _ZN7blocxx626CallOnce_pthread_MutexLockC1EP15pthread_mutex_t@Base 2.1.0
 _ZN7blocxx626CallOnce_pthread_MutexLockC2EP15pthread_mutex_t@Base 2.1.0
 _ZN7blocxx626CallOnce_pthread_MutexLockD1Ev@Base 2.1.0
 _ZN7blocxx626CallOnce_pthread_MutexLockD2Ev@Base 2.1.0
 _ZN7blocxx626ConditionResourceExceptionC1EPKciS2_iPKNS_9ExceptionEi@Base 2.1.0
 _ZN7blocxx626ConditionResourceExceptionC1ERKS0_@Base 2.1.0
 _ZN7blocxx626ConditionResourceExceptionC2EPKciS2_iPKNS_9ExceptionEi@Base 2.1.0
 _ZN7blocxx626ConditionResourceExceptionC2ERKS0_@Base 2.1.0
 _ZN7blocxx626ConditionResourceExceptionD0Ev@Base 2.1.0
 _ZN7blocxx626ConditionResourceExceptionD1Ev@Base 2.1.0
 _ZN7blocxx626ConditionResourceExceptionD2Ev@Base 2.1.0
 _ZN7blocxx626GenericRWLockImplExceptionC1EPKciS2_iPKNS_9ExceptionEi@Base 2.1.0
 _ZN7blocxx626GenericRWLockImplExceptionC1ERKS0_@Base 2.1.0
 _ZN7blocxx626GenericRWLockImplExceptionC2EPKciS2_iPKNS_9ExceptionEi@Base 2.1.0
 _ZN7blocxx626GenericRWLockImplExceptionC2ERKS0_@Base 2.1.0
 _ZN7blocxx626GenericRWLockImplExceptionD0Ev@Base 2.1.0
 _ZN7blocxx626GenericRWLockImplExceptionD1Ev@Base 2.1.0
 _ZN7blocxx626GenericRWLockImplExceptionD2Ev@Base 2.1.0
 _ZN7blocxx626LogMessagePatternFormatter27STR_DEFAULT_MESSAGE_PATTERNE@Base 2.1.0
 _ZN7blocxx626LogMessagePatternFormatter9ConverterC1ERKNS_30LogMessagePatternFormatterImpl10FormattingE@Base 2.1.0
 _ZN7blocxx626LogMessagePatternFormatter9ConverterC1Ev@Base 2.1.0
 _ZN7blocxx626LogMessagePatternFormatter9ConverterC2ERKNS_30LogMessagePatternFormatterImpl10FormattingE@Base 2.1.0
 _ZN7blocxx626LogMessagePatternFormatter9ConverterC2Ev@Base 2.1.0
 _ZN7blocxx626LogMessagePatternFormatter9ConverterD0Ev@Base 2.1.0
 _ZN7blocxx626LogMessagePatternFormatter9ConverterD1Ev@Base 2.1.0
 _ZN7blocxx626LogMessagePatternFormatter9ConverterD2Ev@Base 2.1.0
 _ZN7blocxx626LogMessagePatternFormatterC1ERKNS_6StringE@Base 2.1.0
 _ZN7blocxx626LogMessagePatternFormatterC2ERKNS_6StringE@Base 2.1.0
 _ZN7blocxx626LogMessagePatternFormatterD1Ev@Base 2.1.0
 _ZN7blocxx626LogMessagePatternFormatterD2Ev@Base 2.1.0
 _ZN7blocxx627COWIntrusiveReferenceAddRefEPNS_25COWIntrusiveCountableBaseE@Base 2.1.0
 _ZN7blocxx627COWIntrusiveReferenceUniqueEPNS_25COWIntrusiveCountableBaseE@Base 2.1.0
 _ZN7blocxx627CancellationDeniedExceptionC1EPKciS2_iPKNS_9ExceptionEi@Base 2.1.0
 _ZN7blocxx627CancellationDeniedExceptionC1ERKS0_@Base 2.1.0
 _ZN7blocxx627CancellationDeniedExceptionC2EPKciS2_iPKNS_9ExceptionEi@Base 2.1.0
 _ZN7blocxx627CancellationDeniedExceptionC2ERKS0_@Base 2.1.0
 _ZN7blocxx627CancellationDeniedExceptionD0Ev@Base 2.1.0
 _ZN7blocxx627CancellationDeniedExceptionD1Ev@Base 2.1.0
 _ZN7blocxx627CancellationDeniedExceptionD2Ev@Base 2.1.0
 _ZN7blocxx627TempFileEnumerationImplBase5clearEv@Base 2.1.0
 _ZN7blocxx627TempFileEnumerationImplBase8readSizeERKNS_6StringE@Base 2.1.0
 _ZN7blocxx627TempFileEnumerationImplBaseC1Ev@Base 2.1.0
 _ZN7blocxx627TempFileEnumerationImplBaseC2Ev@Base 2.1.0
 _ZN7blocxx627TempFileEnumerationImplBaseD0Ev@Base 2.1.0
 _ZN7blocxx627TempFileEnumerationImplBaseD1Ev@Base 2.1.0
 _ZN7blocxx627TempFileEnumerationImplBaseD2Ev@Base 2.1.0
 _ZN7blocxx628COWIntrusiveReferenceReleaseEPNS_25COWIntrusiveCountableBaseE@Base 2.1.0
 _ZN7blocxx629StringArrayConstructorFactory6createERKPKc@Base 2.1.0
 _ZN7blocxx630LogMessagePatternFormatterImpl10FormattingC1Ev@Base 2.1.0
 _ZN7blocxx630LogMessagePatternFormatterImpl10FormattingC2Ev@Base 2.1.0
 _ZN7blocxx630throwArrayOutOfBoundsExceptionEmm@Base 2.1.0
 _ZN7blocxx633DefaultVariableConstructorFactoryINS_6StringEKPKcE6createERS4_@Base 2.1.0
 _ZN7blocxx635LogMessagePatternFormatterExceptionC1EPKciS2_iPKNS_9ExceptionEi@Base 2.1.0
 _ZN7blocxx635LogMessagePatternFormatterExceptionC1ERKS0_@Base 2.1.0
 _ZN7blocxx635LogMessagePatternFormatterExceptionC2EPKciS2_iPKNS_9ExceptionEi@Base 2.1.0
 _ZN7blocxx635LogMessagePatternFormatterExceptionC2ERKS0_@Base 2.1.0
 _ZN7blocxx635LogMessagePatternFormatterExceptionD0Ev@Base 2.1.0
 _ZN7blocxx635LogMessagePatternFormatterExceptionD1Ev@Base 2.1.0
 _ZN7blocxx635LogMessagePatternFormatterExceptionD2Ev@Base 2.1.0
 _ZN7blocxx636ExecMockObjectUnimplementedExceptionC1EPKciS2_iPKNS_9ExceptionEi@Base 2.1.0
 _ZN7blocxx636ExecMockObjectUnimplementedExceptionC1ERKS0_@Base 2.1.0
 _ZN7blocxx636ExecMockObjectUnimplementedExceptionC2EPKciS2_iPKNS_9ExceptionEi@Base 2.1.0
 _ZN7blocxx636ExecMockObjectUnimplementedExceptionC2ERKS0_@Base 2.1.0
 _ZN7blocxx636ExecMockObjectUnimplementedExceptionD0Ev@Base 2.1.0
 _ZN7blocxx636ExecMockObjectUnimplementedExceptionD1Ev@Base 2.1.0
 _ZN7blocxx636ExecMockObjectUnimplementedExceptionD2Ev@Base 2.1.0
 _ZN7blocxx63MD515convertBinToHexEPKh@Base 2.1.0
 _ZN7blocxx63MD54initERKNS_6StringE@Base 2.1.0
 _ZN7blocxx63MD56updateERKNS_6StringE@Base 2.1.0
 _ZN7blocxx63MD57MD5InitEPNS0_7MD5_CTXE@Base 2.1.0
 _ZN7blocxx63MD58MD5FinalEPhPNS0_7MD5_CTXE@Base 2.1.0
 _ZN7blocxx63MD58toStringEv@Base 2.1.0
 _ZN7blocxx63MD59MD5UpdateEPNS0_7MD5_CTXEPKhj@Base 2.1.0
 _ZN7blocxx63MD59getDigestEv@Base 2.1.0
 _ZN7blocxx63MD5C1ERKNS_6StringE@Base 2.1.0
 _ZN7blocxx63MD5C1Ev@Base 2.1.0
 _ZN7blocxx63MD5C2ERKNS_6StringE@Base 2.1.0
 _ZN7blocxx63MD5C2Ev@Base 2.1.0
 _ZN7blocxx63MD5D0Ev@Base 2.1.0
 _ZN7blocxx63MD5D1Ev@Base 2.1.0
 _ZN7blocxx63MapINS_6StringENS_13SSLTrustStore8UserInfoESt4lessIS1_EE3endEv@Base 2.1.0
 _ZN7blocxx63MapINS_6StringENS_13SSLTrustStore8UserInfoESt4lessIS1_EE4findERKS1_@Base 2.1.0
 _ZN7blocxx63MapINS_6StringENS_13SSLTrustStore8UserInfoESt4lessIS1_EE5beginEv@Base 2.1.0
 _ZN7blocxx63MapINS_6StringENS_13SSLTrustStore8UserInfoESt4lessIS1_EE6insertERKSt4pairIKS1_S3_E@Base 2.1.0
 _ZN7blocxx63MapINS_6StringENS_13SSLTrustStore8UserInfoESt4lessIS1_EEC1Ev@Base 2.1.0
 _ZN7blocxx63MapINS_6StringENS_13SSLTrustStore8UserInfoESt4lessIS1_EEC2Ev@Base 2.1.0
 _ZN7blocxx63MapINS_6StringENS_13SSLTrustStore8UserInfoESt4lessIS1_EED1Ev@Base 2.1.0
 _ZN7blocxx63MapINS_6StringENS_13SSLTrustStore8UserInfoESt4lessIS1_EED2Ev@Base 2.1.0
 _ZN7blocxx63MapINS_6StringENS_13SSLTrustStore8UserInfoESt4lessIS1_EEixERKS1_@Base 2.1.0
 _ZN7blocxx63MapINS_6StringES1_St4lessIS1_EE3endEv@Base 2.1.0
 _ZN7blocxx63MapINS_6StringES1_St4lessIS1_EE4findERKS1_@Base 2.1.0
 _ZN7blocxx63MapINS_6StringES1_St4lessIS1_EE5clearEv@Base 2.1.0
 _ZN7blocxx63MapINS_6StringES1_St4lessIS1_EE5eraseEN11__gnu_debug14_Safe_iteratorISt17_Rb_tree_iteratorISt4pairIKS1_S1_EENSt7__debug3mapIS1_S1_S3_SaISA_EEEEE@Base 2.1.0
 _ZN7blocxx63MapINS_6StringES1_St4lessIS1_EEC1Ev@Base 2.1.0
 _ZN7blocxx63MapINS_6StringES1_St4lessIS1_EEC2Ev@Base 2.1.0
 _ZN7blocxx63MapINS_6StringES1_St4lessIS1_EED1Ev@Base 2.1.0
 _ZN7blocxx63MapINS_6StringES1_St4lessIS1_EED2Ev@Base 2.1.0
 _ZN7blocxx63MapINS_6StringES1_St4lessIS1_EEixERKS1_@Base 2.1.0
 _ZN7blocxx642FileSystemMockObjectUnimplementedExceptionC1EPKciS2_iPKNS_9ExceptionEi@Base 2.1.0
 _ZN7blocxx642FileSystemMockObjectUnimplementedExceptionC1ERKS0_@Base 2.1.0
 _ZN7blocxx642FileSystemMockObjectUnimplementedExceptionC2EPKciS2_iPKNS_9ExceptionEi@Base 2.1.0
 _ZN7blocxx642FileSystemMockObjectUnimplementedExceptionC2ERKS0_@Base 2.1.0
 _ZN7blocxx642FileSystemMockObjectUnimplementedExceptionD0Ev@Base 2.1.0
 _ZN7blocxx642FileSystemMockObjectUnimplementedExceptionD1Ev@Base 2.1.0
 _ZN7blocxx642FileSystemMockObjectUnimplementedExceptionD2Ev@Base 2.1.0
 _ZN7blocxx64Bool10readObjectERSt15basic_streambufIcSt11char_traitsIcEE@Base 2.1.0
 _ZN7blocxx64BoolC1Eb@Base 2.1.0
 _ZN7blocxx64BoolC2Eb@Base 2.1.0
 _ZN7blocxx64Cstr11to_char_ptrINS_6StringEEEPKcRKT_@Base 2.1.0
 _ZN7blocxx64Cstr13CstrStringAuxINS_6StringELb0EE5c_strERKS2_@Base 2.1.0
 _ZN7blocxx64Cstr7CstrArrINS_5ArrayINS_6StringEEEEC1ERKS4_@Base 2.1.0
 _ZN7blocxx64Cstr7CstrArrINS_5ArrayINS_6StringEEEEC2ERKS4_@Base 2.1.0
 _ZN7blocxx64Cstr7CstrArrINS_5ArrayINS_6StringEEEED1Ev@Base 2.1.0
 _ZN7blocxx64Cstr7CstrArrINS_5ArrayINS_6StringEEEED2Ev@Base 2.1.0
 _ZN7blocxx64Cstr7CstrArrIPKPKcEC1ES5_@Base 2.1.0
 _ZN7blocxx64Cstr7CstrArrIPKPKcEC2ES5_@Base 2.1.0
 _ZN7blocxx64Cstr8ctassertILb1EEC1Ev@Base 2.1.0
 _ZN7blocxx64Cstr8ctassertILb1EEC2Ev@Base 2.1.0
 _ZN7blocxx64Exec10safeSystemERKNS_5ArrayINS_6StringEEEPKPKc@Base 2.1.0
 _ZN7blocxx64Exec12gatherOutputERNS_6StringERKNS_18IntrusiveReferenceINS_7ProcessEEERKNS_7TimeoutEi@Base 2.1.0
 _ZN7blocxx64Exec12gatherOutputERNS_6StringERKNS_18IntrusiveReferenceINS_7ProcessEEEii@Base 2.1.0
 _ZN7blocxx64Exec13InputCallback7getDataERNS_5ArrayIcEERKNS_18IntrusiveReferenceINS_7ProcessEEEm@Base 2.1.0
 _ZN7blocxx64Exec13InputCallbackC1Ev@Base 2.1.0
 _ZN7blocxx64Exec13InputCallbackC2Ev@Base 2.1.0
 _ZN7blocxx64Exec13InputCallbackD0Ev@Base 2.1.0
 _ZN7blocxx64Exec13InputCallbackD1Ev@Base 2.1.0
 _ZN7blocxx64Exec13InputCallbackD2Ev@Base 2.1.0
 _ZN7blocxx64Exec14OutputCallback10handleDataEPKcmNS0_13EOutputSourceERKNS_18IntrusiveReferenceINS_7ProcessEEEmRNS_5ArrayIcEE@Base 2.1.0
 _ZN7blocxx64Exec14OutputCallbackC1Ev@Base 2.1.0
 _ZN7blocxx64Exec14OutputCallbackC2Ev@Base 2.1.0
 _ZN7blocxx64Exec14OutputCallbackD0Ev@Base 2.1.0
 _ZN7blocxx64Exec14OutputCallbackD1Ev@Base 2.1.0
 _ZN7blocxx64Exec14OutputCallbackD2Ev@Base 2.1.0
 _ZN7blocxx64Exec16g_execMockObjectE@Base 2.1.0
 _ZN7blocxx64Exec18processInputOutputERKNS_6StringERS1_RKNS_18IntrusiveReferenceINS_7ProcessEEERKNS_7TimeoutEi@Base 2.1.0
 _ZN7blocxx64Exec18processInputOutputERNS0_14OutputCallbackERNS_5ArrayINS_18IntrusiveReferenceINS_7ProcessEEEEERNS0_13InputCallbackERKNS_7TimeoutE@Base 2.1.0
 _ZN7blocxx64Exec26feedProcessAndGatherOutputERKNS_18IntrusiveReferenceINS_7ProcessEEERNS_6StringERKNS_7TimeoutEiRKS6_@Base 2.1.0
 _ZN7blocxx64Exec26feedProcessAndGatherOutputERKNS_18IntrusiveReferenceINS_7ProcessEEERNS_6StringES7_RKNS_7TimeoutEiRKS6_@Base 2.1.0
 _ZN7blocxx64Exec29executeProcessAndGatherOutputEPKPKcRNS_6StringES4_RKNS_7TimeoutEiS2_@Base 2.1.0
 _ZN7blocxx64Exec29executeProcessAndGatherOutputEPKPKcRNS_6StringES6_S4_RKNS_7TimeoutEiS2_@Base 2.1.0
 _ZN7blocxx64Exec29executeProcessAndGatherOutputERKNS_5ArrayINS_6StringEEERS2_RiiiRKS2_@Base 2.1.0
 _ZN7blocxx64Exec29executeProcessAndGatherOutputINS_5ArrayINS_6StringEEES3_S3_EENS_7Process6StatusERKT_RT0_RKNS_7TimeoutEiRKT1_@Base 2.1.0
 _ZN7blocxx64Exec4Impl11NullFactory6createEv@Base 2.1.0
 _ZN7blocxx64Exec4Impl16close_child_endsEPNS_18IntrusiveReferenceINS_11UnnamedPipeEEE@Base 2.1.0
 _ZN7blocxx64Exec5spawnEPKPKcS4_@Base 2.1.0
 _ZN7blocxx64Exec5spawnEPKcPKS2_S4_RNS0_7PreExecE@Base 2.1.0
 _ZN7blocxx64Exec5spawnINS_5ArrayINS_6StringEEEEENS_18IntrusiveReferenceINS_7ProcessEEERKT_@Base 2.1.0
 _ZN7blocxx64Exec5spawnINS_5ArrayINS_6StringEEEPKPKcEENS_18IntrusiveReferenceINS_7ProcessEEERKT_RKT0_@Base 2.1.0
 _ZN7blocxx64Exec5spawnINS_6StringENS_5ArrayIS2_EEPKPKcEENS_18IntrusiveReferenceINS_7ProcessEEERKT_RKT0_RKT1_RNS0_7PreExecE@Base 2.1.0
 _ZN7blocxx64Exec6systemERKNS_5ArrayINS_6StringEEEPKPKcRKNS_7TimeoutE@Base 2.1.0
 _ZN7blocxx64Exec7PreExec12resetSignalsEv@Base 2.1.0
 _ZN7blocxx64Exec7PreExec16closePipesOnExecEPKPNS_11UnnamedPipeE@Base 2.1.0
 _ZN7blocxx64Exec7PreExec18setNewProcessGroupEv@Base 2.1.0
 _ZN7blocxx64Exec7PreExec22closeDescriptorsOnExecERKNSt7__debug6vectorIbSaIbEEE@Base 2.1.0
 _ZN7blocxx64Exec7PreExec24setupStandardDescriptorsEPKPNS_11UnnamedPipeE@Base 2.1.0
 _ZN7blocxx64Exec7PreExec9DontCatchD0Ev@Base 2.1.0
 _ZN7blocxx64Exec7PreExec9DontCatchD1Ev@Base 2.1.0
 _ZN7blocxx64Exec7PreExec9DontCatchD2Ev@Base 2.1.0
 _ZN7blocxx64Exec7PreExecC1Eb@Base 2.1.0
 _ZN7blocxx64Exec7PreExecC2Eb@Base 2.1.0
 _ZN7blocxx64Exec7PreExecD0Ev@Base 2.1.0
 _ZN7blocxx64Exec7PreExecD1Ev@Base 2.1.0
 _ZN7blocxx64Exec7PreExecD2Ev@Base 2.1.0
 _ZN7blocxx64Exec9spawnImplEPKcPKS2_S4_RNS0_7PreExecE@Base 2.1.0
 _ZN7blocxx64File4swapERS0_@Base 2.1.0
 _ZN7blocxx64File5closeEv@Base 2.1.0
 _ZN7blocxx64File5flushEv@Base 2.1.0
 _ZN7blocxx64File5writeEPKvml@Base 2.1.0
 _ZN7blocxx64File6unlockEv@Base 2.1.0
 _ZN7blocxx64File7getLockENS0_9ELockTypeE@Base 2.1.0
 _ZN7blocxx64File7tryLockENS0_9ELockTypeE@Base 2.1.0
 _ZN7blocxx64FileC1ERKS0_@Base 2.1.0
 _ZN7blocxx64FileC1Ei@Base 2.1.0
 _ZN7blocxx64FileC1Ev@Base 2.1.0
 _ZN7blocxx64FileC2ERKS0_@Base 2.1.0
 _ZN7blocxx64FileC2Ei@Base 2.1.0
 _ZN7blocxx64FileC2Ev@Base 2.1.0
 _ZN7blocxx64FileD1Ev@Base 2.1.0
 _ZN7blocxx64FileD2Ev@Base 2.1.0
 _ZN7blocxx64FileaSERKS0_@Base 2.1.0
 _ZN7blocxx64UUIDC1ERKNS_6StringE@Base 2.1.0
 _ZN7blocxx64UUIDC1Ev@Base 2.1.0
 _ZN7blocxx64UUIDC2ERKNS_6StringE@Base 2.1.0
 _ZN7blocxx64UUIDC2Ev@Base 2.1.0
 _ZN7blocxx65ArrayI10regmatch_tE3endEv@Base 2.1.0
 _ZN7blocxx65ArrayI10regmatch_tE5beginEv@Base 2.1.0
 _ZN7blocxx65ArrayI10regmatch_tE5clearEv@Base 2.1.0
 _ZN7blocxx65ArrayI10regmatch_tE6resizeEm@Base 2.1.0
 _ZN7blocxx65ArrayI10regmatch_tEC1Ev@Base 2.1.0
 _ZN7blocxx65ArrayI10regmatch_tEC2Ev@Base 2.1.0
 _ZN7blocxx65ArrayI10regmatch_tED1Ev@Base 2.1.0
 _ZN7blocxx65ArrayI10regmatch_tED2Ev@Base 2.1.0
 _ZN7blocxx65ArrayI10regmatch_tEixEm@Base 2.1.0
 _ZN7blocxx65ArrayINS0_IcEEEC1Em@Base 2.1.0
 _ZN7blocxx65ArrayINS0_IcEEEC2Em@Base 2.1.0
 _ZN7blocxx65ArrayINS0_IcEEED1Ev@Base 2.1.0
 _ZN7blocxx65ArrayINS0_IcEEED2Ev@Base 2.1.0
 _ZN7blocxx65ArrayINS0_IcEEEixEm@Base 2.1.0
 _ZN7blocxx65ArrayINS_18IntrusiveReferenceINS_11LogAppenderEEEE6appendERKS3_@Base 2.1.0
 _ZN7blocxx65ArrayINS_18IntrusiveReferenceINS_11LogAppenderEEEE9push_backERKS3_@Base 2.1.0
 _ZN7blocxx65ArrayINS_18IntrusiveReferenceINS_11LogAppenderEEEEC1ERKS4_@Base 2.1.0
 _ZN7blocxx65ArrayINS_18IntrusiveReferenceINS_11LogAppenderEEEEC1EiRKS3_@Base 2.1.0
 _ZN7blocxx65ArrayINS_18IntrusiveReferenceINS_11LogAppenderEEEEC2ERKS4_@Base 2.1.0
 _ZN7blocxx65ArrayINS_18IntrusiveReferenceINS_11LogAppenderEEEEC2EiRKS3_@Base 2.1.0
 _ZN7blocxx65ArrayINS_18IntrusiveReferenceINS_11LogAppenderEEEED1Ev@Base 2.1.0
 _ZN7blocxx65ArrayINS_18IntrusiveReferenceINS_11LogAppenderEEEED2Ev@Base 2.1.0
 _ZN7blocxx65ArrayINS_18IntrusiveReferenceINS_26LogMessagePatternFormatter9ConverterEEEE9push_backERKS4_@Base 2.1.0
 _ZN7blocxx65ArrayINS_18IntrusiveReferenceINS_26LogMessagePatternFormatter9ConverterEEEEC1Ev@Base 2.1.0
 _ZN7blocxx65ArrayINS_18IntrusiveReferenceINS_26LogMessagePatternFormatter9ConverterEEEEC2Ev@Base 2.1.0
 _ZN7blocxx65ArrayINS_18IntrusiveReferenceINS_26LogMessagePatternFormatter9ConverterEEEED1Ev@Base 2.1.0
 _ZN7blocxx65ArrayINS_18IntrusiveReferenceINS_26LogMessagePatternFormatter9ConverterEEEED2Ev@Base 2.1.0
 _ZN7blocxx65ArrayINS_18IntrusiveReferenceINS_6ThreadEEEE6removeEm@Base 2.1.0
 _ZN7blocxx65ArrayINS_18IntrusiveReferenceINS_6ThreadEEEE6resizeEm@Base 2.1.0
 _ZN7blocxx65ArrayINS_18IntrusiveReferenceINS_6ThreadEEEE7reserveEm@Base 2.1.0
 _ZN7blocxx65ArrayINS_18IntrusiveReferenceINS_6ThreadEEEE8pop_backEv@Base 2.1.0
 _ZN7blocxx65ArrayINS_18IntrusiveReferenceINS_6ThreadEEEE9push_backERKS3_@Base 2.1.0
 _ZN7blocxx65ArrayINS_18IntrusiveReferenceINS_6ThreadEEEEC1Ev@Base 2.1.0
 _ZN7blocxx65ArrayINS_18IntrusiveReferenceINS_6ThreadEEEEC2Ev@Base 2.1.0
 _ZN7blocxx65ArrayINS_18IntrusiveReferenceINS_6ThreadEEEED1Ev@Base 2.1.0
 _ZN7blocxx65ArrayINS_18IntrusiveReferenceINS_6ThreadEEEED2Ev@Base 2.1.0
 _ZN7blocxx65ArrayINS_18IntrusiveReferenceINS_6ThreadEEEEixEm@Base 2.1.0
 _ZN7blocxx65ArrayINS_18IntrusiveReferenceINS_7ProcessEEEE9push_backERKS3_@Base 2.1.0
 _ZN7blocxx65ArrayINS_18IntrusiveReferenceINS_7ProcessEEEEC1EiRKS3_@Base 2.1.0
 _ZN7blocxx65ArrayINS_18IntrusiveReferenceINS_7ProcessEEEEC1Ev@Base 2.1.0
 _ZN7blocxx65ArrayINS_18IntrusiveReferenceINS_7ProcessEEEEC2EiRKS3_@Base 2.1.0
 _ZN7blocxx65ArrayINS_18IntrusiveReferenceINS_7ProcessEEEEC2Ev@Base 2.1.0
 _ZN7blocxx65ArrayINS_18IntrusiveReferenceINS_7ProcessEEEED1Ev@Base 2.1.0
 _ZN7blocxx65ArrayINS_18IntrusiveReferenceINS_7ProcessEEEED2Ev@Base 2.1.0
 _ZN7blocxx65ArrayINS_18IntrusiveReferenceINS_7ProcessEEEEixEm@Base 2.1.0
 _ZN7blocxx65ArrayINS_6Select12SelectObjectEE7reserveEm@Base 2.1.0
 _ZN7blocxx65ArrayINS_6Select12SelectObjectEE9push_backERKS2_@Base 2.1.0
 _ZN7blocxx65ArrayINS_6Select12SelectObjectEEC1Ev@Base 2.1.0
 _ZN7blocxx65ArrayINS_6Select12SelectObjectEEC2Ev@Base 2.1.0
 _ZN7blocxx65ArrayINS_6Select12SelectObjectEED1Ev@Base 2.1.0
 _ZN7blocxx65ArrayINS_6Select12SelectObjectEED2Ev@Base 2.1.0
 _ZN7blocxx65ArrayINS_6Select12SelectObjectEEixEm@Base 2.1.0
 _ZN7blocxx65ArrayINS_6StringEE3endEv@Base 2.1.0
 _ZN7blocxx65ArrayINS_6StringEE5beginEv@Base 2.1.0
 _ZN7blocxx65ArrayINS_6StringEE5clearEv@Base 2.1.0
 _ZN7blocxx65ArrayINS_6StringEE6appendERKS1_@Base 2.1.0
 _ZN7blocxx65ArrayINS_6StringEE9push_backERKS1_@Base 2.1.0
 _ZN7blocxx65ArrayINS_6StringEEC1ERKS2_@Base 2.1.0
 _ZN7blocxx65ArrayINS_6StringEEC1Ev@Base 2.1.0
 _ZN7blocxx65ArrayINS_6StringEEC2ERKS2_@Base 2.1.0
 _ZN7blocxx65ArrayINS_6StringEEC2Ev@Base 2.1.0
 _ZN7blocxx65ArrayINS_6StringEED1Ev@Base 2.1.0
 _ZN7blocxx65ArrayINS_6StringEED2Ev@Base 2.1.0
 _ZN7blocxx65ArrayINS_6StringEEaSERKS2_@Base 2.1.0
 _ZN7blocxx65ArrayINS_6StringEEixEm@Base 2.1.0
 _ZN7blocxx65ArrayINS_9PerlRegEx7match_tEE3endEv@Base 2.1.0
 _ZN7blocxx65ArrayINS_9PerlRegEx7match_tEE5beginEv@Base 2.1.0
 _ZN7blocxx65ArrayINS_9PerlRegEx7match_tEE5clearEv@Base 2.1.0
 _ZN7blocxx65ArrayINS_9PerlRegEx7match_tEE6resizeEm@Base 2.1.0
 _ZN7blocxx65ArrayINS_9PerlRegEx7match_tEEC1Ev@Base 2.1.0
 _ZN7blocxx65ArrayINS_9PerlRegEx7match_tEEC2Ev@Base 2.1.0
 _ZN7blocxx65ArrayINS_9PerlRegEx7match_tEED1Ev@Base 2.1.0
 _ZN7blocxx65ArrayINS_9PerlRegEx7match_tEED2Ev@Base 2.1.0
 _ZN7blocxx65ArrayINS_9PerlRegEx7match_tEEixEm@Base 2.1.0
 _ZN7blocxx65ArrayINS_9ReferenceINS_22DelayedFormatInternals26DelayedFormatReferenceBaseEEEEC1Ev@Base 2.1.0
 _ZN7blocxx65ArrayINS_9ReferenceINS_22DelayedFormatInternals26DelayedFormatReferenceBaseEEEEC2Ev@Base 2.1.0
 _ZN7blocxx65ArrayINS_9ReferenceINS_22DelayedFormatInternals26DelayedFormatReferenceBaseEEEED1Ev@Base 2.1.0
 _ZN7blocxx65ArrayINS_9ReferenceINS_22DelayedFormatInternals26DelayedFormatReferenceBaseEEEED2Ev@Base 2.1.0
 _ZN7blocxx65ArrayIPKcE9push_backERKS2_@Base 2.1.0
 _ZN7blocxx65ArrayIPKcEC1Ev@Base 2.1.0
 _ZN7blocxx65ArrayIPKcEC2Ev@Base 2.1.0
 _ZN7blocxx65ArrayIPKcED1Ev@Base 2.1.0
 _ZN7blocxx65ArrayIPKcED2Ev@Base 2.1.0
 _ZN7blocxx65ArrayIPKcEixEm@Base 2.1.0
 _ZN7blocxx65ArrayISt4pairINS_6StringENS_17EFileStatusReturnEEE9push_backERKS4_@Base 2.1.0
 _ZN7blocxx65ArrayISt4pairINS_6StringENS_17EFileStatusReturnEEEC1Ev@Base 2.1.0
 _ZN7blocxx65ArrayISt4pairINS_6StringENS_17EFileStatusReturnEEEC2Ev@Base 2.1.0
 _ZN7blocxx65ArrayISt4pairINS_6StringENS_17EFileStatusReturnEEED1Ev@Base 2.1.0
 _ZN7blocxx65ArrayISt4pairINS_6StringENS_17EFileStatusReturnEEED2Ev@Base 2.1.0
 _ZN7blocxx65ArrayIcE3endEv@Base 2.1.0
 _ZN7blocxx65ArrayIcE5beginEv@Base 2.1.0
 _ZN7blocxx65ArrayIcE5eraseEN11__gnu_debug14_Safe_iteratorIN9__gnu_cxx17__normal_iteratorIPcNSt9__cxx19986vectorIcSaIcEEEEENSt7__debug6vectorIcS9_EEEESF_@Base 2.1.0
 _ZN7blocxx65ArrayIcE6insertIPKcEEvN11__gnu_debug14_Safe_iteratorIN9__gnu_cxx17__normal_iteratorIPcNSt9__cxx19986vectorIcSaIcEEEEENSt7__debug6vectorIcSC_EEEET_SJ_@Base 2.1.0
 _ZN7blocxx65ArrayIcEC1ERKS1_@Base 2.1.0
 _ZN7blocxx65ArrayIcEC1Ev@Base 2.1.0
 _ZN7blocxx65ArrayIcEC2ERKS1_@Base 2.1.0
 _ZN7blocxx65ArrayIcEC2Ev@Base 2.1.0
 _ZN7blocxx65ArrayIcED1Ev@Base 2.1.0
 _ZN7blocxx65ArrayIcED2Ev@Base 2.1.0
 _ZN7blocxx65ArrayIcEixEm@Base 2.1.0
 _ZN7blocxx65ArrayIiE5clearEv@Base 2.1.0
 _ZN7blocxx65ArrayIiE6resizeEm@Base 2.1.0
 _ZN7blocxx65ArrayIiEixEm@Base 2.1.0
 _ZN7blocxx65ArrayItE9push_backERKt@Base 2.1.0
 _ZN7blocxx65ArrayItEC1Ev@Base 2.1.0
 _ZN7blocxx65ArrayItEC2Ev@Base 2.1.0
 _ZN7blocxx65ArrayItED1Ev@Base 2.1.0
 _ZN7blocxx65ArrayItED2Ev@Base 2.1.0
 _ZN7blocxx65IConv12toByteStringERKNS_6StringES3_@Base 2.1.0
 _ZN7blocxx65IConv12toWideStringERKNS_6StringES3_@Base 2.1.0
 _ZN7blocxx65IConv14fromByteStringERKNS_6StringEPKcm@Base 2.1.0
 _ZN7blocxx65IConv14fromByteStringERKNS_6StringERKSs@Base 2.1.0
 _ZN7blocxx65IConv14fromWideStringERKNS_6StringERKSbIwSt11char_traitsIwESaIwEE@Base 2.1.0
 _ZN7blocxx65IOIFCC1Ev@Base 2.1.0
 _ZN7blocxx65IOIFCC2Ev@Base 2.1.0
 _ZN7blocxx65IOIFCD0Ev@Base 2.1.0
 _ZN7blocxx65IOIFCD1Ev@Base 2.1.0
 _ZN7blocxx65IOIFCD2Ev@Base 2.1.0
 _ZN7blocxx65Mutex7acquireEv@Base 2.1.0
 _ZN7blocxx65Mutex7releaseEv@Base 2.1.0
 _ZN7blocxx65MutexC1Ev@Base 2.1.0
 _ZN7blocxx65MutexC2Ev@Base 2.1.0
 _ZN7blocxx65MutexD1Ev@Base 2.1.0
 _ZN7blocxx65MutexD2Ev@Base 2.1.0
 _ZN7blocxx66Char1610readObjectERSt15basic_streambufIcSt11char_traitsIcEE@Base 2.1.0
 _ZN7blocxx66Char16C1ERKNS_6StringE@Base 2.1.0
 _ZN7blocxx66Char16C2ERKNS_6StringE@Base 2.1.0
 _ZN7blocxx66Format3putERKNS_6StringE@Base 2.1.0
 _ZN7blocxx66Format3putEc@Base 2.1.0
 _ZN7blocxx66Format3putEh@Base 2.1.0
 _ZN7blocxx66Format3putEi@Base 2.1.0
 _ZN7blocxx66Format3putEj@Base 2.1.0
 _ZN7blocxx66Format3putEl@Base 2.1.0
 _ZN7blocxx66Format3putEm@Base 2.1.0
 _ZN7blocxx66Format3putEs@Base 2.1.0
 _ZN7blocxx66Format3putEt@Base 2.1.0
 _ZN7blocxx66Format3putEx@Base 2.1.0
 _ZN7blocxx66Format3putEy@Base 2.1.0
 _ZN7blocxx66Format3putIA1_cEEvRKT_@Base 2.1.0
 _ZN7blocxx66Format3putIA2048_cEEvRKT_@Base 2.1.0
 _ZN7blocxx66Format3putIA30_cEEvRKT_@Base 2.1.0
 _ZN7blocxx66Format3putIA65_cEEvRKT_@Base 2.1.0
 _ZN7blocxx66Format3putINS_15ThreadExceptionEEEvRKT_@Base 2.1.0
 _ZN7blocxx66Format3putINS_22DelayedFormatInternals26DelayedFormatReferenceBaseEEEvRKT_@Base 2.1.0
 _ZN7blocxx66Format3putINS_27CancellationDeniedExceptionEEEvRKT_@Base 2.1.0
 _ZN7blocxx66Format3putINS_9ExceptionEEEvRKT_@Base 2.1.0
 _ZN7blocxx66Format3putIPKcEEvRKT_@Base 2.1.0
 _ZN7blocxx66Format3putIPcEEvRKT_@Base 2.1.0
 _ZN7blocxx66Format7processERNS_6StringEc@Base 2.1.0
 _ZN7blocxx66FormatC1EPKcRKNS_6StringE@Base 2.1.0
 _ZN7blocxx66FormatC1EPKcRKNS_6StringES5_@Base 2.1.0
 _ZN7blocxx66FormatC1EPKcRKNS_6StringES5_S5_@Base 2.1.0
 _ZN7blocxx66FormatC1IA1_cEEPKcRKT_@Base 2.1.0
 _ZN7blocxx66FormatC1IA2048_ciEEPKcRKT_RKT0_@Base 2.1.0
 _ZN7blocxx66FormatC1IA30_cNS_6StringEEEPKcRKT_RKT0_@Base 2.1.0
 _ZN7blocxx66FormatC1INS_15ThreadExceptionEEEPKcRKT_@Base 2.1.0
 _ZN7blocxx66FormatC1INS_22DelayedFormatInternals26DelayedFormatReferenceBaseEEEPKcRKT_@Base 2.1.0
 _ZN7blocxx66FormatC1INS_22DelayedFormatInternals26DelayedFormatReferenceBaseES3_EEPKcRKT_RKT0_@Base 2.1.0
 _ZN7blocxx66FormatC1INS_22DelayedFormatInternals26DelayedFormatReferenceBaseES3_S3_EEPKcRKT_RKT0_RKT1_@Base 2.1.0
 _ZN7blocxx66FormatC1INS_22DelayedFormatInternals26DelayedFormatReferenceBaseES3_S3_S3_EEPKcRKT_RKT0_RKT1_RKT2_@Base 2.1.0
 _ZN7blocxx66FormatC1INS_22DelayedFormatInternals26DelayedFormatReferenceBaseES3_S3_S3_S3_EEPKcRKT_RKT0_RKT1_RKT2_RKT3_@Base 2.1.0
 _ZN7blocxx66FormatC1INS_22DelayedFormatInternals26DelayedFormatReferenceBaseES3_S3_S3_S3_S3_EEPKcRKT_RKT0_RKT1_RKT2_RKT3_RKT4_@Base 2.1.0
 _ZN7blocxx66FormatC1INS_22DelayedFormatInternals26DelayedFormatReferenceBaseES3_S3_S3_S3_S3_S3_EEPKcRKT_RKT0_RKT1_RKT2_RKT3_RKT4_RKT5_@Base 2.1.0
 _ZN7blocxx66FormatC1INS_22DelayedFormatInternals26DelayedFormatReferenceBaseES3_S3_S3_S3_S3_S3_S3_EEPKcRKT_RKT0_RKT1_RKT2_RKT3_RKT4_RKT5_RKT6_@Base 2.1.0
 _ZN7blocxx66FormatC1INS_22DelayedFormatInternals26DelayedFormatReferenceBaseES3_S3_S3_S3_S3_S3_S3_S3_EEPKcRKT_RKT0_RKT1_RKT2_RKT3_RKT4_RKT5_RKT6_RKT7_@Base 2.1.0
 _ZN7blocxx66FormatC1INS_27CancellationDeniedExceptionEjEEPKcRKT_RKT0_@Base 2.1.0
 _ZN7blocxx66FormatC1INS_6StringEA65_cEEPKcRKT_RKT0_@Base 2.1.0
 _ZN7blocxx66FormatC1INS_6StringEiEEPKcRKT_RKT0_@Base 2.1.0
 _ZN7blocxx66FormatC1INS_6StringEmS2_EEPKcRKT_RKT0_RKT1_@Base 2.1.0
 _ZN7blocxx66FormatC1INS_6StringEmcEEPKcRKT_RKT0_RKT1_@Base 2.1.0
 _ZN7blocxx66FormatC1INS_9ExceptionEEEPKcRKT_@Base 2.1.0
 _ZN7blocxx66FormatC1IPKcEES3_RKT_@Base 2.1.0
 _ZN7blocxx66FormatC1IPKcS3_EES3_RKT_RKT0_@Base 2.1.0
 _ZN7blocxx66FormatC1IPKciEES3_RKT_RKT0_@Base 2.1.0
 _ZN7blocxx66FormatC1IPKciS3_EES3_RKT_RKT0_RKT1_@Base 2.1.0
 _ZN7blocxx66FormatC1IPcPKcEES4_RKT_RKT0_@Base 2.1.0
 _ZN7blocxx66FormatC1IiEEPKcRKT_@Base 2.1.0
 _ZN7blocxx66FormatC1IiNS_6StringEEEPKcRKT_RKT0_@Base 2.1.0
 _ZN7blocxx66FormatC1IiNS_6StringES2_jEEPKcRKT_RKT0_RKT1_RKT2_@Base 2.1.0
 _ZN7blocxx66FormatC1IiPKcS3_EES3_RKT_RKT0_RKT1_@Base 2.1.0
 _ZN7blocxx66FormatC1IiPcEEPKcRKT_RKT0_@Base 2.1.0
 _ZN7blocxx66FormatC1IiiEEPKcRKT_RKT0_@Base 2.1.0
 _ZN7blocxx66FormatC1IimEEPKcRKT_RKT0_@Base 2.1.0
 _ZN7blocxx66FormatC1IjEEPKcRKT_@Base 2.1.0
 _ZN7blocxx66FormatC1IjNS_15ThreadExceptionEEEPKcRKT_RKT0_@Base 2.1.0
 _ZN7blocxx66FormatC1IlEEPKcRKT_@Base 2.1.0
 _ZN7blocxx66FormatC1ImEEPKcRKT_@Base 2.1.0
 _ZN7blocxx66FormatC1ImmEEPKcRKT_RKT0_@Base 2.1.0
 _ZN7blocxx66FormatC2EPKcRKNS_6StringE@Base 2.1.0
 _ZN7blocxx66FormatC2EPKcRKNS_6StringES5_@Base 2.1.0
 _ZN7blocxx66FormatC2EPKcRKNS_6StringES5_S5_@Base 2.1.0
 _ZN7blocxx66FormatC2IA1_cEEPKcRKT_@Base 2.1.0
 _ZN7blocxx66FormatC2IA2048_ciEEPKcRKT_RKT0_@Base 2.1.0
 _ZN7blocxx66FormatC2IA30_cNS_6StringEEEPKcRKT_RKT0_@Base 2.1.0
 _ZN7blocxx66FormatC2INS_15ThreadExceptionEEEPKcRKT_@Base 2.1.0
 _ZN7blocxx66FormatC2INS_22DelayedFormatInternals26DelayedFormatReferenceBaseEEEPKcRKT_@Base 2.1.0
 _ZN7blocxx66FormatC2INS_22DelayedFormatInternals26DelayedFormatReferenceBaseES3_EEPKcRKT_RKT0_@Base 2.1.0
 _ZN7blocxx66FormatC2INS_22DelayedFormatInternals26DelayedFormatReferenceBaseES3_S3_EEPKcRKT_RKT0_RKT1_@Base 2.1.0
 _ZN7blocxx66FormatC2INS_22DelayedFormatInternals26DelayedFormatReferenceBaseES3_S3_S3_EEPKcRKT_RKT0_RKT1_RKT2_@Base 2.1.0
 _ZN7blocxx66FormatC2INS_22DelayedFormatInternals26DelayedFormatReferenceBaseES3_S3_S3_S3_EEPKcRKT_RKT0_RKT1_RKT2_RKT3_@Base 2.1.0
 _ZN7blocxx66FormatC2INS_22DelayedFormatInternals26DelayedFormatReferenceBaseES3_S3_S3_S3_S3_EEPKcRKT_RKT0_RKT1_RKT2_RKT3_RKT4_@Base 2.1.0
 _ZN7blocxx66FormatC2INS_22DelayedFormatInternals26DelayedFormatReferenceBaseES3_S3_S3_S3_S3_S3_EEPKcRKT_RKT0_RKT1_RKT2_RKT3_RKT4_RKT5_@Base 2.1.0
 _ZN7blocxx66FormatC2INS_22DelayedFormatInternals26DelayedFormatReferenceBaseES3_S3_S3_S3_S3_S3_S3_EEPKcRKT_RKT0_RKT1_RKT2_RKT3_RKT4_RKT5_RKT6_@Base 2.1.0
 _ZN7blocxx66FormatC2INS_22DelayedFormatInternals26DelayedFormatReferenceBaseES3_S3_S3_S3_S3_S3_S3_S3_EEPKcRKT_RKT0_RKT1_RKT2_RKT3_RKT4_RKT5_RKT6_RKT7_@Base 2.1.0
 _ZN7blocxx66FormatC2INS_27CancellationDeniedExceptionEjEEPKcRKT_RKT0_@Base 2.1.0
 _ZN7blocxx66FormatC2INS_6StringEA65_cEEPKcRKT_RKT0_@Base 2.1.0
 _ZN7blocxx66FormatC2INS_6StringEiEEPKcRKT_RKT0_@Base 2.1.0
 _ZN7blocxx66FormatC2INS_6StringEmS2_EEPKcRKT_RKT0_RKT1_@Base 2.1.0
 _ZN7blocxx66FormatC2INS_6StringEmcEEPKcRKT_RKT0_RKT1_@Base 2.1.0
 _ZN7blocxx66FormatC2INS_9ExceptionEEEPKcRKT_@Base 2.1.0
 _ZN7blocxx66FormatC2IPKcEES3_RKT_@Base 2.1.0
 _ZN7blocxx66FormatC2IPKcS3_EES3_RKT_RKT0_@Base 2.1.0
 _ZN7blocxx66FormatC2IPKciEES3_RKT_RKT0_@Base 2.1.0
 _ZN7blocxx66FormatC2IPKciS3_EES3_RKT_RKT0_RKT1_@Base 2.1.0
 _ZN7blocxx66FormatC2IPcPKcEES4_RKT_RKT0_@Base 2.1.0
 _ZN7blocxx66FormatC2IiEEPKcRKT_@Base 2.1.0
 _ZN7blocxx66FormatC2IiNS_6StringEEEPKcRKT_RKT0_@Base 2.1.0
 _ZN7blocxx66FormatC2IiNS_6StringES2_jEEPKcRKT_RKT0_RKT1_RKT2_@Base 2.1.0
 _ZN7blocxx66FormatC2IiPKcS3_EES3_RKT_RKT0_RKT1_@Base 2.1.0
 _ZN7blocxx66FormatC2IiPcEEPKcRKT_RKT0_@Base 2.1.0
 _ZN7blocxx66FormatC2IiiEEPKcRKT_RKT0_@Base 2.1.0
 _ZN7blocxx66FormatC2IimEEPKcRKT_RKT0_@Base 2.1.0
 _ZN7blocxx66FormatC2IjEEPKcRKT_@Base 2.1.0
 _ZN7blocxx66FormatC2IjNS_15ThreadExceptionEEEPKcRKT_RKT0_@Base 2.1.0
 _ZN7blocxx66FormatC2IlEEPKcRKT_@Base 2.1.0
 _ZN7blocxx66FormatC2ImEEPKcRKT_@Base 2.1.0
 _ZN7blocxx66FormatC2ImmEEPKcRKT_RKT0_@Base 2.1.0
 _ZN7blocxx66FormatD1Ev@Base 2.1.0
 _ZN7blocxx66FormatD2Ev@Base 2.1.0
 _ZN7blocxx66Logger11setLogLevelENS_9ELogLevelE@Base 2.1.0
 _ZN7blocxx66Logger11setLogLevelERKNS_6StringE@Base 2.1.0
 _ZN7blocxx66Logger16STR_ALL_CATEGORYE@Base 2.1.0
 _ZN7blocxx66Logger16logLevelToStringENS_9ELogLevelE@Base 2.1.0
 _ZN7blocxx66Logger16stringToLogLevelERKNS_6StringE@Base 2.1.0
 _ZN7blocxx66Logger17STR_INFO_CATEGORYE@Base 2.1.0
 _ZN7blocxx66Logger17STR_NONE_CATEGORYE@Base 2.1.0
 _ZN7blocxx66Logger18STR_DEBUG_CATEGORYE@Base 2.1.0
 _ZN7blocxx66Logger18STR_ERROR_CATEGORYE@Base 2.1.0
 _ZN7blocxx66Logger18STR_FATAL_CATEGORYE@Base 2.1.0
 _ZN7blocxx66Logger19STR_DEBUG2_CATEGORYE@Base 2.1.0
 _ZN7blocxx66Logger19STR_DEBUG3_CATEGORYE@Base 2.1.0
 _ZN7blocxx66Logger19setDefaultComponentERKNS_6StringE@Base 2.1.0
 _ZN7blocxx66Logger20STR_WARNING_CATEGORYE@Base 2.1.0
 _ZN7blocxx66Logger21STR_DEFAULT_COMPONENTE@Base 2.1.0
 _ZN7blocxx66Logger4swapERS0_@Base 2.1.0
 _ZN7blocxx66Logger8asLoggerERKS0_@Base 2.1.0
 _ZN7blocxx66LoggerC1ERKNS_6StringENS_9ELogLevelE@Base 2.1.0
 _ZN7blocxx66LoggerC1ERKNS_6StringERKNS_18IntrusiveReferenceINS_11LogAppenderEEE@Base 2.1.0
 _ZN7blocxx66LoggerC1ERKS0_@Base 2.1.0
 _ZN7blocxx66LoggerC2ERKNS_6StringENS_9ELogLevelE@Base 2.1.0
 _ZN7blocxx66LoggerC2ERKNS_6StringERKNS_18IntrusiveReferenceINS_11LogAppenderEEE@Base 2.1.0
 _ZN7blocxx66LoggerC2ERKS0_@Base 2.1.0
 _ZN7blocxx66LoggerD0Ev@Base 2.1.0
 _ZN7blocxx66LoggerD1Ev@Base 2.1.0
 _ZN7blocxx66LoggerD2Ev@Base 2.1.0
 _ZN7blocxx66LoggeraSERKS0_@Base 2.1.0
 _ZN7blocxx66Secure10rand_rangeItEET_S2_S2_@Base 2.1.0
 _ZN7blocxx66Secure11fork_reseedEv@Base 2.1.0
 _ZN7blocxx66Secure15rand_save_stateEv@Base 2.1.0
 _ZN7blocxx66Secure18minimalEnvironmentEv@Base 2.1.0
 _ZN7blocxx66Secure21ProcessAbortExceptionC1EPKciS3_iPKNS_9ExceptionEi@Base 2.1.0
 _ZN7blocxx66Secure21ProcessAbortExceptionC1ERKS1_@Base 2.1.0
 _ZN7blocxx66Secure21ProcessAbortExceptionC2EPKciS3_iPKNS_9ExceptionEi@Base 2.1.0
 _ZN7blocxx66Secure21ProcessAbortExceptionC2ERKS1_@Base 2.1.0
 _ZN7blocxx66Secure21ProcessAbortExceptionD0Ev@Base 2.1.0
 _ZN7blocxx66Secure21ProcessAbortExceptionD1Ev@Base 2.1.0
 _ZN7blocxx66Secure21ProcessAbortExceptionD2Ev@Base 2.1.0
 _ZN7blocxx66Secure25dropPrivilegesPermanentlyEjjNS0_17EChildGroupActionE@Base 2.1.0
 _ZN7blocxx66Secure4Impl10rand_rangeIaEET_S3_S3_@Base 2.1.0
 _ZN7blocxx66Secure4Impl10rand_rangeIcEET_S3_S3_@Base 2.1.0
 _ZN7blocxx66Secure4Impl10rand_rangeIhEET_S3_S3_@Base 2.1.0
 _ZN7blocxx66Secure4Impl10rand_rangeIiEET_S3_S3_@Base 2.1.0
 _ZN7blocxx66Secure4Impl10rand_rangeIjEET_S3_S3_@Base 2.1.0
 _ZN7blocxx66Secure4Impl10rand_rangeIlEET_S3_S3_@Base 2.1.0
 _ZN7blocxx66Secure4Impl10rand_rangeImEET_S3_S3_@Base 2.1.0
 _ZN7blocxx66Secure4Impl10rand_rangeIsEET_S3_S3_@Base 2.1.0
 _ZN7blocxx66Secure4Impl10rand_rangeItEET_S3_S3_@Base 2.1.0
 _ZN7blocxx66Secure4Impl10rand_rangeIxEET_S3_S3_@Base 2.1.0
 _ZN7blocxx66Secure4Impl10rand_rangeIyEET_S3_S3_@Base 2.1.0
 _ZN7blocxx66Secure4Impl12rand_uint_ltIhEET_S3_@Base 2.1.0
 _ZN7blocxx66Secure4Impl12rand_uint_ltIjEET_S3_@Base 2.1.0
 _ZN7blocxx66Secure4Impl12rand_uint_ltImEET_S3_@Base 2.1.0
 _ZN7blocxx66Secure4Impl12rand_uint_ltItEET_S3_@Base 2.1.0
 _ZN7blocxx66Secure4Impl12rand_uint_ltIyEET_S3_@Base 2.1.0
 _ZN7blocxx66Secure4Impl18rand_unit_intervalIdEET_v@Base 2.1.0
 _ZN7blocxx66Secure4Impl18rand_unit_intervalIeEET_v@Base 2.1.0
 _ZN7blocxx66Secure4Impl18rand_unit_intervalIfEET_v@Base 2.1.0
 _ZN7blocxx66Secure4randEPhm@Base 2.1.0
 _ZN7blocxx66Secure5runAsEPKcNS0_17EChildGroupActionE@Base 2.1.0
 _ZN7blocxx66Secure9rand_initEv@Base 2.1.0
 _ZN7blocxx66Secure9rand_uintIhEET_v@Base 2.1.0
 _ZN7blocxx66Secure9rand_uintIjEET_v@Base 2.1.0
 _ZN7blocxx66Secure9rand_uintImEET_v@Base 2.1.0
 _ZN7blocxx66Secure9rand_uintItEET_v@Base 2.1.0
 _ZN7blocxx66Secure9rand_uintIyEET_v@Base 2.1.0
 _ZN7blocxx66Select12SelectObjectC1Ei@Base 2.1.0
 _ZN7blocxx66Select12SelectObjectC2Ei@Base 2.1.0
 _ZN7blocxx66Select12SelectObjectD1Ev@Base 2.1.0
 _ZN7blocxx66Select12SelectObjectD2Ev@Base 2.1.0
 _ZN7blocxx66Select12selectRWPollERNS_5ArrayINS0_12SelectObjectEEERKNS_7TimeoutE@Base 2.1.0
 _ZN7blocxx66Select13selectRWEpollERNS_5ArrayINS0_12SelectObjectEEERKNS_7TimeoutE@Base 2.1.0
 _ZN7blocxx66Select14selectRWSelectERNS_5ArrayINS0_12SelectObjectEEERKNS_7TimeoutE@Base 2.1.0
 _ZN7blocxx66Select6selectERKNS_5ArrayIiEERKNS_7TimeoutE@Base 2.1.0
 _ZN7blocxx66Select6selectERKNS_5ArrayIiEEj@Base 2.1.0
 _ZN7blocxx66Select8selectRWERNS_5ArrayINS0_12SelectObjectEEERKNS_7TimeoutE@Base 2.1.0
 _ZN7blocxx66Select8selectRWERNS_5ArrayINS0_12SelectObjectEEEj@Base 2.1.0
 _ZN7blocxx66Socket11gotShutDownEv@Base 2.1.0
 _ZN7blocxx66Socket18shutdownAllSocketsEv@Base 2.1.0
 _ZN7blocxx66Socket19s_shutDownMechanismE@Base 2.1.0
 _ZN7blocxx66Socket20getShutDownMechanismEv@Base 2.1.0
 _ZN7blocxx66Socket23createShutDownMechanismEv@Base 2.1.0
 _ZN7blocxx66Socket23deleteShutDownMechanismEv@Base 2.1.0
 _ZN7blocxx66Socket24ShutDownMechanismFactory6createEi@Base 2.1.0
 _ZN7blocxx66Socket4readEPviNS_5IOIFC11ErrorActionE@Base 2.1.0
 _ZN7blocxx66Socket5writeEPKviNS_5IOIFC11ErrorActionE@Base 2.1.0
 _ZN7blocxx66SocketC1ENS_11SocketFlags8ESSLFlagE@Base 2.1.0
 _ZN7blocxx66SocketC1ERKNS_13SocketAddressENS_11SocketFlags8ESSLFlagE@Base 2.1.0
 _ZN7blocxx66SocketC1ERKNS_18IntrusiveReferenceINS_12SSLClientCtxEEE@Base 2.1.0
 _ZN7blocxx66SocketC1EiNS_13SocketAddress11AddressTypeENS_11SocketFlags8ESSLFlagE@Base 2.1.0
 _ZN7blocxx66SocketC1EiNS_13SocketAddress11AddressTypeERKNS_18IntrusiveReferenceINS_12SSLServerCtxEEE@Base 2.1.0
 _ZN7blocxx66SocketC1Ev@Base 2.1.0
 _ZN7blocxx66SocketC2ENS_11SocketFlags8ESSLFlagE@Base 2.1.0
 _ZN7blocxx66SocketC2ERKNS_13SocketAddressENS_11SocketFlags8ESSLFlagE@Base 2.1.0
 _ZN7blocxx66SocketC2ERKNS_18IntrusiveReferenceINS_12SSLClientCtxEEE@Base 2.1.0
 _ZN7blocxx66SocketC2EiNS_13SocketAddress11AddressTypeENS_11SocketFlags8ESSLFlagE@Base 2.1.0
 _ZN7blocxx66SocketC2EiNS_13SocketAddress11AddressTypeERKNS_18IntrusiveReferenceINS_12SSLServerCtxEEE@Base 2.1.0
 _ZN7blocxx66SocketC2Ev@Base 2.1.0
 _ZN7blocxx66SocketD0Ev@Base 2.1.0
 _ZN7blocxx66SocketD1Ev@Base 2.1.0
 _ZN7blocxx66String10readObjectERSt15basic_streambufIcSt11char_traitsIcEE@Base 2.1.0
 _ZN7blocxx66String11toLowerCaseEv@Base 2.1.0
 _ZN7blocxx66String11toUpperCaseEv@Base 2.1.0
 _ZN7blocxx66String4swapERS0_@Base 2.1.0
 _ZN7blocxx66String4trimEv@Base 2.1.0
 _ZN7blocxx66String5eraseEmm@Base 2.1.0
 _ZN7blocxx66String5eraseEv@Base 2.1.0
 _ZN7blocxx66String5ltrimEv@Base 2.1.0
 _ZN7blocxx66String5rtrimEv@Base 2.1.0
 _ZN7blocxx66String6concatEPKc@Base 2.1.0
 _ZN7blocxx66String6concatERKS0_@Base 2.1.0
 _ZN7blocxx66String6concatEc@Base 2.1.0
 _ZN7blocxx66String6formatEPKcz@Base 2.1.0
 _ZN7blocxx66String6strchrEPKci@Base 2.1.0
 _ZN7blocxx66String7ByteBufC1EPKc@Base 2.1.0
 _ZN7blocxx66String7ByteBufC1ERKS1_@Base 2.1.0
 _ZN7blocxx66String7ByteBufC1ERNS_10AutoPtrVecIcEEm@Base 2.1.0
 _ZN7blocxx66String7ByteBufC2EPKc@Base 2.1.0
 _ZN7blocxx66String7ByteBufC2ERKS1_@Base 2.1.0
 _ZN7blocxx66String7ByteBufC2ERNS_10AutoPtrVecIcEEm@Base 2.1.0
 _ZN7blocxx66String7ByteBufD0Ev@Base 2.1.0
 _ZN7blocxx66String7ByteBufD1Ev@Base 2.1.0
 _ZN7blocxx66String7ByteBufD2Ev@Base 2.1.0
 _ZN7blocxx66String7getLineERSi@Base 2.1.0
 _ZN7blocxx66String7strtollEPKcPPci@Base 2.1.0
 _ZN7blocxx66String8strtoullEPKcPPci@Base 2.1.0
 _ZN7blocxx66StringC1ENS0_18ETakeOwnershipFlagEPcm@Base 2.1.0
 _ZN7blocxx66StringC1ENS_4BoolE@Base 2.1.0
 _ZN7blocxx66StringC1EPKc@Base 2.1.0
 _ZN7blocxx66StringC1EPKcm@Base 2.1.0
 _ZN7blocxx66StringC1ERKNS_5ArrayINS_6Char16EEE@Base 2.1.0
 _ZN7blocxx66StringC1ERKNS_6Char16E@Base 2.1.0
 _ZN7blocxx66StringC1ERKS0_@Base 2.1.0
 _ZN7blocxx66StringC1ERKSs@Base 2.1.0
 _ZN7blocxx66StringC1Ec@Base 2.1.0
 _ZN7blocxx66StringC1Ed@Base 2.1.0
 _ZN7blocxx66StringC1Ef@Base 2.1.0
 _ZN7blocxx66StringC1Ei@Base 2.1.0
 _ZN7blocxx66StringC1Ej@Base 2.1.0
 _ZN7blocxx66StringC1El@Base 2.1.0
 _ZN7blocxx66StringC1Em@Base 2.1.0
 _ZN7blocxx66StringC1Ev@Base 2.1.0
 _ZN7blocxx66StringC2ENS0_18ETakeOwnershipFlagEPcm@Base 2.1.0
 _ZN7blocxx66StringC2ENS_4BoolE@Base 2.1.0
 _ZN7blocxx66StringC2EPKc@Base 2.1.0
 _ZN7blocxx66StringC2EPKcm@Base 2.1.0
 _ZN7blocxx66StringC2ERKNS_5ArrayINS_6Char16EEE@Base 2.1.0
 _ZN7blocxx66StringC2ERKNS_6Char16E@Base 2.1.0
 _ZN7blocxx66StringC2ERKS0_@Base 2.1.0
 _ZN7blocxx66StringC2ERKSs@Base 2.1.0
 _ZN7blocxx66StringC2Ec@Base 2.1.0
 _ZN7blocxx66StringC2Ed@Base 2.1.0
 _ZN7blocxx66StringC2Ef@Base 2.1.0
 _ZN7blocxx66StringC2Ei@Base 2.1.0
 _ZN7blocxx66StringC2Ej@Base 2.1.0
 _ZN7blocxx66StringC2El@Base 2.1.0
 _ZN7blocxx66StringC2Em@Base 2.1.0
 _ZN7blocxx66StringC2Ev@Base 2.1.0
 _ZN7blocxx66StringD1Ev@Base 2.1.0
 _ZN7blocxx66StringD2Ev@Base 2.1.0
 _ZN7blocxx66StringaSERKS0_@Base 2.1.0
 _ZN7blocxx66StringixEm@Base 2.1.0
 _ZN7blocxx66StringpLEPKc@Base 2.1.0
 _ZN7blocxx66StringpLERKS0_@Base 2.1.0
 _ZN7blocxx66StringpLEc@Base 2.1.0
 _ZN7blocxx66System12lastErrorMsgEb@Base 2.1.0
 _ZN7blocxx66System8errorMsgEi@Base 2.1.0
 _ZN7blocxx66Thread10doShutdownEv@Base 2.1.0
 _ZN7blocxx66Thread10testCancelEv@Base 2.1.0
 _ZN7blocxx66Thread11doneRunningERKNS_18IntrusiveReferenceINS_18ThreadDoneCallbackEEE@Base 2.1.0
 _ZN7blocxx66Thread12threadRunnerEPv@Base 2.1.0
 _ZN7blocxx66Thread15cancel_internalEb@Base 2.1.0
 _ZN7blocxx66Thread16definitiveCancelERKNS_7TimeoutE@Base 2.1.0
 _ZN7blocxx66Thread16definitiveCancelEj@Base 2.1.0
 _ZN7blocxx66Thread17cooperativeCancelEv@Base 2.1.0
 _ZN7blocxx66Thread18doDefinitiveCancelEv@Base 2.1.0
 _ZN7blocxx66Thread19doCooperativeCancelEv@Base 2.1.0
 _ZN7blocxx66Thread4joinEv@Base 2.1.0
 _ZN7blocxx66Thread5getIdEv@Base 2.1.0
 _ZN7blocxx66Thread5sleepERKNS_7TimeoutE@Base 2.1.0
 _ZN7blocxx66Thread5sleepEj@Base 2.1.0
 _ZN7blocxx66Thread5startERKNS_18IntrusiveReferenceINS_18ThreadDoneCallbackEEE@Base 2.1.0
 _ZN7blocxx66Thread5yieldEv@Base 2.1.0
 _ZN7blocxx66Thread6cancelEv@Base 2.1.0
 _ZN7blocxx66Thread8shutdownERKNS_7TimeoutE@Base 2.1.0
 _ZN7blocxx66Thread8shutdownEv@Base 2.1.0
 _ZN7blocxx66Thread9isRunningEv@Base 2.1.0
 _ZN7blocxx66Thread9timedWaitERKNS_7TimeoutE@Base 2.1.0
 _ZN7blocxx66ThreadC1Ev@Base 2.1.0
 _ZN7blocxx66ThreadC2Ev@Base 2.1.0
 _ZN7blocxx66ThreadD0Ev@Base 2.1.0
 _ZN7blocxx66ThreadD1Ev@Base 2.1.0
 _ZN7blocxx66ThreadD2Ev@Base 2.1.0
 _ZN7blocxx66hton16Et@Base 2.1.0
 _ZN7blocxx66hton32Ej@Base 2.1.0
 _ZN7blocxx66ntoh16Et@Base 2.1.0
 _ZN7blocxx67AutoPtrINS_14TempFileBufferEEC1EPS1_@Base 2.1.0
 _ZN7blocxx67AutoPtrINS_14TempFileBufferEEC2EPS1_@Base 2.1.0
 _ZN7blocxx67AutoPtrINS_14TempFileBufferEED1Ev@Base 2.1.0
 _ZN7blocxx67AutoPtrINS_14TempFileBufferEED2Ev@Base 2.1.0
 _ZN7blocxx67AutoPtrINS_15ExceptionDetail13FormatMsgImplEEC1EPS2_@Base 2.1.0
 _ZN7blocxx67AutoPtrINS_15ExceptionDetail13FormatMsgImplEEC2EPS2_@Base 2.1.0
 _ZN7blocxx67AutoPtrINS_15ExceptionDetail13FormatMsgImplEED1Ev@Base 2.1.0
 _ZN7blocxx67AutoPtrINS_15ExceptionDetail13FormatMsgImplEED2Ev@Base 2.1.0
 _ZN7blocxx67AutoPtrINS_5ArrayINS_6StringEEEE7releaseEv@Base 2.1.0
 _ZN7blocxx67AutoPtrINS_5ArrayINS_6StringEEEEC1EPS3_@Base 2.1.0
 _ZN7blocxx67AutoPtrINS_5ArrayINS_6StringEEEEC2EPS3_@Base 2.1.0
 _ZN7blocxx67AutoPtrINS_5ArrayINS_6StringEEEED1Ev@Base 2.1.0
 _ZN7blocxx67AutoPtrINS_5ArrayINS_6StringEEEED2Ev@Base 2.1.0
 _ZN7blocxx67EnvVars10fillEnvMapEPKPKcRNS_3MapINS_6StringES6_St4lessIS6_EEE@Base 2.1.0
 _ZN7blocxx67EnvVars10fillEnvMapERNS_3MapINS_6StringES2_St4lessIS2_EEE@Base 2.1.0
 _ZN7blocxx67EnvVars6addVarERKNS_6StringES3_@Base 2.1.0
 _ZN7blocxx67EnvVars6setVarERKNS_6StringE@Base 2.1.0
 _ZN7blocxx67EnvVars6setVarERKNS_6StringES3_@Base 2.1.0
 _ZN7blocxx67EnvVars9removeVarERKNS_6StringE@Base 2.1.0
 _ZN7blocxx67EnvVars9updateVarERKNS_6StringES3_@Base 2.1.0
 _ZN7blocxx67EnvVarsC1ENS0_11EEnvVarFlagE@Base 2.1.0
 _ZN7blocxx67EnvVarsC1EPKPKc@Base 2.1.0
 _ZN7blocxx67EnvVarsC2ENS0_11EEnvVarFlagE@Base 2.1.0
 _ZN7blocxx67EnvVarsC2EPKPKc@Base 2.1.0
 _ZN7blocxx67EnvVarsD1Ev@Base 2.1.0
 _ZN7blocxx67EnvVarsD2Ev@Base 2.1.0
 _ZN7blocxx67FileBuf14cppModeToCModeESt13_Ios_Openmode@Base 2.1.0
 _ZN7blocxx67FileBuf16buffer_to_deviceEPKci@Base 2.1.0
 _ZN7blocxx67FileBuf18buffer_from_deviceEPci@Base 2.1.0
 _ZN7blocxx67FileBuf18cppModeToPOSIXModeESt13_Ios_Openmode@Base 2.1.0
 _ZN7blocxx67FileBuf18posixModeToCppModeEi@Base 2.1.0
 _ZN7blocxx67FileBuf4openENS_12AutoResourceINS_20AutoDescriptorPolicyEEE@Base 2.1.0
 _ZN7blocxx67FileBuf4openEP8_IO_FILE@Base 2.1.0
 _ZN7blocxx67FileBuf4openEPKcSt13_Ios_Openmodej@Base 2.1.0
 _ZN7blocxx67FileBuf5closeEv@Base 2.1.0
 _ZN7blocxx67FileBufC1Ev@Base 2.1.0
 _ZN7blocxx67FileBufC2Ev@Base 2.1.0
 _ZN7blocxx67FileBufD0Ev@Base 2.1.0
 _ZN7blocxx67FileBufD1Ev@Base 2.1.0
 _ZN7blocxx67FileBufD2Ev@Base 2.1.0
 _ZN7blocxx67GetPass7getPassERKNS_6StringE@Base 2.1.0
 _ZN7blocxx67IConv_t4openERKNS_6StringES3_@Base 2.1.0
 _ZN7blocxx67IConv_t5closeEv@Base 2.1.0
 _ZN7blocxx67IConv_t7convertEPPcPmS2_S3_@Base 2.1.0
 _ZN7blocxx67IConv_tC1ERKNS_6StringES3_@Base 2.1.0
 _ZN7blocxx67IConv_tC1Ev@Base 2.1.0
 _ZN7blocxx67IConv_tC2ERKNS_6StringES3_@Base 2.1.0
 _ZN7blocxx67IConv_tC2Ev@Base 2.1.0
 _ZN7blocxx67IConv_tD1Ev@Base 2.1.0
 _ZN7blocxx67IConv_tD2Ev@Base 2.1.0
 _ZN7blocxx67NwIface10getNetmaskEv@Base 2.1.0
 _ZN7blocxx67NwIface11sameNetworkERKNS_6StringE@Base 2.1.0
 _ZN7blocxx67NwIface11sameNetworkEm@Base 2.1.0
 _ZN7blocxx67NwIface12getIPAddressEv@Base 2.1.0
 _ZN7blocxx67NwIface15stringToAddressERKNS_6StringE@Base 2.1.0
 _ZN7blocxx67NwIface16getInterfaceNameEi@Base 2.1.0
 _ZN7blocxx67NwIface16getNetmaskStringEv@Base 2.1.0
 _ZN7blocxx67NwIface18getIPAddressStringEv@Base 2.1.0
 _ZN7blocxx67NwIface19getBroadcastAddressEv@Base 2.1.0
 _ZN7blocxx67NwIface25getBroadcastAddressStringEv@Base 2.1.0
 _ZN7blocxx67NwIface7getNameEv@Base 2.1.0
 _ZN7blocxx67NwIfaceC1Ev@Base 2.1.0
 _ZN7blocxx67NwIfaceC2Ev@Base 2.1.0
 _ZN7blocxx67Process13processStatusEv@Base 2.1.0
 _ZN7blocxx67Process13waitCloseTermERKNS_7TimeoutES3_S3_NS0_25ETerminationSelectionFlagE@Base 2.1.0
 _ZN7blocxx67Process13waitCloseTermEfff@Base 2.1.0
 _ZN7blocxx67Process15getCurProcessIdEv@Base 2.1.0
 _ZN7blocxx67Process16terminatesWithinERKNS_7TimeoutE@Base 2.1.0
 _ZN7blocxx67Process6StatusC1Eii@Base 2.1.0
 _ZN7blocxx67Process6StatusC1EiiNS1_4ReprE@Base 2.1.0
 _ZN7blocxx67Process6StatusC1Ev@Base 2.1.0
 _ZN7blocxx67Process6StatusC2Eii@Base 2.1.0
 _ZN7blocxx67Process6StatusC2EiiNS1_4ReprE@Base 2.1.0
 _ZN7blocxx67Process6StatusC2Ev@Base 2.1.0
 _ZN7blocxx67Process7releaseEv@Base 2.1.0
 _ZN7blocxx67Process8killWaitERKNS_7TimeoutEiPKcNS0_25ETerminationSelectionFlagE@Base 2.1.0
 _ZN7blocxx67ProcessC1ERKNS_18IntrusiveReferenceINS_11ProcessImplEEERKNS1_INS_11UnnamedPipeEEES9_S9_i@Base 2.1.0
 _ZN7blocxx67ProcessC1ERKNS_18IntrusiveReferenceINS_11UnnamedPipeEEES5_S5_i@Base 2.1.0
 _ZN7blocxx67ProcessC1Ei@Base 2.1.0
 _ZN7blocxx67ProcessC2ERKNS_18IntrusiveReferenceINS_11ProcessImplEEERKNS1_INS_11UnnamedPipeEEES9_S9_i@Base 2.1.0
 _ZN7blocxx67ProcessC2ERKNS_18IntrusiveReferenceINS_11UnnamedPipeEEES5_S5_i@Base 2.1.0
 _ZN7blocxx67ProcessC2Ei@Base 2.1.0
 _ZN7blocxx67ProcessD0Ev@Base 2.1.0
 _ZN7blocxx67ProcessD1Ev@Base 2.1.0
 _ZN7blocxx67ProcessD2Ev@Base 2.1.0
 _ZN7blocxx67RefSwapIVPNS_8RefCountEEEvRT_S5_@Base 2.1.0
 _ZN7blocxx67RefSwapIVPNS_9ExceptionEEEvRT_S5_@Base 2.1.0
 _ZN7blocxx67SSLOptsC1Ev@Base 2.1.0
 _ZN7blocxx67SSLOptsC2Ev@Base 2.1.0
 _ZN7blocxx67SSLOptsD1Ev@Base 2.1.0
 _ZN7blocxx67SSLOptsD2Ev@Base 2.1.0
 _ZN7blocxx67Timeout17relativeWithResetEf@Base 2.1.0
 _ZN7blocxx67Timeout8absoluteERKNS_8DateTimeE@Base 2.1.0
 _ZN7blocxx67Timeout8infiniteE@Base 2.1.0
 _ZN7blocxx67Timeout8relativeEf@Base 2.1.0
 _ZN7blocxx67TimeoutC1ENS0_12ETimeoutTypeERKNS_8DateTimeE@Base 2.1.0
 _ZN7blocxx67TimeoutC1ENS0_12ETimeoutTypeEf@Base 2.1.0
 _ZN7blocxx67TimeoutC1Ev@Base 2.1.0
 _ZN7blocxx67TimeoutC2ENS0_12ETimeoutTypeERKNS_8DateTimeE@Base 2.1.0
 _ZN7blocxx67TimeoutC2ENS0_12ETimeoutTypeEf@Base 2.1.0
 _ZN7blocxx67TimeoutC2Ev@Base 2.1.0
 _ZN7blocxx67TimeoutD1Ev@Base 2.1.0
 _ZN7blocxx67TimeoutD2Ev@Base 2.1.0
 _ZN7blocxx67file_okERK4statjb@Base 2.1.0
 _ZN7blocxx68Atomic_tC1Ei@Base 2.1.0
 _ZN7blocxx68Atomic_tC2Ei@Base 2.1.0
 _ZN7blocxx68DateTime10getCurrentEv@Base 2.1.0
 _ZN7blocxx68DateTime12setToCurrentEv@Base 2.1.0
 _ZN7blocxx68DateTime14DEFAULT_FORMATE@Base 2.1.0
 _ZN7blocxx68DateTime14setMicrosecondEj@Base 2.1.0
 _ZN7blocxx68DateTime18localTimeAndOffsetElR2tm@Base 2.1.0
 _ZN7blocxx68DateTime3setEiiiiiijNS0_11ETimeOffsetE@Base 2.1.0
 _ZN7blocxx68DateTime3setElj@Base 2.1.0
 _ZN7blocxx68DateTime6setDayEiNS0_11ETimeOffsetE@Base 2.1.0
 _ZN7blocxx68DateTime7addDaysEi@Base 2.1.0
 _ZN7blocxx68DateTime7setHourEiNS0_11ETimeOffsetE@Base 2.1.0
 _ZN7blocxx68DateTime7setTimeER2tmNS0_11ETimeOffsetE@Base 2.1.0
 _ZN7blocxx68DateTime7setTimeEiiiNS0_11ETimeOffsetE@Base 2.1.0
 _ZN7blocxx68DateTime7setYearEiNS0_11ETimeOffsetE@Base 2.1.0
 _ZN7blocxx68DateTime8addYearsEi@Base 2.1.0
 _ZN7blocxx68DateTime8setMonthEiNS0_11ETimeOffsetE@Base 2.1.0
 _ZN7blocxx68DateTime9addMonthsEi@Base 2.1.0
 _ZN7blocxx68DateTime9setMinuteEiNS0_11ETimeOffsetE@Base 2.1.0
 _ZN7blocxx68DateTime9setSecondEiNS0_11ETimeOffsetE@Base 2.1.0
 _ZN7blocxx68DateTimeC1ERKNS_6StringE@Base 2.1.0
 _ZN7blocxx68DateTimeC1EiiiiiijNS0_11ETimeOffsetE@Base 2.1.0
 _ZN7blocxx68DateTimeC1Elj@Base 2.1.0
 _ZN7blocxx68DateTimeC1Ev@Base 2.1.0
 _ZN7blocxx68DateTimeC2ERKNS_6StringE@Base 2.1.0
 _ZN7blocxx68DateTimeC2EiiiiiijNS0_11ETimeOffsetE@Base 2.1.0
 _ZN7blocxx68DateTimeC2Elj@Base 2.1.0
 _ZN7blocxx68DateTimeC2Ev@Base 2.1.0
 _ZN7blocxx68DateTimeD1Ev@Base 2.1.0
 _ZN7blocxx68DateTimeD2Ev@Base 2.1.0
 _ZN7blocxx68IPCMutex4freeEi@Base 2.1.0
 _ZN7blocxx68IPCMutex4waitEv@Base 2.1.0
 _ZN7blocxx68IPCMutex6signalEv@Base 2.1.0
 _ZN7blocxx68IPCMutexC1Ei@Base 2.1.0
 _ZN7blocxx68IPCMutexC2Ei@Base 2.1.0
 _ZN7blocxx68RWLocker11getReadLockERKNS_7TimeoutE@Base 2.1.0
 _ZN7blocxx68RWLocker11getReadLockEjj@Base 2.1.0
 _ZN7blocxx68RWLocker12getWriteLockERKNS_7TimeoutE@Base 2.1.0
 _ZN7blocxx68RWLocker12getWriteLockEjj@Base 2.1.0
 _ZN7blocxx68RWLocker15releaseReadLockEv@Base 2.1.0
 _ZN7blocxx68RWLocker16releaseWriteLockEv@Base 2.1.0
 _ZN7blocxx68RWLockerC1Ev@Base 2.1.0
 _ZN7blocxx68RWLockerC2Ev@Base 2.1.0
 _ZN7blocxx68RWLockerD1Ev@Base 2.1.0
 _ZN7blocxx68RWLockerD2Ev@Base 2.1.0
 _ZN7blocxx68RefCount10decAndTestEv@Base 2.1.0
 _ZN7blocxx68RefCount3incEv@Base 2.1.0
 _ZN7blocxx68RefCountC1ENS_8Atomic_tE@Base 2.1.0
 _ZN7blocxx68RefCountC1Ev@Base 2.1.0
 _ZN7blocxx68RefCountC2ENS_8Atomic_tE@Base 2.1.0
 _ZN7blocxx68RefCountC2Ev@Base 2.1.0
 _ZN7blocxx68Runnable10doShutdownEv@Base 2.1.0
 _ZN7blocxx68Runnable18doDefinitiveCancelEv@Base 2.1.0
 _ZN7blocxx68Runnable19doCooperativeCancelEv@Base 2.1.0
 _ZN7blocxx68RunnableC1Ev@Base 2.1.0
 _ZN7blocxx68RunnableC2Ev@Base 2.1.0
 _ZN7blocxx68RunnableD0Ev@Base 2.1.0
 _ZN7blocxx68RunnableD1Ev@Base 2.1.0
 _ZN7blocxx68RunnableD2Ev@Base 2.1.0
 _ZN7blocxx68callOnceINS_10LazyGlobalINS_18IntrusiveReferenceINS_11UnnamedPipeEEEiNS_6Socket24ShutDownMechanismFactoryEE7InitPtrEEEvRNS_8OnceFlagET_@Base 2.1.0
 _ZN7blocxx68callOnceINS_10LazyGlobalINS_5ArrayINS_6StringEEEKPKcNS_29StringArrayConstructorFactoryEE7InitPtrEEEvRNS_8OnceFlagET_@Base 2.1.0
 _ZN7blocxx68callOnceINS_10LazyGlobalINS_5MutexEiNS_18GlobalMutexFactoryEE7InitPtrEEEvRNS_8OnceFlagET_@Base 2.1.0
 _ZN7blocxx68callOnceINS_10LazyGlobalINS_6StringEKPKcNS_33DefaultVariableConstructorFactoryIS2_S5_EEE7InitPtrEEEvRNS_8OnceFlagET_@Base 2.1.0
 _ZN7blocxx68callOnceINS_9GlobalPtrINS_14ExecMockObjectENS_4Exec4Impl11NullFactoryEE7InitPtrEEEvRNS_8OnceFlagET_@Base 2.1.0
 _ZN7blocxx68callOnceINS_9GlobalPtrINS_20FileSystemMockObjectENS_10FileSystem11NullFactoryEE7InitPtrEEEvRNS_8OnceFlagET_@Base 2.1.0
 _ZN7blocxx68callOnceIPFvvEEEvRNS_8OnceFlagET_@Base 2.1.0
 _ZN7blocxx68group_okEj@Base 2.1.0
 _ZN7blocxx69AtomicGetERKNS_8Atomic_tE@Base 2.1.0
 _ZN7blocxx69AtomicIncERNS_8Atomic_tE@Base 2.1.0
 _ZN7blocxx69Condition11doTimedWaitERNS_17NonRecursiveMutexERKNS_7TimeoutE@Base 2.1.0
 _ZN7blocxx69Condition4waitERNS_21NonRecursiveMutexLockE@Base 2.1.0
 _ZN7blocxx69Condition6doWaitERNS_17NonRecursiveMutexE@Base 2.1.0
 _ZN7blocxx69Condition9notifyAllEv@Base 2.1.0
 _ZN7blocxx69Condition9notifyOneEv@Base 2.1.0
 _ZN7blocxx69Condition9timedWaitERNS_21NonRecursiveMutexLockERKNS_7TimeoutE@Base 2.1.0
 _ZN7blocxx69Condition9timedWaitERNS_21NonRecursiveMutexLockEjj@Base 2.1.0
 _ZN7blocxx69ConditionC1Ev@Base 2.1.0
 _ZN7blocxx69ConditionC2Ev@Base 2.1.0
 _ZN7blocxx69ConditionD1Ev@Base 2.1.0
 _ZN7blocxx69ConditionD2Ev@Base 2.1.0
 _ZN7blocxx69Exception12setErrorCodeEi@Base 2.1.0
 _ZN7blocxx69Exception13setSubClassIdEi@Base 2.1.0
 _ZN7blocxx69Exception4swapERS0_@Base 2.1.0
 _ZN7blocxx69Exception9dupStringEPKc@Base 2.1.0
 _ZN7blocxx69ExceptionC1EPKciS2_@Base 2.1.0
 _ZN7blocxx69ExceptionC1EPKciS2_iPKS0_i@Base 2.1.0
 _ZN7blocxx69ExceptionC1ERKS0_@Base 2.1.0
 _ZN7blocxx69ExceptionC1EiPKciS2_iPKS0_@Base 2.1.0
 _ZN7blocxx69ExceptionC2EPKciS2_@Base 2.1.0
 _ZN7blocxx69ExceptionC2EPKciS2_iPKS0_i@Base 2.1.0
 _ZN7blocxx69ExceptionC2ERKS0_@Base 2.1.0
 _ZN7blocxx69ExceptionC2EiPKciS2_iPKS0_@Base 2.1.0
 _ZN7blocxx69ExceptionD0Ev@Base 2.1.0
 _ZN7blocxx69ExceptionD1Ev@Base 2.1.0
 _ZN7blocxx69ExceptionD2Ev@Base 2.1.0
 _ZN7blocxx69ExceptionaSERKS0_@Base 2.1.0
 _ZN7blocxx69GlobalPtrINS_14ExecMockObjectENS_4Exec4Impl11NullFactoryEE7InitPtrC1ERPS1_@Base 2.1.0
 _ZN7blocxx69GlobalPtrINS_14ExecMockObjectENS_4Exec4Impl11NullFactoryEE7InitPtrC2ERPS1_@Base 2.1.0
 _ZN7blocxx69GlobalPtrINS_14ExecMockObjectENS_4Exec4Impl11NullFactoryEE7InitPtrclEv@Base 2.1.0
 _ZN7blocxx69GlobalPtrINS_20FileSystemMockObjectENS_10FileSystem11NullFactoryEE7InitPtrC1ERPS1_@Base 2.1.0
 _ZN7blocxx69GlobalPtrINS_20FileSystemMockObjectENS_10FileSystem11NullFactoryEE7InitPtrC2ERPS1_@Base 2.1.0
 _ZN7blocxx69GlobalPtrINS_20FileSystemMockObjectENS_10FileSystem11NullFactoryEE7InitPtrclEv@Base 2.1.0
 _ZN7blocxx69MutexImpl11createMutexERNS_7Mutex_tE@Base 2.1.0
 _ZN7blocxx69MutexImpl12acquireMutexERNS_7Mutex_tE@Base 2.1.0
 _ZN7blocxx69MutexImpl12destroyMutexERNS_7Mutex_tE@Base 2.1.0
 _ZN7blocxx69MutexImpl12releaseMutexERNS_7Mutex_tE@Base 2.1.0
 _ZN7blocxx69MutexLock4lockEv@Base 2.1.0
 _ZN7blocxx69MutexLock7releaseEv@Base 2.1.0
 _ZN7blocxx69MutexLockC1ERNS_5MutexEb@Base 2.1.0
 _ZN7blocxx69MutexLockC2ERNS_5MutexEb@Base 2.1.0
 _ZN7blocxx69MutexLockD1Ev@Base 2.1.0
 _ZN7blocxx69MutexLockD2Ev@Base 2.1.0
 _ZN7blocxx69PerlRegEx4grepERKNS_5ArrayINS_6StringEEEi@Base 2.1.0
 _ZN7blocxx69PerlRegEx5splitERKNS_6StringEbi@Base 2.1.0
 _ZN7blocxx69PerlRegEx7captureERKNS_6StringEmmi@Base 2.1.0
 _ZN7blocxx69PerlRegEx7compileERKNS_6StringEi@Base 2.1.0
 _ZN7blocxx69PerlRegEx7executeERNS_5ArrayINS0_7match_tEEERKNS_6StringEmmi@Base 2.1.0
 _ZN7blocxx69PerlRegEx7executeERNS_5ArrayIiEERKNS_6StringEmmi@Base 2.1.0
 _ZN7blocxx69PerlRegEx7replaceERKNS_6StringES3_bi@Base 2.1.0
 _ZN7blocxx69PerlRegEx9errorCodeEv@Base 2.1.0
 _ZN7blocxx69PerlRegExC1ERKNS_6StringEi@Base 2.1.0
 _ZN7blocxx69PerlRegExC1ERKS0_@Base 2.1.0
 _ZN7blocxx69PerlRegExC1Ev@Base 2.1.0
 _ZN7blocxx69PerlRegExC2ERKNS_6StringEi@Base 2.1.0
 _ZN7blocxx69PerlRegExC2ERKS0_@Base 2.1.0
 _ZN7blocxx69PerlRegExC2Ev@Base 2.1.0
 _ZN7blocxx69PerlRegExD1Ev@Base 2.1.0
 _ZN7blocxx69PerlRegExD2Ev@Base 2.1.0
 _ZN7blocxx69PerlRegExaSERKS0_@Base 2.1.0
 _ZN7blocxx69PosixExec13SystemPreExec4callEPKPNS_11UnnamedPipeE@Base 2.1.0
 _ZN7blocxx69PosixExec13SystemPreExecC1Ev@Base 2.1.0
 _ZN7blocxx69PosixExec13SystemPreExecC2Ev@Base 2.1.0
 _ZN7blocxx69PosixExec13SystemPreExecD0Ev@Base 2.1.0
 _ZN7blocxx69PosixExec13SystemPreExecD1Ev@Base 2.1.0
 _ZN7blocxx69PosixExec13SystemPreExecD2Ev@Base 2.1.0
 _ZN7blocxx69PosixExec15StandardPreExec4callEPKPNS_11UnnamedPipeE@Base 2.1.0
 _ZN7blocxx69PosixExec15StandardPreExecC1Ev@Base 2.1.0
 _ZN7blocxx69PosixExec15StandardPreExecC2Ev@Base 2.1.0
 _ZN7blocxx69PosixExec15StandardPreExecD0Ev@Base 2.1.0
 _ZN7blocxx69PosixExec15StandardPreExecD1Ev@Base 2.1.0
 _ZN7blocxx69PosixExec15StandardPreExecD2Ev@Base 2.1.0
 _ZN7blocxx69PosixExec9spawnImplEPKcPKS2_S4_RNS_4Exec7PreExecE@Base 2.1.0
 _ZN7blocxx69ReferenceINS_13DelayedFormatEE6decRefEv@Base 2.1.0
 _ZN7blocxx69ReferenceINS_13DelayedFormatEEC1ERKS2_@Base 2.1.0
 _ZN7blocxx69ReferenceINS_13DelayedFormatEEC1Ev@Base 2.1.0
 _ZN7blocxx69ReferenceINS_13DelayedFormatEEC2ERKS2_@Base 2.1.0
 _ZN7blocxx69ReferenceINS_13DelayedFormatEEC2Ev@Base 2.1.0
 _ZN7blocxx69ReferenceINS_13DelayedFormatEED1Ev@Base 2.1.0
 _ZN7blocxx69ReferenceINS_13DelayedFormatEED2Ev@Base 2.1.0
 _ZN7blocxx69ReferenceINS_22DelayedFormatInternals26DelayedFormatReferenceBaseEE6decRefEv@Base 2.1.0
 _ZN7blocxx69ReferenceINS_22DelayedFormatInternals26DelayedFormatReferenceBaseEED1Ev@Base 2.1.0
 _ZN7blocxx69ReferenceINS_22DelayedFormatInternals26DelayedFormatReferenceBaseEED2Ev@Base 2.1.0
 _ZN7blocxx69ReferenceINS_9ExceptionEE4swapERS2_@Base 2.1.0
 _ZN7blocxx69ReferenceINS_9ExceptionEE6decRefEv@Base 2.1.0
 _ZN7blocxx69ReferenceINS_9ExceptionEEC1EPS1_@Base 2.1.0
 _ZN7blocxx69ReferenceINS_9ExceptionEEC1Ev@Base 2.1.0
 _ZN7blocxx69ReferenceINS_9ExceptionEEC2EPS1_@Base 2.1.0
 _ZN7blocxx69ReferenceINS_9ExceptionEEC2Ev@Base 2.1.0
 _ZN7blocxx69ReferenceINS_9ExceptionEED1Ev@Base 2.1.0
 _ZN7blocxx69ReferenceINS_9ExceptionEED2Ev@Base 2.1.0
 _ZN7blocxx69ReferenceINS_9ExceptionEEaSEPS1_@Base 2.1.0
 _ZN7blocxx69SSLCtxMgr10initClientERKNS_6StringES3_@Base 2.1.0
 _ZN7blocxx69SSLCtxMgr10initServerERKNS_6StringES3_@Base 2.1.0
 _ZN7blocxx69SSLCtxMgr11m_ctxClientE@Base 2.1.0
 _ZN7blocxx69SSLCtxMgr11m_ctxServerE@Base 2.1.0
 _ZN7blocxx69SSLCtxMgr12disableLocksEv@Base 2.1.0
 _ZN7blocxx69SSLCtxMgr12loadDHParamsEP10ssl_ctx_stRKNS_6StringE@Base 2.1.0
 _ZN7blocxx69SSLCtxMgr12uninitClientEv@Base 2.1.0
 _ZN7blocxx69SSLCtxMgr12uninitServerEv@Base 2.1.0
 _ZN7blocxx69SSLCtxMgr13pem_passwd_cbEPciiPv@Base 2.1.0
 _ZN7blocxx69SSLCtxMgr14disableSSLInitEv@Base 2.1.0
 _ZN7blocxx69SSLCtxMgr15checkClientCertEP6ssl_stRKNS_6StringE@Base 2.1.0
 _ZN7blocxx69SSLCtxMgr15checkServerCertEP6ssl_stRKNS_6StringE@Base 2.1.0
 _ZN7blocxx69SSLCtxMgr15getSSLCtxServerEv@Base 2.1.0
 _ZN7blocxx69SSLCtxMgr17generateEphRSAKeyEP10ssl_ctx_st@Base 2.1.0
 _ZN7blocxx69SSLCtxMgr18getSSLInitDisabledEv@Base 2.1.0
 _ZN7blocxx69SSLCtxMgr19getSSLLocksDisabledEv@Base 2.1.0
 _ZN7blocxx69SSLCtxMgr20m_clientCertVerifyCBE@Base 2.1.0
 _ZN7blocxx69SSLCtxMgr20m_serverCertVerifyCBE@Base 2.1.0
 _ZN7blocxx69SSLCtxMgr26getOpenSSLErrorDescriptionEv@Base 2.1.0
 _ZN7blocxx69SSLCtxMgr6uninitEv@Base 2.1.0
 _ZN7blocxx69SSLCtxMgr7initCtxERKNS_6StringES3_P11evp_pkey_st@Base 2.1.0
 _ZN7blocxx69SSLCtxMgr7sslReadEP6ssl_stPci@Base 2.1.0
 _ZN7blocxx69SSLCtxMgr8isClientEv@Base 2.1.0
 _ZN7blocxx69SSLCtxMgr8isServerEv@Base 2.1.0
 _ZN7blocxx69SSLCtxMgr8sslWriteEP6ssl_stPKci@Base 2.1.0
 _ZN7blocxx69SSLCtxMgr9checkCertEP6ssl_stRKNS_6StringEPFiP7x509_stS5_E@Base 2.1.0
 _ZN7blocxx69UTF8Utils10UCS2toUTF8Et@Base 2.1.0
 _ZN7blocxx69UTF8Utils10UCS4toUTF8Ej@Base 2.1.0
 _ZN7blocxx69UTF8Utils10UCS4toUTF8EjRNS_12StringBufferE@Base 2.1.0
 _ZN7blocxx69UTF8Utils10UTF8toUCS2EPKc@Base 2.1.0
 _ZN7blocxx69UTF8Utils10UTF8toUCS4EPKc@Base 2.1.0
 _ZN7blocxx69UTF8Utils11toLowerCaseEPKc@Base 2.1.0
 _ZN7blocxx69UTF8Utils11toUpperCaseEPKc@Base 2.1.0
 _ZN7blocxx69UTF8Utils12StringToUCS2ERKNS_6StringE@Base 2.1.0
 _ZN7blocxx69UTF8Utils12UCS2ToStringEPKvm@Base 2.1.0
 _ZN7blocxx69UTF8Utils12UCS2ToStringERKNS_5ArrayIcEE@Base 2.1.0
 _ZN7blocxx69UTF8Utils12UCS2ToStringERKNS_5ArrayItEE@Base 2.1.0
 _ZN7blocxx69UTF8Utils18toLowerCaseInPlaceEPc@Base 2.1.0
 _ZN7blocxx69UTF8Utils18toUpperCaseInPlaceEPc@Base 2.1.0
 _ZN7blocxx69UTF8Utils19compareToIgnoreCaseEPKcS2_@Base 2.1.0
 _ZN7blocxx69UTF8Utils26StringToUCS2ReplaceInvalidERKNS_6StringE@Base 2.1.0
 _ZN7blocxx69UTF8Utils9charCountEPKc@Base 2.1.0
 _ZN7blocxx69UserUtils11getUserNameEjRb@Base 2.1.0
 _ZN7blocxx69UserUtils18getCurrentUserNameEv@Base 2.1.0
 _ZN7blocxx69UserUtils18getEffectiveUserIdEv@Base 2.1.0
 _ZN7blocxx69UserUtils9getUserIdERKNS_6StringERb@Base 2.1.0
 _ZN7blocxx6eqERKNS_12StringBufferERKNS_6StringE@Base 2.1.0
 _ZN7blocxx6eqERKNS_12StringBufferES2_@Base 2.1.0
 _ZN7blocxx6eqERKNS_4UUIDES2_@Base 2.1.0
 _ZN7blocxx6eqERKNS_6StringEPKc@Base 2.1.0
 _ZN7blocxx6eqERKNS_6StringERKNS_12StringBufferE@Base 2.1.0
 _ZN7blocxx6eqERKNS_6StringES2_@Base 2.1.0
 _ZN7blocxx6eqERKNS_7TimeoutES2_@Base 2.1.0
 _ZN7blocxx6eqINS_11UnnamedPipeES1_EEbRKNS_18IntrusiveReferenceIT_EERKNS2_IT0_EE@Base 2.1.0
 _ZN7blocxx6lsERSoRKNS_12StringBufferE@Base 2.1.0
 _ZN7blocxx6lsERSoRKNS_4BoolE@Base 2.1.0
 _ZN7blocxx6lsERSoRKNS_6Char16E@Base 2.1.0
 _ZN7blocxx6lsERSoRKNS_6FormatE@Base 2.1.0
 _ZN7blocxx6lsERSoRKNS_6StringE@Base 2.1.0
 _ZN7blocxx6lsERSoRKNS_9ExceptionE@Base 2.1.0
 _ZN7blocxx6ltERKNS_4UUIDES2_@Base 2.1.0
 _ZN7blocxx6ltERKNS_6StringES2_@Base 2.1.0
 _ZN7blocxx6miERKNS_8DateTimeES2_@Base 2.1.0
 _ZN7blocxx6neERKNS_12StringBufferERKNS_6StringE@Base 2.1.0
 _ZN7blocxx6neERKNS_12StringBufferES2_@Base 2.1.0
 _ZN7blocxx6neERKNS_4UUIDES2_@Base 2.1.0
 _ZN7blocxx6neERKNS_6StringEPKc@Base 2.1.0
 _ZN7blocxx6neERKNS_6StringERKNS_12StringBufferE@Base 2.1.0
 _ZN7blocxx6neERKNS_7TimeoutES2_@Base 2.1.0
 _ZN7blocxx6plEPKcRKNS_6StringE@Base 2.1.0
 _ZN7blocxx6plERKNS_6StringEPKc@Base 2.1.0
 _ZN7blocxx6plERKNS_6StringES2_@Base 2.1.0
 _ZN7blocxx6plERKNS_6StringEc@Base 2.1.0
 _ZN7blocxx6plEcRKNS_6StringE@Base 2.1.0
 _ZN9__gnu_cxx13__scoped_lockC1ERNS_7__mutexE@Base 2.1.0
 _ZN9__gnu_cxx13__scoped_lockC2ERNS_7__mutexE@Base 2.1.0
 _ZN9__gnu_cxx13__scoped_lockD1Ev@Base 2.1.0
 _ZN9__gnu_cxx13__scoped_lockD2Ev@Base 2.1.0
 _ZN9__gnu_cxx13new_allocatorI10regmatch_tE10deallocateEPS1_m@Base 2.1.0
 _ZN9__gnu_cxx13new_allocatorI10regmatch_tE8allocateEmPKv@Base 2.1.0
 _ZN9__gnu_cxx13new_allocatorI10regmatch_tEC1ERKS2_@Base 2.1.0
 _ZN9__gnu_cxx13new_allocatorI10regmatch_tEC1Ev@Base 2.1.0
 _ZN9__gnu_cxx13new_allocatorI10regmatch_tEC2ERKS2_@Base 2.1.0
 _ZN9__gnu_cxx13new_allocatorI10regmatch_tEC2Ev@Base 2.1.0
 _ZN9__gnu_cxx13new_allocatorI10regmatch_tED1Ev@Base 2.1.0
 _ZN9__gnu_cxx13new_allocatorI10regmatch_tED2Ev@Base 2.1.0
 _ZN9__gnu_cxx13new_allocatorIN7blocxx618IntrusiveReferenceINS1_11LogAppenderEEEE10deallocateEPS4_m@Base 2.1.0
 _ZN9__gnu_cxx13new_allocatorIN7blocxx618IntrusiveReferenceINS1_11LogAppenderEEEE7destroyEPS4_@Base 2.1.0
 _ZN9__gnu_cxx13new_allocatorIN7blocxx618IntrusiveReferenceINS1_11LogAppenderEEEE8allocateEmPKv@Base 2.1.0
 _ZN9__gnu_cxx13new_allocatorIN7blocxx618IntrusiveReferenceINS1_11LogAppenderEEEE9constructEPS4_RKS4_@Base 2.1.0
 _ZN9__gnu_cxx13new_allocatorIN7blocxx618IntrusiveReferenceINS1_11LogAppenderEEEEC1ERKS5_@Base 2.1.0
 _ZN9__gnu_cxx13new_allocatorIN7blocxx618IntrusiveReferenceINS1_11LogAppenderEEEEC1Ev@Base 2.1.0
 _ZN9__gnu_cxx13new_allocatorIN7blocxx618IntrusiveReferenceINS1_11LogAppenderEEEEC2ERKS5_@Base 2.1.0
 _ZN9__gnu_cxx13new_allocatorIN7blocxx618IntrusiveReferenceINS1_11LogAppenderEEEEC2Ev@Base 2.1.0
 _ZN9__gnu_cxx13new_allocatorIN7blocxx618IntrusiveReferenceINS1_11LogAppenderEEEED1Ev@Base 2.1.0
 _ZN9__gnu_cxx13new_allocatorIN7blocxx618IntrusiveReferenceINS1_11LogAppenderEEEED2Ev@Base 2.1.0
 _ZN9__gnu_cxx13new_allocatorIN7blocxx618IntrusiveReferenceINS1_26LogMessagePatternFormatter9ConverterEEEE10deallocateEPS5_m@Base 2.1.0
 _ZN9__gnu_cxx13new_allocatorIN7blocxx618IntrusiveReferenceINS1_26LogMessagePatternFormatter9ConverterEEEE7destroyEPS5_@Base 2.1.0
 _ZN9__gnu_cxx13new_allocatorIN7blocxx618IntrusiveReferenceINS1_26LogMessagePatternFormatter9ConverterEEEE8allocateEmPKv@Base 2.1.0
 _ZN9__gnu_cxx13new_allocatorIN7blocxx618IntrusiveReferenceINS1_26LogMessagePatternFormatter9ConverterEEEE9constructEPS5_RKS5_@Base 2.1.0
 _ZN9__gnu_cxx13new_allocatorIN7blocxx618IntrusiveReferenceINS1_26LogMessagePatternFormatter9ConverterEEEEC1ERKS6_@Base 2.1.0
 _ZN9__gnu_cxx13new_allocatorIN7blocxx618IntrusiveReferenceINS1_26LogMessagePatternFormatter9ConverterEEEEC1Ev@Base 2.1.0
 _ZN9__gnu_cxx13new_allocatorIN7blocxx618IntrusiveReferenceINS1_26LogMessagePatternFormatter9ConverterEEEEC2ERKS6_@Base 2.1.0
 _ZN9__gnu_cxx13new_allocatorIN7blocxx618IntrusiveReferenceINS1_26LogMessagePatternFormatter9ConverterEEEEC2Ev@Base 2.1.0
 _ZN9__gnu_cxx13new_allocatorIN7blocxx618IntrusiveReferenceINS1_26LogMessagePatternFormatter9ConverterEEEED1Ev@Base 2.1.0
 _ZN9__gnu_cxx13new_allocatorIN7blocxx618IntrusiveReferenceINS1_26LogMessagePatternFormatter9ConverterEEEED2Ev@Base 2.1.0
 _ZN9__gnu_cxx13new_allocatorIN7blocxx618IntrusiveReferenceINS1_6ThreadEEEE10deallocateEPS4_m@Base 2.1.0
 _ZN9__gnu_cxx13new_allocatorIN7blocxx618IntrusiveReferenceINS1_6ThreadEEEE7destroyEPS4_@Base 2.1.0
 _ZN9__gnu_cxx13new_allocatorIN7blocxx618IntrusiveReferenceINS1_6ThreadEEEE8allocateEmPKv@Base 2.1.0
 _ZN9__gnu_cxx13new_allocatorIN7blocxx618IntrusiveReferenceINS1_6ThreadEEEE9constructEPS4_RKS4_@Base 2.1.0
 _ZN9__gnu_cxx13new_allocatorIN7blocxx618IntrusiveReferenceINS1_6ThreadEEEEC1ERKS5_@Base 2.1.0
 _ZN9__gnu_cxx13new_allocatorIN7blocxx618IntrusiveReferenceINS1_6ThreadEEEEC1Ev@Base 2.1.0
 _ZN9__gnu_cxx13new_allocatorIN7blocxx618IntrusiveReferenceINS1_6ThreadEEEEC2ERKS5_@Base 2.1.0
 _ZN9__gnu_cxx13new_allocatorIN7blocxx618IntrusiveReferenceINS1_6ThreadEEEEC2Ev@Base 2.1.0
 _ZN9__gnu_cxx13new_allocatorIN7blocxx618IntrusiveReferenceINS1_6ThreadEEEED1Ev@Base 2.1.0
 _ZN9__gnu_cxx13new_allocatorIN7blocxx618IntrusiveReferenceINS1_6ThreadEEEED2Ev@Base 2.1.0
 _ZN9__gnu_cxx13new_allocatorIN7blocxx618IntrusiveReferenceINS1_7ProcessEEEE10deallocateEPS4_m@Base 2.1.0
 _ZN9__gnu_cxx13new_allocatorIN7blocxx618IntrusiveReferenceINS1_7ProcessEEEE7destroyEPS4_@Base 2.1.0
 _ZN9__gnu_cxx13new_allocatorIN7blocxx618IntrusiveReferenceINS1_7ProcessEEEE8allocateEmPKv@Base 2.1.0
 _ZN9__gnu_cxx13new_allocatorIN7blocxx618IntrusiveReferenceINS1_7ProcessEEEE9constructEPS4_RKS4_@Base 2.1.0
 _ZN9__gnu_cxx13new_allocatorIN7blocxx618IntrusiveReferenceINS1_7ProcessEEEEC1ERKS5_@Base 2.1.0
 _ZN9__gnu_cxx13new_allocatorIN7blocxx618IntrusiveReferenceINS1_7ProcessEEEEC1Ev@Base 2.1.0
 _ZN9__gnu_cxx13new_allocatorIN7blocxx618IntrusiveReferenceINS1_7ProcessEEEEC2ERKS5_@Base 2.1.0
 _ZN9__gnu_cxx13new_allocatorIN7blocxx618IntrusiveReferenceINS1_7ProcessEEEEC2Ev@Base 2.1.0
 _ZN9__gnu_cxx13new_allocatorIN7blocxx618IntrusiveReferenceINS1_7ProcessEEEED1Ev@Base 2.1.0
 _ZN9__gnu_cxx13new_allocatorIN7blocxx618IntrusiveReferenceINS1_7ProcessEEEED2Ev@Base 2.1.0
 _ZN9__gnu_cxx13new_allocatorIN7blocxx618IntrusiveReferenceINS1_8RunnableEEEE10deallocateEPS4_m@Base 2.1.0
 _ZN9__gnu_cxx13new_allocatorIN7blocxx618IntrusiveReferenceINS1_8RunnableEEEE7destroyEPS4_@Base 2.1.0
 _ZN9__gnu_cxx13new_allocatorIN7blocxx618IntrusiveReferenceINS1_8RunnableEEEE8allocateEmPKv@Base 2.1.0
 _ZN9__gnu_cxx13new_allocatorIN7blocxx618IntrusiveReferenceINS1_8RunnableEEEE9constructEPS4_RKS4_@Base 2.1.0
 _ZN9__gnu_cxx13new_allocatorIN7blocxx618IntrusiveReferenceINS1_8RunnableEEEEC1ERKS5_@Base 2.1.0
 _ZN9__gnu_cxx13new_allocatorIN7blocxx618IntrusiveReferenceINS1_8RunnableEEEEC1Ev@Base 2.1.0
 _ZN9__gnu_cxx13new_allocatorIN7blocxx618IntrusiveReferenceINS1_8RunnableEEEEC2ERKS5_@Base 2.1.0
 _ZN9__gnu_cxx13new_allocatorIN7blocxx618IntrusiveReferenceINS1_8RunnableEEEEC2Ev@Base 2.1.0
 _ZN9__gnu_cxx13new_allocatorIN7blocxx618IntrusiveReferenceINS1_8RunnableEEEED1Ev@Base 2.1.0
 _ZN9__gnu_cxx13new_allocatorIN7blocxx618IntrusiveReferenceINS1_8RunnableEEEED2Ev@Base 2.1.0
 _ZN9__gnu_cxx13new_allocatorIN7blocxx65ArrayIcEEE10deallocateEPS3_m@Base 2.1.0
 _ZN9__gnu_cxx13new_allocatorIN7blocxx65ArrayIcEEE8allocateEmPKv@Base 2.1.0
 _ZN9__gnu_cxx13new_allocatorIN7blocxx65ArrayIcEEEC1ERKS4_@Base 2.1.0
 _ZN9__gnu_cxx13new_allocatorIN7blocxx65ArrayIcEEEC1Ev@Base 2.1.0
 _ZN9__gnu_cxx13new_allocatorIN7blocxx65ArrayIcEEEC2ERKS4_@Base 2.1.0
 _ZN9__gnu_cxx13new_allocatorIN7blocxx65ArrayIcEEEC2Ev@Base 2.1.0
 _ZN9__gnu_cxx13new_allocatorIN7blocxx65ArrayIcEEED1Ev@Base 2.1.0
 _ZN9__gnu_cxx13new_allocatorIN7blocxx65ArrayIcEEED2Ev@Base 2.1.0
 _ZN9__gnu_cxx13new_allocatorIN7blocxx66Select12SelectObjectEE10deallocateEPS3_m@Base 2.1.0
 _ZN9__gnu_cxx13new_allocatorIN7blocxx66Select12SelectObjectEE7destroyEPS3_@Base 2.1.0
 _ZN9__gnu_cxx13new_allocatorIN7blocxx66Select12SelectObjectEE8allocateEmPKv@Base 2.1.0
 _ZN9__gnu_cxx13new_allocatorIN7blocxx66Select12SelectObjectEE9constructEPS3_RKS3_@Base 2.1.0
 _ZN9__gnu_cxx13new_allocatorIN7blocxx66Select12SelectObjectEEC1ERKS4_@Base 2.1.0
 _ZN9__gnu_cxx13new_allocatorIN7blocxx66Select12SelectObjectEEC1Ev@Base 2.1.0
 _ZN9__gnu_cxx13new_allocatorIN7blocxx66Select12SelectObjectEEC2ERKS4_@Base 2.1.0
 _ZN9__gnu_cxx13new_allocatorIN7blocxx66Select12SelectObjectEEC2Ev@Base 2.1.0
 _ZN9__gnu_cxx13new_allocatorIN7blocxx66Select12SelectObjectEED1Ev@Base 2.1.0
 _ZN9__gnu_cxx13new_allocatorIN7blocxx66Select12SelectObjectEED2Ev@Base 2.1.0
 _ZN9__gnu_cxx13new_allocatorIN7blocxx66StringEE10deallocateEPS2_m@Base 2.1.0
 _ZN9__gnu_cxx13new_allocatorIN7blocxx66StringEE7destroyEPS2_@Base 2.1.0
 _ZN9__gnu_cxx13new_allocatorIN7blocxx66StringEE8allocateEmPKv@Base 2.1.0
 _ZN9__gnu_cxx13new_allocatorIN7blocxx66StringEE9constructEPS2_RKS2_@Base 2.1.0
 _ZN9__gnu_cxx13new_allocatorIN7blocxx66StringEEC1ERKS3_@Base 2.1.0
 _ZN9__gnu_cxx13new_allocatorIN7blocxx66StringEEC1Ev@Base 2.1.0
 _ZN9__gnu_cxx13new_allocatorIN7blocxx66StringEEC2ERKS3_@Base 2.1.0
 _ZN9__gnu_cxx13new_allocatorIN7blocxx66StringEEC2Ev@Base 2.1.0
 _ZN9__gnu_cxx13new_allocatorIN7blocxx66StringEED1Ev@Base 2.1.0
 _ZN9__gnu_cxx13new_allocatorIN7blocxx66StringEED2Ev@Base 2.1.0
 _ZN9__gnu_cxx13new_allocatorIN7blocxx69PerlRegEx7match_tEE10deallocateEPS3_m@Base 2.1.0
 _ZN9__gnu_cxx13new_allocatorIN7blocxx69PerlRegEx7match_tEE8allocateEmPKv@Base 2.1.0
 _ZN9__gnu_cxx13new_allocatorIN7blocxx69PerlRegEx7match_tEEC1ERKS4_@Base 2.1.0
 _ZN9__gnu_cxx13new_allocatorIN7blocxx69PerlRegEx7match_tEEC1Ev@Base 2.1.0
 _ZN9__gnu_cxx13new_allocatorIN7blocxx69PerlRegEx7match_tEEC2ERKS4_@Base 2.1.0
 _ZN9__gnu_cxx13new_allocatorIN7blocxx69PerlRegEx7match_tEEC2Ev@Base 2.1.0
 _ZN9__gnu_cxx13new_allocatorIN7blocxx69PerlRegEx7match_tEED1Ev@Base 2.1.0
 _ZN9__gnu_cxx13new_allocatorIN7blocxx69PerlRegEx7match_tEED2Ev@Base 2.1.0
 _ZN9__gnu_cxx13new_allocatorIN7blocxx69ReferenceINS1_22DelayedFormatInternals26DelayedFormatReferenceBaseEEEE10deallocateEPS5_m@Base 2.1.0
 _ZN9__gnu_cxx13new_allocatorIN7blocxx69ReferenceINS1_22DelayedFormatInternals26DelayedFormatReferenceBaseEEEEC1ERKS6_@Base 2.1.0
 _ZN9__gnu_cxx13new_allocatorIN7blocxx69ReferenceINS1_22DelayedFormatInternals26DelayedFormatReferenceBaseEEEEC1Ev@Base 2.1.0
 _ZN9__gnu_cxx13new_allocatorIN7blocxx69ReferenceINS1_22DelayedFormatInternals26DelayedFormatReferenceBaseEEEEC2ERKS6_@Base 2.1.0
 _ZN9__gnu_cxx13new_allocatorIN7blocxx69ReferenceINS1_22DelayedFormatInternals26DelayedFormatReferenceBaseEEEEC2Ev@Base 2.1.0
 _ZN9__gnu_cxx13new_allocatorIN7blocxx69ReferenceINS1_22DelayedFormatInternals26DelayedFormatReferenceBaseEEEED1Ev@Base 2.1.0
 _ZN9__gnu_cxx13new_allocatorIN7blocxx69ReferenceINS1_22DelayedFormatInternals26DelayedFormatReferenceBaseEEEED2Ev@Base 2.1.0
 _ZN9__gnu_cxx13new_allocatorIPKcE10deallocateEPS2_m@Base 2.1.0
 _ZN9__gnu_cxx13new_allocatorIPKcE7destroyEPS2_@Base 2.1.0
 _ZN9__gnu_cxx13new_allocatorIPKcE8allocateEmPKv@Base 2.1.0
 _ZN9__gnu_cxx13new_allocatorIPKcE9constructEPS2_RKS2_@Base 2.1.0
 _ZN9__gnu_cxx13new_allocatorIPKcEC1ERKS3_@Base 2.1.0
 _ZN9__gnu_cxx13new_allocatorIPKcEC1Ev@Base 2.1.0
 _ZN9__gnu_cxx13new_allocatorIPKcEC2ERKS3_@Base 2.1.0
 _ZN9__gnu_cxx13new_allocatorIPKcEC2Ev@Base 2.1.0
 _ZN9__gnu_cxx13new_allocatorIPKcED1Ev@Base 2.1.0
 _ZN9__gnu_cxx13new_allocatorIPKcED2Ev@Base 2.1.0
 _ZN9__gnu_cxx13new_allocatorIPN7blocxx618IntrusiveReferenceINS1_8RunnableEEEE10deallocateEPS5_m@Base 2.1.0
 _ZN9__gnu_cxx13new_allocatorIPN7blocxx618IntrusiveReferenceINS1_8RunnableEEEE8allocateEmPKv@Base 2.1.0
 _ZN9__gnu_cxx13new_allocatorIPN7blocxx618IntrusiveReferenceINS1_8RunnableEEEEC1Ev@Base 2.1.0
 _ZN9__gnu_cxx13new_allocatorIPN7blocxx618IntrusiveReferenceINS1_8RunnableEEEEC2Ev@Base 2.1.0
 _ZN9__gnu_cxx13new_allocatorIPN7blocxx618IntrusiveReferenceINS1_8RunnableEEEED1Ev@Base 2.1.0
 _ZN9__gnu_cxx13new_allocatorIPN7blocxx618IntrusiveReferenceINS1_8RunnableEEEED2Ev@Base 2.1.0
 _ZN9__gnu_cxx13new_allocatorISt13_Rb_tree_nodeISt4pairIKN7blocxx66StringENS3_13SSLTrustStore8UserInfoEEEE10deallocateEPS9_m@Base 2.1.0
 _ZN9__gnu_cxx13new_allocatorISt13_Rb_tree_nodeISt4pairIKN7blocxx66StringENS3_13SSLTrustStore8UserInfoEEEE8allocateEmPKv@Base 2.1.0
 _ZN9__gnu_cxx13new_allocatorISt13_Rb_tree_nodeISt4pairIKN7blocxx66StringENS3_13SSLTrustStore8UserInfoEEEEC1ERKSA_@Base 2.1.0
 _ZN9__gnu_cxx13new_allocatorISt13_Rb_tree_nodeISt4pairIKN7blocxx66StringENS3_13SSLTrustStore8UserInfoEEEEC1Ev@Base 2.1.0
 _ZN9__gnu_cxx13new_allocatorISt13_Rb_tree_nodeISt4pairIKN7blocxx66StringENS3_13SSLTrustStore8UserInfoEEEEC2ERKSA_@Base 2.1.0
 _ZN9__gnu_cxx13new_allocatorISt13_Rb_tree_nodeISt4pairIKN7blocxx66StringENS3_13SSLTrustStore8UserInfoEEEEC2Ev@Base 2.1.0
 _ZN9__gnu_cxx13new_allocatorISt13_Rb_tree_nodeISt4pairIKN7blocxx66StringENS3_13SSLTrustStore8UserInfoEEEED1Ev@Base 2.1.0
 _ZN9__gnu_cxx13new_allocatorISt13_Rb_tree_nodeISt4pairIKN7blocxx66StringENS3_13SSLTrustStore8UserInfoEEEED2Ev@Base 2.1.0
 _ZN9__gnu_cxx13new_allocatorISt13_Rb_tree_nodeISt4pairIKN7blocxx66StringES4_EEE10deallocateEPS7_m@Base 2.1.0
 _ZN9__gnu_cxx13new_allocatorISt13_Rb_tree_nodeISt4pairIKN7blocxx66StringES4_EEE8allocateEmPKv@Base 2.1.0
 _ZN9__gnu_cxx13new_allocatorISt13_Rb_tree_nodeISt4pairIKN7blocxx66StringES4_EEEC1ERKS8_@Base 2.1.0
 _ZN9__gnu_cxx13new_allocatorISt13_Rb_tree_nodeISt4pairIKN7blocxx66StringES4_EEEC1Ev@Base 2.1.0
 _ZN9__gnu_cxx13new_allocatorISt13_Rb_tree_nodeISt4pairIKN7blocxx66StringES4_EEEC2ERKS8_@Base 2.1.0
 _ZN9__gnu_cxx13new_allocatorISt13_Rb_tree_nodeISt4pairIKN7blocxx66StringES4_EEEC2Ev@Base 2.1.0
 _ZN9__gnu_cxx13new_allocatorISt13_Rb_tree_nodeISt4pairIKN7blocxx66StringES4_EEED1Ev@Base 2.1.0
 _ZN9__gnu_cxx13new_allocatorISt13_Rb_tree_nodeISt4pairIKN7blocxx66StringES4_EEED2Ev@Base 2.1.0
 _ZN9__gnu_cxx13new_allocatorISt13_Rb_tree_nodeISt4pairIKiiEEE10deallocateEPS5_m@Base 2.1.0
 _ZN9__gnu_cxx13new_allocatorISt13_Rb_tree_nodeISt4pairIKiiEEE8allocateEmPKv@Base 2.1.0
 _ZN9__gnu_cxx13new_allocatorISt13_Rb_tree_nodeISt4pairIKiiEEEC1ERKS6_@Base 2.1.0
 _ZN9__gnu_cxx13new_allocatorISt13_Rb_tree_nodeISt4pairIKiiEEEC1Ev@Base 2.1.0
 _ZN9__gnu_cxx13new_allocatorISt13_Rb_tree_nodeISt4pairIKiiEEEC2ERKS6_@Base 2.1.0
 _ZN9__gnu_cxx13new_allocatorISt13_Rb_tree_nodeISt4pairIKiiEEEC2Ev@Base 2.1.0
 _ZN9__gnu_cxx13new_allocatorISt13_Rb_tree_nodeISt4pairIKiiEEED1Ev@Base 2.1.0
 _ZN9__gnu_cxx13new_allocatorISt13_Rb_tree_nodeISt4pairIKiiEEED2Ev@Base 2.1.0
 _ZN9__gnu_cxx13new_allocatorISt13_Rb_tree_nodeISt4pairIKmN7blocxx617GenericRWLockImplImNS4_8RWLocker14ThreadComparerEE10LockerInfoEEEE10deallocateEPSB_m@Base 2.1.0
 _ZN9__gnu_cxx13new_allocatorISt13_Rb_tree_nodeISt4pairIKmN7blocxx617GenericRWLockImplImNS4_8RWLocker14ThreadComparerEE10LockerInfoEEEE8allocateEmPKv@Base 2.1.0
 _ZN9__gnu_cxx13new_allocatorISt13_Rb_tree_nodeISt4pairIKmN7blocxx617GenericRWLockImplImNS4_8RWLocker14ThreadComparerEE10LockerInfoEEEEC1ERKSC_@Base 2.1.0
 _ZN9__gnu_cxx13new_allocatorISt13_Rb_tree_nodeISt4pairIKmN7blocxx617GenericRWLockImplImNS4_8RWLocker14ThreadComparerEE10LockerInfoEEEEC1Ev@Base 2.1.0
 _ZN9__gnu_cxx13new_allocatorISt13_Rb_tree_nodeISt4pairIKmN7blocxx617GenericRWLockImplImNS4_8RWLocker14ThreadComparerEE10LockerInfoEEEEC2ERKSC_@Base 2.1.0
 _ZN9__gnu_cxx13new_allocatorISt13_Rb_tree_nodeISt4pairIKmN7blocxx617GenericRWLockImplImNS4_8RWLocker14ThreadComparerEE10LockerInfoEEEEC2Ev@Base 2.1.0
 _ZN9__gnu_cxx13new_allocatorISt13_Rb_tree_nodeISt4pairIKmN7blocxx617GenericRWLockImplImNS4_8RWLocker14ThreadComparerEE10LockerInfoEEEED1Ev@Base 2.1.0
 _ZN9__gnu_cxx13new_allocatorISt13_Rb_tree_nodeISt4pairIKmN7blocxx617GenericRWLockImplImNS4_8RWLocker14ThreadComparerEE10LockerInfoEEEED2Ev@Base 2.1.0
 _ZN9__gnu_cxx13new_allocatorISt4pairIKN7blocxx66StringENS2_13SSLTrustStore8UserInfoEEE7destroyEPS7_@Base 2.1.0
 _ZN9__gnu_cxx13new_allocatorISt4pairIKN7blocxx66StringENS2_13SSLTrustStore8UserInfoEEE9constructEPS7_RKS7_@Base 2.1.0
 _ZN9__gnu_cxx13new_allocatorISt4pairIKN7blocxx66StringENS2_13SSLTrustStore8UserInfoEEEC1Ev@Base 2.1.0
 _ZN9__gnu_cxx13new_allocatorISt4pairIKN7blocxx66StringENS2_13SSLTrustStore8UserInfoEEEC2Ev@Base 2.1.0
 _ZN9__gnu_cxx13new_allocatorISt4pairIKN7blocxx66StringENS2_13SSLTrustStore8UserInfoEEED1Ev@Base 2.1.0
 _ZN9__gnu_cxx13new_allocatorISt4pairIKN7blocxx66StringENS2_13SSLTrustStore8UserInfoEEED2Ev@Base 2.1.0
 _ZN9__gnu_cxx13new_allocatorISt4pairIKN7blocxx66StringES3_EE7destroyEPS5_@Base 2.1.0
 _ZN9__gnu_cxx13new_allocatorISt4pairIKN7blocxx66StringES3_EE9constructEPS5_RKS5_@Base 2.1.0
 _ZN9__gnu_cxx13new_allocatorISt4pairIKN7blocxx66StringES3_EEC1Ev@Base 2.1.0
 _ZN9__gnu_cxx13new_allocatorISt4pairIKN7blocxx66StringES3_EEC2Ev@Base 2.1.0
 _ZN9__gnu_cxx13new_allocatorISt4pairIKN7blocxx66StringES3_EED1Ev@Base 2.1.0
 _ZN9__gnu_cxx13new_allocatorISt4pairIKN7blocxx66StringES3_EED2Ev@Base 2.1.0
 _ZN9__gnu_cxx13new_allocatorISt4pairIKiiEE7destroyEPS3_@Base 2.1.0
 _ZN9__gnu_cxx13new_allocatorISt4pairIKiiEE9constructEPS3_RKS3_@Base 2.1.0
 _ZN9__gnu_cxx13new_allocatorISt4pairIKiiEEC1Ev@Base 2.1.0
 _ZN9__gnu_cxx13new_allocatorISt4pairIKiiEEC2Ev@Base 2.1.0
 _ZN9__gnu_cxx13new_allocatorISt4pairIKiiEED1Ev@Base 2.1.0
 _ZN9__gnu_cxx13new_allocatorISt4pairIKiiEED2Ev@Base 2.1.0
 _ZN9__gnu_cxx13new_allocatorISt4pairIKmN7blocxx617GenericRWLockImplImNS3_8RWLocker14ThreadComparerEE10LockerInfoEEE7destroyEPS9_@Base 2.1.0
 _ZN9__gnu_cxx13new_allocatorISt4pairIKmN7blocxx617GenericRWLockImplImNS3_8RWLocker14ThreadComparerEE10LockerInfoEEE9constructEPS9_RKS9_@Base 2.1.0
 _ZN9__gnu_cxx13new_allocatorISt4pairIKmN7blocxx617GenericRWLockImplImNS3_8RWLocker14ThreadComparerEE10LockerInfoEEEC1Ev@Base 2.1.0
 _ZN9__gnu_cxx13new_allocatorISt4pairIKmN7blocxx617GenericRWLockImplImNS3_8RWLocker14ThreadComparerEE10LockerInfoEEEC2Ev@Base 2.1.0
 _ZN9__gnu_cxx13new_allocatorISt4pairIKmN7blocxx617GenericRWLockImplImNS3_8RWLocker14ThreadComparerEE10LockerInfoEEED1Ev@Base 2.1.0
 _ZN9__gnu_cxx13new_allocatorISt4pairIKmN7blocxx617GenericRWLockImplImNS3_8RWLocker14ThreadComparerEE10LockerInfoEEED2Ev@Base 2.1.0
 _ZN9__gnu_cxx13new_allocatorISt4pairIN7blocxx66StringENS2_17EFileStatusReturnEEE10deallocateEPS5_m@Base 2.1.0
 _ZN9__gnu_cxx13new_allocatorISt4pairIN7blocxx66StringENS2_17EFileStatusReturnEEE7destroyEPS5_@Base 2.1.0
 _ZN9__gnu_cxx13new_allocatorISt4pairIN7blocxx66StringENS2_17EFileStatusReturnEEE8allocateEmPKv@Base 2.1.0
 _ZN9__gnu_cxx13new_allocatorISt4pairIN7blocxx66StringENS2_17EFileStatusReturnEEE9constructEPS5_RKS5_@Base 2.1.0
 _ZN9__gnu_cxx13new_allocatorISt4pairIN7blocxx66StringENS2_17EFileStatusReturnEEEC1ERKS6_@Base 2.1.0
 _ZN9__gnu_cxx13new_allocatorISt4pairIN7blocxx66StringENS2_17EFileStatusReturnEEEC1Ev@Base 2.1.0
 _ZN9__gnu_cxx13new_allocatorISt4pairIN7blocxx66StringENS2_17EFileStatusReturnEEEC2ERKS6_@Base 2.1.0
 _ZN9__gnu_cxx13new_allocatorISt4pairIN7blocxx66StringENS2_17EFileStatusReturnEEEC2Ev@Base 2.1.0
 _ZN9__gnu_cxx13new_allocatorISt4pairIN7blocxx66StringENS2_17EFileStatusReturnEEED1Ev@Base 2.1.0
 _ZN9__gnu_cxx13new_allocatorISt4pairIN7blocxx66StringENS2_17EFileStatusReturnEEED2Ev@Base 2.1.0
 _ZN9__gnu_cxx13new_allocatorISt4pairIiN7blocxx612SelectEngine4DataEEE10deallocateEPS5_m@Base 2.1.0
 _ZN9__gnu_cxx13new_allocatorISt4pairIiN7blocxx612SelectEngine4DataEEE7destroyEPS5_@Base 2.1.0
 _ZN9__gnu_cxx13new_allocatorISt4pairIiN7blocxx612SelectEngine4DataEEE8allocateEmPKv@Base 2.1.0
 _ZN9__gnu_cxx13new_allocatorISt4pairIiN7blocxx612SelectEngine4DataEEE9constructEPS5_RKS5_@Base 2.1.0
 _ZN9__gnu_cxx13new_allocatorISt4pairIiN7blocxx612SelectEngine4DataEEEC1ERKS6_@Base 2.1.0
 _ZN9__gnu_cxx13new_allocatorISt4pairIiN7blocxx612SelectEngine4DataEEEC2ERKS6_@Base 2.1.0
 _ZN9__gnu_cxx13new_allocatorISt4pairIiN7blocxx612SelectEngine4DataEEED1Ev@Base 2.1.0
 _ZN9__gnu_cxx13new_allocatorISt4pairIiN7blocxx612SelectEngine4DataEEED2Ev@Base 2.1.0
 _ZN9__gnu_cxx13new_allocatorISt4pairIiN7blocxx65ArrayINS2_6StringEEEEE10deallocateEPS6_m@Base 2.1.0
 _ZN9__gnu_cxx13new_allocatorISt4pairIiN7blocxx65ArrayINS2_6StringEEEEE7destroyEPS6_@Base 2.1.0
 _ZN9__gnu_cxx13new_allocatorISt4pairIiN7blocxx65ArrayINS2_6StringEEEEE8allocateEmPKv@Base 2.1.0
 _ZN9__gnu_cxx13new_allocatorISt4pairIiN7blocxx65ArrayINS2_6StringEEEEE9constructEPS6_RKS6_@Base 2.1.0
 _ZN9__gnu_cxx13new_allocatorISt4pairIiN7blocxx65ArrayINS2_6StringEEEEEC1ERKS7_@Base 2.1.0
 _ZN9__gnu_cxx13new_allocatorISt4pairIiN7blocxx65ArrayINS2_6StringEEEEEC1Ev@Base 2.1.0
 _ZN9__gnu_cxx13new_allocatorISt4pairIiN7blocxx65ArrayINS2_6StringEEEEEC2ERKS7_@Base 2.1.0
 _ZN9__gnu_cxx13new_allocatorISt4pairIiN7blocxx65ArrayINS2_6StringEEEEEC2Ev@Base 2.1.0
 _ZN9__gnu_cxx13new_allocatorISt4pairIiN7blocxx65ArrayINS2_6StringEEEEED1Ev@Base 2.1.0
 _ZN9__gnu_cxx13new_allocatorISt4pairIiN7blocxx65ArrayINS2_6StringEEEEED2Ev@Base 2.1.0
 _ZN9__gnu_cxx13new_allocatorIbEC1Ev@Base 2.1.0
 _ZN9__gnu_cxx13new_allocatorIbEC2Ev@Base 2.1.0
 _ZN9__gnu_cxx13new_allocatorIbED1Ev@Base 2.1.0
 _ZN9__gnu_cxx13new_allocatorIbED2Ev@Base 2.1.0
 _ZN9__gnu_cxx13new_allocatorIcE10deallocateEPcm@Base 2.1.0
 _ZN9__gnu_cxx13new_allocatorIcE7destroyEPc@Base 2.1.0
 _ZN9__gnu_cxx13new_allocatorIcE8allocateEmPKv@Base 2.1.0
 _ZN9__gnu_cxx13new_allocatorIcE9constructEPcRKc@Base 2.1.0
 _ZN9__gnu_cxx13new_allocatorIcEC1ERKS1_@Base 2.1.0
 _ZN9__gnu_cxx13new_allocatorIcEC1Ev@Base 2.1.0
 _ZN9__gnu_cxx13new_allocatorIcEC2ERKS1_@Base 2.1.0
 _ZN9__gnu_cxx13new_allocatorIcEC2Ev@Base 2.1.0
 _ZN9__gnu_cxx13new_allocatorIcED1Ev@Base 2.1.0
 _ZN9__gnu_cxx13new_allocatorIcED2Ev@Base 2.1.0
 _ZN9__gnu_cxx13new_allocatorIhE10deallocateEPhm@Base 2.1.0
 _ZN9__gnu_cxx13new_allocatorIhE7destroyEPh@Base 2.1.0
 _ZN9__gnu_cxx13new_allocatorIhE8allocateEmPKv@Base 2.1.0
 _ZN9__gnu_cxx13new_allocatorIhE9constructEPhRKh@Base 2.1.0
 _ZN9__gnu_cxx13new_allocatorIhEC1ERKS1_@Base 2.1.0
 _ZN9__gnu_cxx13new_allocatorIhEC1Ev@Base 2.1.0
 _ZN9__gnu_cxx13new_allocatorIhEC2ERKS1_@Base 2.1.0
 _ZN9__gnu_cxx13new_allocatorIhEC2Ev@Base 2.1.0
 _ZN9__gnu_cxx13new_allocatorIhED1Ev@Base 2.1.0
 _ZN9__gnu_cxx13new_allocatorIhED2Ev@Base 2.1.0
 _ZN9__gnu_cxx13new_allocatorIiE10deallocateEPim@Base 2.1.0
 _ZN9__gnu_cxx13new_allocatorIiE8allocateEmPKv@Base 2.1.0
 _ZN9__gnu_cxx13new_allocatorIiEC1ERKS1_@Base 2.1.0
 _ZN9__gnu_cxx13new_allocatorIiEC2ERKS1_@Base 2.1.0
 _ZN9__gnu_cxx13new_allocatorIiED1Ev@Base 2.1.0
 _ZN9__gnu_cxx13new_allocatorIiED2Ev@Base 2.1.0
 _ZN9__gnu_cxx13new_allocatorImE10deallocateEPmm@Base 2.1.0
 _ZN9__gnu_cxx13new_allocatorImEC1ERKS1_@Base 2.1.0
 _ZN9__gnu_cxx13new_allocatorImEC1Ev@Base 2.1.0
 _ZN9__gnu_cxx13new_allocatorImEC2ERKS1_@Base 2.1.0
 _ZN9__gnu_cxx13new_allocatorImEC2Ev@Base 2.1.0
 _ZN9__gnu_cxx13new_allocatorImED1Ev@Base 2.1.0
 _ZN9__gnu_cxx13new_allocatorImED2Ev@Base 2.1.0
 _ZN9__gnu_cxx13new_allocatorItE10deallocateEPtm@Base 2.1.0
 _ZN9__gnu_cxx13new_allocatorItE7destroyEPt@Base 2.1.0
 _ZN9__gnu_cxx13new_allocatorItE8allocateEmPKv@Base 2.1.0
 _ZN9__gnu_cxx13new_allocatorItE9constructEPtRKt@Base 2.1.0
 _ZN9__gnu_cxx13new_allocatorItEC1ERKS1_@Base 2.1.0
 _ZN9__gnu_cxx13new_allocatorItEC1Ev@Base 2.1.0
 _ZN9__gnu_cxx13new_allocatorItEC2ERKS1_@Base 2.1.0
 _ZN9__gnu_cxx13new_allocatorItEC2Ev@Base 2.1.0
 _ZN9__gnu_cxx13new_allocatorItED1Ev@Base 2.1.0
 _ZN9__gnu_cxx13new_allocatorItED2Ev@Base 2.1.0
 _ZN9__gnu_cxx13new_allocatorIwEC1ERKS1_@Base 2.1.0
 _ZN9__gnu_cxx13new_allocatorIwEC1Ev@Base 2.1.0
 _ZN9__gnu_cxx13new_allocatorIwEC2ERKS1_@Base 2.1.0
 _ZN9__gnu_cxx13new_allocatorIwEC2Ev@Base 2.1.0
 _ZN9__gnu_cxx13new_allocatorIwED1Ev@Base 2.1.0
 _ZN9__gnu_cxx13new_allocatorIwED2Ev@Base 2.1.0
 _ZN9__gnu_cxx17__normal_iteratorIP10regmatch_tNSt9__cxx19986vectorIS1_SaIS1_EEEEC1ERKS2_@Base 2.1.0
 _ZN9__gnu_cxx17__normal_iteratorIP10regmatch_tNSt9__cxx19986vectorIS1_SaIS1_EEEEC2ERKS2_@Base 2.1.0
 _ZN9__gnu_cxx17__normal_iteratorIPK10regmatch_tNSt9__cxx19986vectorIS1_SaIS1_EEEEC1ERKS3_@Base 2.1.0
 _ZN9__gnu_cxx17__normal_iteratorIPK10regmatch_tNSt9__cxx19986vectorIS1_SaIS1_EEEEC1Ev@Base 2.1.0
 _ZN9__gnu_cxx17__normal_iteratorIPK10regmatch_tNSt9__cxx19986vectorIS1_SaIS1_EEEEC1IPS1_EERKNS0_IT_NS_11__enable_ifIXsrSt10__are_sameISB_SA_E7__valueES7_E6__typeEEE@Base 2.1.0
 _ZN9__gnu_cxx17__normal_iteratorIPK10regmatch_tNSt9__cxx19986vectorIS1_SaIS1_EEEEC2ERKS3_@Base 2.1.0
 _ZN9__gnu_cxx17__normal_iteratorIPK10regmatch_tNSt9__cxx19986vectorIS1_SaIS1_EEEEC2Ev@Base 2.1.0
 _ZN9__gnu_cxx17__normal_iteratorIPK10regmatch_tNSt9__cxx19986vectorIS1_SaIS1_EEEEC2IPS1_EERKNS0_IT_NS_11__enable_ifIXsrSt10__are_sameISB_SA_E7__valueES7_E6__typeEEE@Base 2.1.0
 _ZN9__gnu_cxx17__normal_iteratorIPK10regmatch_tNSt9__cxx19986vectorIS1_SaIS1_EEEEppEv@Base 2.1.0
 _ZN9__gnu_cxx17__normal_iteratorIPKN7blocxx618IntrusiveReferenceINS1_11LogAppenderEEENSt9__cxx19986vectorIS4_SaIS4_EEEEC1ERKS6_@Base 2.1.0
 _ZN9__gnu_cxx17__normal_iteratorIPKN7blocxx618IntrusiveReferenceINS1_11LogAppenderEEENSt9__cxx19986vectorIS4_SaIS4_EEEEC2ERKS6_@Base 2.1.0
 _ZN9__gnu_cxx17__normal_iteratorIPKN7blocxx618IntrusiveReferenceINS1_11LogAppenderEEENSt9__cxx19986vectorIS4_SaIS4_EEEEppEv@Base 2.1.0
 _ZN9__gnu_cxx17__normal_iteratorIPKN7blocxx618IntrusiveReferenceINS1_26LogMessagePatternFormatter9ConverterEEENSt9__cxx19986vectorIS5_SaIS5_EEEEC1ERKS7_@Base 2.1.0
 _ZN9__gnu_cxx17__normal_iteratorIPKN7blocxx618IntrusiveReferenceINS1_26LogMessagePatternFormatter9ConverterEEENSt9__cxx19986vectorIS5_SaIS5_EEEEC2ERKS7_@Base 2.1.0
 _ZN9__gnu_cxx17__normal_iteratorIPKN7blocxx618IntrusiveReferenceINS1_26LogMessagePatternFormatter9ConverterEEENSt9__cxx19986vectorIS5_SaIS5_EEEEppEv@Base 2.1.0
 _ZN9__gnu_cxx17__normal_iteratorIPKN7blocxx618IntrusiveReferenceINS1_6ThreadEEENSt9__cxx19986vectorIS4_SaIS4_EEEEC1ERKS6_@Base 2.1.0
 _ZN9__gnu_cxx17__normal_iteratorIPKN7blocxx618IntrusiveReferenceINS1_6ThreadEEENSt9__cxx19986vectorIS4_SaIS4_EEEEC1IPS4_EERKNS0_IT_NS_11__enable_ifIXsrSt10__are_sameISE_SD_E7__valueESA_E6__typeEEE@Base 2.1.0
 _ZN9__gnu_cxx17__normal_iteratorIPKN7blocxx618IntrusiveReferenceINS1_6ThreadEEENSt9__cxx19986vectorIS4_SaIS4_EEEEC2ERKS6_@Base 2.1.0
 _ZN9__gnu_cxx17__normal_iteratorIPKN7blocxx618IntrusiveReferenceINS1_6ThreadEEENSt9__cxx19986vectorIS4_SaIS4_EEEEC2IPS4_EERKNS0_IT_NS_11__enable_ifIXsrSt10__are_sameISE_SD_E7__valueESA_E6__typeEEE@Base 2.1.0
 _ZN9__gnu_cxx17__normal_iteratorIPKN7blocxx618IntrusiveReferenceINS1_6ThreadEEENSt9__cxx19986vectorIS4_SaIS4_EEEEppEv@Base 2.1.0
 _ZN9__gnu_cxx17__normal_iteratorIPKN7blocxx618IntrusiveReferenceINS1_7ProcessEEENSt9__cxx19986vectorIS4_SaIS4_EEEEC1ERKS6_@Base 2.1.0
 _ZN9__gnu_cxx17__normal_iteratorIPKN7blocxx618IntrusiveReferenceINS1_7ProcessEEENSt9__cxx19986vectorIS4_SaIS4_EEEEC2ERKS6_@Base 2.1.0
 _ZN9__gnu_cxx17__normal_iteratorIPKN7blocxx618IntrusiveReferenceINS1_7ProcessEEENSt9__cxx19986vectorIS4_SaIS4_EEEEppEv@Base 2.1.0
 _ZN9__gnu_cxx17__normal_iteratorIPKN7blocxx65ArrayIcEENSt9__cxx19986vectorIS3_SaIS3_EEEEC1ERKS5_@Base 2.1.0
 _ZN9__gnu_cxx17__normal_iteratorIPKN7blocxx65ArrayIcEENSt9__cxx19986vectorIS3_SaIS3_EEEEC2ERKS5_@Base 2.1.0
 _ZN9__gnu_cxx17__normal_iteratorIPKN7blocxx65ArrayIcEENSt9__cxx19986vectorIS3_SaIS3_EEEEppEv@Base 2.1.0
 _ZN9__gnu_cxx17__normal_iteratorIPKN7blocxx66Select12SelectObjectENSt9__cxx19986vectorIS3_SaIS3_EEEEC1ERKS5_@Base 2.1.0
 _ZN9__gnu_cxx17__normal_iteratorIPKN7blocxx66Select12SelectObjectENSt9__cxx19986vectorIS3_SaIS3_EEEEC2ERKS5_@Base 2.1.0
 _ZN9__gnu_cxx17__normal_iteratorIPKN7blocxx66Select12SelectObjectENSt9__cxx19986vectorIS3_SaIS3_EEEEppEv@Base 2.1.0
 _ZN9__gnu_cxx17__normal_iteratorIPKN7blocxx66StringENSt9__cxx19986vectorIS2_SaIS2_EEEEC1ERKS4_@Base 2.1.0
 _ZN9__gnu_cxx17__normal_iteratorIPKN7blocxx66StringENSt9__cxx19986vectorIS2_SaIS2_EEEEC1Ev@Base 2.1.0
 _ZN9__gnu_cxx17__normal_iteratorIPKN7blocxx66StringENSt9__cxx19986vectorIS2_SaIS2_EEEEC1IPS2_EERKNS0_IT_NS_11__enable_ifIXsrSt10__are_sameISC_SB_E7__valueES8_E6__typeEEE@Base 2.1.0
 _ZN9__gnu_cxx17__normal_iteratorIPKN7blocxx66StringENSt9__cxx19986vectorIS2_SaIS2_EEEEC2ERKS4_@Base 2.1.0
 _ZN9__gnu_cxx17__normal_iteratorIPKN7blocxx66StringENSt9__cxx19986vectorIS2_SaIS2_EEEEC2Ev@Base 2.1.0
 _ZN9__gnu_cxx17__normal_iteratorIPKN7blocxx66StringENSt9__cxx19986vectorIS2_SaIS2_EEEEC2IPS2_EERKNS0_IT_NS_11__enable_ifIXsrSt10__are_sameISC_SB_E7__valueES8_E6__typeEEE@Base 2.1.0
 _ZN9__gnu_cxx17__normal_iteratorIPKN7blocxx66StringENSt9__cxx19986vectorIS2_SaIS2_EEEEpLERKl@Base 2.1.0
 _ZN9__gnu_cxx17__normal_iteratorIPKN7blocxx66StringENSt9__cxx19986vectorIS2_SaIS2_EEEEppEv@Base 2.1.0
 _ZN9__gnu_cxx17__normal_iteratorIPKN7blocxx69PerlRegEx7match_tENSt9__cxx19986vectorIS3_SaIS3_EEEEC1ERKS5_@Base 2.1.0
 _ZN9__gnu_cxx17__normal_iteratorIPKN7blocxx69PerlRegEx7match_tENSt9__cxx19986vectorIS3_SaIS3_EEEEC1Ev@Base 2.1.0
 _ZN9__gnu_cxx17__normal_iteratorIPKN7blocxx69PerlRegEx7match_tENSt9__cxx19986vectorIS3_SaIS3_EEEEC1IPS3_EERKNS0_IT_NS_11__enable_ifIXsrSt10__are_sameISD_SC_E7__valueES9_E6__typeEEE@Base 2.1.0
 _ZN9__gnu_cxx17__normal_iteratorIPKN7blocxx69PerlRegEx7match_tENSt9__cxx19986vectorIS3_SaIS3_EEEEC2ERKS5_@Base 2.1.0
 _ZN9__gnu_cxx17__normal_iteratorIPKN7blocxx69PerlRegEx7match_tENSt9__cxx19986vectorIS3_SaIS3_EEEEC2Ev@Base 2.1.0
 _ZN9__gnu_cxx17__normal_iteratorIPKN7blocxx69PerlRegEx7match_tENSt9__cxx19986vectorIS3_SaIS3_EEEEC2IPS3_EERKNS0_IT_NS_11__enable_ifIXsrSt10__are_sameISD_SC_E7__valueES9_E6__typeEEE@Base 2.1.0
 _ZN9__gnu_cxx17__normal_iteratorIPKN7blocxx69PerlRegEx7match_tENSt9__cxx19986vectorIS3_SaIS3_EEEEppEv@Base 2.1.0
 _ZN9__gnu_cxx17__normal_iteratorIPKPKcNSt9__cxx19986vectorIS2_SaIS2_EEEEC1ERKS4_@Base 2.1.0
 _ZN9__gnu_cxx17__normal_iteratorIPKPKcNSt9__cxx19986vectorIS2_SaIS2_EEEEC2ERKS4_@Base 2.1.0
 _ZN9__gnu_cxx17__normal_iteratorIPKSt4pairIN7blocxx66StringENS2_17EFileStatusReturnEENSt9__cxx19986vectorIS5_SaIS5_EEEEC1ERKS7_@Base 2.1.0
 _ZN9__gnu_cxx17__normal_iteratorIPKSt4pairIN7blocxx66StringENS2_17EFileStatusReturnEENSt9__cxx19986vectorIS5_SaIS5_EEEEC2ERKS7_@Base 2.1.0
 _ZN9__gnu_cxx17__normal_iteratorIPKSt4pairIN7blocxx66StringENS2_17EFileStatusReturnEENSt9__cxx19986vectorIS5_SaIS5_EEEEppEv@Base 2.1.0
 _ZN9__gnu_cxx17__normal_iteratorIPKSt4pairIN7blocxx66StringES3_ENSt9__cxx19986vectorIS4_SaIS4_EEEEC1ERKS6_@Base 2.1.0
 _ZN9__gnu_cxx17__normal_iteratorIPKSt4pairIN7blocxx66StringES3_ENSt9__cxx19986vectorIS4_SaIS4_EEEEC1Ev@Base 2.1.0
 _ZN9__gnu_cxx17__normal_iteratorIPKSt4pairIN7blocxx66StringES3_ENSt9__cxx19986vectorIS4_SaIS4_EEEEC2ERKS6_@Base 2.1.0
 _ZN9__gnu_cxx17__normal_iteratorIPKSt4pairIN7blocxx66StringES3_ENSt9__cxx19986vectorIS4_SaIS4_EEEEC2Ev@Base 2.1.0
 _ZN9__gnu_cxx17__normal_iteratorIPKSt4pairIN7blocxx66StringES3_ENSt9__cxx19986vectorIS4_SaIS4_EEEEpLERKl@Base 2.1.0
 _ZN9__gnu_cxx17__normal_iteratorIPKSt4pairIN7blocxx66StringES3_ENSt9__cxx19986vectorIS4_SaIS4_EEEEppEv@Base 2.1.0
 _ZN9__gnu_cxx17__normal_iteratorIPKSt4pairIiN7blocxx612SelectEngine4DataEENSt9__cxx19986vectorIS5_SaIS5_EEEEC1ERKS7_@Base 2.1.0
 _ZN9__gnu_cxx17__normal_iteratorIPKSt4pairIiN7blocxx612SelectEngine4DataEENSt9__cxx19986vectorIS5_SaIS5_EEEEC1Ev@Base 2.1.0
 _ZN9__gnu_cxx17__normal_iteratorIPKSt4pairIiN7blocxx612SelectEngine4DataEENSt9__cxx19986vectorIS5_SaIS5_EEEEC1IPS5_EERKNS0_IT_NS_11__enable_ifIXsrSt10__are_sameISF_SE_E7__valueESB_E6__typeEEE@Base 2.1.0
 _ZN9__gnu_cxx17__normal_iteratorIPKSt4pairIiN7blocxx612SelectEngine4DataEENSt9__cxx19986vectorIS5_SaIS5_EEEEC2ERKS7_@Base 2.1.0
 _ZN9__gnu_cxx17__normal_iteratorIPKSt4pairIiN7blocxx612SelectEngine4DataEENSt9__cxx19986vectorIS5_SaIS5_EEEEC2Ev@Base 2.1.0
 _ZN9__gnu_cxx17__normal_iteratorIPKSt4pairIiN7blocxx612SelectEngine4DataEENSt9__cxx19986vectorIS5_SaIS5_EEEEC2IPS5_EERKNS0_IT_NS_11__enable_ifIXsrSt10__are_sameISF_SE_E7__valueESB_E6__typeEEE@Base 2.1.0
 _ZN9__gnu_cxx17__normal_iteratorIPKSt4pairIiN7blocxx612SelectEngine4DataEENSt9__cxx19986vectorIS5_SaIS5_EEEEppEv@Base 2.1.0
 _ZN9__gnu_cxx17__normal_iteratorIPKSt4pairIiN7blocxx65ArrayINS2_6StringEEEENSt9__cxx19986vectorIS6_SaIS6_EEEEC1ERKS8_@Base 2.1.0
 _ZN9__gnu_cxx17__normal_iteratorIPKSt4pairIiN7blocxx65ArrayINS2_6StringEEEENSt9__cxx19986vectorIS6_SaIS6_EEEEC1Ev@Base 2.1.0
 _ZN9__gnu_cxx17__normal_iteratorIPKSt4pairIiN7blocxx65ArrayINS2_6StringEEEENSt9__cxx19986vectorIS6_SaIS6_EEEEC1IPS6_EERKNS0_IT_NS_11__enable_ifIXsrSt10__are_sameISG_SF_E7__valueESC_E6__typeEEE@Base 2.1.0
 _ZN9__gnu_cxx17__normal_iteratorIPKSt4pairIiN7blocxx65ArrayINS2_6StringEEEENSt9__cxx19986vectorIS6_SaIS6_EEEEC2ERKS8_@Base 2.1.0
 _ZN9__gnu_cxx17__normal_iteratorIPKSt4pairIiN7blocxx65ArrayINS2_6StringEEEENSt9__cxx19986vectorIS6_SaIS6_EEEEC2Ev@Base 2.1.0
 _ZN9__gnu_cxx17__normal_iteratorIPKSt4pairIiN7blocxx65ArrayINS2_6StringEEEENSt9__cxx19986vectorIS6_SaIS6_EEEEC2IPS6_EERKNS0_IT_NS_11__enable_ifIXsrSt10__are_sameISG_SF_E7__valueESC_E6__typeEEE@Base 2.1.0
 _ZN9__gnu_cxx17__normal_iteratorIPKSt4pairIiN7blocxx65ArrayINS2_6StringEEEENSt9__cxx19986vectorIS6_SaIS6_EEEEpLERKl@Base 2.1.0
 _ZN9__gnu_cxx17__normal_iteratorIPKSt4pairIiN7blocxx65ArrayINS2_6StringEEEENSt9__cxx19986vectorIS6_SaIS6_EEEEppEv@Base 2.1.0
 _ZN9__gnu_cxx17__normal_iteratorIPKcNSt9__cxx19986vectorIcSaIcEEEEC1ERKS2_@Base 2.1.0
 _ZN9__gnu_cxx17__normal_iteratorIPKcNSt9__cxx19986vectorIcSaIcEEEEC1IPcEERKNS0_IT_NS_11__enable_ifIXsrSt10__are_sameISA_S9_E7__valueES6_E6__typeEEE@Base 2.1.0
 _ZN9__gnu_cxx17__normal_iteratorIPKcNSt9__cxx19986vectorIcSaIcEEEEC2ERKS2_@Base 2.1.0
 _ZN9__gnu_cxx17__normal_iteratorIPKcNSt9__cxx19986vectorIcSaIcEEEEC2IPcEERKNS0_IT_NS_11__enable_ifIXsrSt10__are_sameISA_S9_E7__valueES6_E6__typeEEE@Base 2.1.0
 _ZN9__gnu_cxx17__normal_iteratorIPKhNSt9__cxx19986vectorIhSaIhEEEEC1ERKS2_@Base 2.1.0
 _ZN9__gnu_cxx17__normal_iteratorIPKhNSt9__cxx19986vectorIhSaIhEEEEC1IPhEERKNS0_IT_NS_11__enable_ifIXsrSt10__are_sameISA_S9_E7__valueES6_E6__typeEEE@Base 2.1.0
 _ZN9__gnu_cxx17__normal_iteratorIPKhNSt9__cxx19986vectorIhSaIhEEEEC2ERKS2_@Base 2.1.0
 _ZN9__gnu_cxx17__normal_iteratorIPKhNSt9__cxx19986vectorIhSaIhEEEEC2IPhEERKNS0_IT_NS_11__enable_ifIXsrSt10__are_sameISA_S9_E7__valueES6_E6__typeEEE@Base 2.1.0
 _ZN9__gnu_cxx17__normal_iteratorIPKiNSt9__cxx19986vectorIiSaIiEEEEC1ERKS2_@Base 2.1.0
 _ZN9__gnu_cxx17__normal_iteratorIPKiNSt9__cxx19986vectorIiSaIiEEEEC1IPiEERKNS0_IT_NS_11__enable_ifIXsrSt10__are_sameISA_S9_E7__valueES6_E6__typeEEE@Base 2.1.0
 _ZN9__gnu_cxx17__normal_iteratorIPKiNSt9__cxx19986vectorIiSaIiEEEEC2ERKS2_@Base 2.1.0
 _ZN9__gnu_cxx17__normal_iteratorIPKiNSt9__cxx19986vectorIiSaIiEEEEC2IPiEERKNS0_IT_NS_11__enable_ifIXsrSt10__are_sameISA_S9_E7__valueES6_E6__typeEEE@Base 2.1.0
 _ZN9__gnu_cxx17__normal_iteratorIPKtNSt9__cxx19986vectorItSaItEEEEC1ERKS2_@Base 2.1.0
 _ZN9__gnu_cxx17__normal_iteratorIPKtNSt9__cxx19986vectorItSaItEEEEC2ERKS2_@Base 2.1.0
 _ZN9__gnu_cxx17__normal_iteratorIPN7blocxx618IntrusiveReferenceINS1_11LogAppenderEEENSt9__cxx19986vectorIS4_SaIS4_EEEEC1ERKS5_@Base 2.1.0
 _ZN9__gnu_cxx17__normal_iteratorIPN7blocxx618IntrusiveReferenceINS1_11LogAppenderEEENSt9__cxx19986vectorIS4_SaIS4_EEEEC2ERKS5_@Base 2.1.0
 _ZN9__gnu_cxx17__normal_iteratorIPN7blocxx618IntrusiveReferenceINS1_26LogMessagePatternFormatter9ConverterEEENSt9__cxx19986vectorIS5_SaIS5_EEEEC1ERKS6_@Base 2.1.0
 _ZN9__gnu_cxx17__normal_iteratorIPN7blocxx618IntrusiveReferenceINS1_26LogMessagePatternFormatter9ConverterEEENSt9__cxx19986vectorIS5_SaIS5_EEEEC2ERKS6_@Base 2.1.0
 _ZN9__gnu_cxx17__normal_iteratorIPN7blocxx618IntrusiveReferenceINS1_6ThreadEEENSt9__cxx19986vectorIS4_SaIS4_EEEEC1ERKS5_@Base 2.1.0
 _ZN9__gnu_cxx17__normal_iteratorIPN7blocxx618IntrusiveReferenceINS1_6ThreadEEENSt9__cxx19986vectorIS4_SaIS4_EEEEC1Ev@Base 2.1.0
 _ZN9__gnu_cxx17__normal_iteratorIPN7blocxx618IntrusiveReferenceINS1_6ThreadEEENSt9__cxx19986vectorIS4_SaIS4_EEEEC2ERKS5_@Base 2.1.0
 _ZN9__gnu_cxx17__normal_iteratorIPN7blocxx618IntrusiveReferenceINS1_6ThreadEEENSt9__cxx19986vectorIS4_SaIS4_EEEEC2Ev@Base 2.1.0
 _ZN9__gnu_cxx17__normal_iteratorIPN7blocxx618IntrusiveReferenceINS1_6ThreadEEENSt9__cxx19986vectorIS4_SaIS4_EEEEmmEv@Base 2.1.0
 _ZN9__gnu_cxx17__normal_iteratorIPN7blocxx618IntrusiveReferenceINS1_6ThreadEEENSt9__cxx19986vectorIS4_SaIS4_EEEEpLERKl@Base 2.1.0
 _ZN9__gnu_cxx17__normal_iteratorIPN7blocxx618IntrusiveReferenceINS1_7ProcessEEENSt9__cxx19986vectorIS4_SaIS4_EEEEC1ERKS5_@Base 2.1.0
 _ZN9__gnu_cxx17__normal_iteratorIPN7blocxx618IntrusiveReferenceINS1_7ProcessEEENSt9__cxx19986vectorIS4_SaIS4_EEEEC2ERKS5_@Base 2.1.0
 _ZN9__gnu_cxx17__normal_iteratorIPN7blocxx66Select12SelectObjectENSt9__cxx19986vectorIS3_SaIS3_EEEEC1ERKS4_@Base 2.1.0
 _ZN9__gnu_cxx17__normal_iteratorIPN7blocxx66Select12SelectObjectENSt9__cxx19986vectorIS3_SaIS3_EEEEC2ERKS4_@Base 2.1.0
 _ZN9__gnu_cxx17__normal_iteratorIPN7blocxx66StringENSt9__cxx19986vectorIS2_SaIS2_EEEEC1ERKS3_@Base 2.1.0
 _ZN9__gnu_cxx17__normal_iteratorIPN7blocxx66StringENSt9__cxx19986vectorIS2_SaIS2_EEEEC1Ev@Base 2.1.0
 _ZN9__gnu_cxx17__normal_iteratorIPN7blocxx66StringENSt9__cxx19986vectorIS2_SaIS2_EEEEC2ERKS3_@Base 2.1.0
 _ZN9__gnu_cxx17__normal_iteratorIPN7blocxx66StringENSt9__cxx19986vectorIS2_SaIS2_EEEEC2Ev@Base 2.1.0
 _ZN9__gnu_cxx17__normal_iteratorIPN7blocxx66StringENSt9__cxx19986vectorIS2_SaIS2_EEEEmmEv@Base 2.1.0
 _ZN9__gnu_cxx17__normal_iteratorIPN7blocxx66StringENSt9__cxx19986vectorIS2_SaIS2_EEEEpLERKl@Base 2.1.0
 _ZN9__gnu_cxx17__normal_iteratorIPN7blocxx66StringENSt9__cxx19986vectorIS2_SaIS2_EEEEppEv@Base 2.1.0
 _ZN9__gnu_cxx17__normal_iteratorIPN7blocxx69PerlRegEx7match_tENSt9__cxx19986vectorIS3_SaIS3_EEEEC1ERKS4_@Base 2.1.0
 _ZN9__gnu_cxx17__normal_iteratorIPN7blocxx69PerlRegEx7match_tENSt9__cxx19986vectorIS3_SaIS3_EEEEC2ERKS4_@Base 2.1.0
 _ZN9__gnu_cxx17__normal_iteratorIPPKcNSt9__cxx19986vectorIS2_SaIS2_EEEEC1ERKS3_@Base 2.1.0
 _ZN9__gnu_cxx17__normal_iteratorIPPKcNSt9__cxx19986vectorIS2_SaIS2_EEEEC2ERKS3_@Base 2.1.0
 _ZN9__gnu_cxx17__normal_iteratorIPSt4pairIN7blocxx66StringENS2_17EFileStatusReturnEENSt9__cxx19986vectorIS5_SaIS5_EEEEC1ERKS6_@Base 2.1.0
 _ZN9__gnu_cxx17__normal_iteratorIPSt4pairIN7blocxx66StringENS2_17EFileStatusReturnEENSt9__cxx19986vectorIS5_SaIS5_EEEEC2ERKS6_@Base 2.1.0
 _ZN9__gnu_cxx17__normal_iteratorIPSt4pairIiN7blocxx612SelectEngine4DataEENSt9__cxx19986vectorIS5_SaIS5_EEEEC1ERKS6_@Base 2.1.0
 _ZN9__gnu_cxx17__normal_iteratorIPSt4pairIiN7blocxx612SelectEngine4DataEENSt9__cxx19986vectorIS5_SaIS5_EEEEC1Ev@Base 2.1.0
 _ZN9__gnu_cxx17__normal_iteratorIPSt4pairIiN7blocxx612SelectEngine4DataEENSt9__cxx19986vectorIS5_SaIS5_EEEEC2ERKS6_@Base 2.1.0
 _ZN9__gnu_cxx17__normal_iteratorIPSt4pairIiN7blocxx612SelectEngine4DataEENSt9__cxx19986vectorIS5_SaIS5_EEEEC2Ev@Base 2.1.0
 _ZN9__gnu_cxx17__normal_iteratorIPSt4pairIiN7blocxx612SelectEngine4DataEENSt9__cxx19986vectorIS5_SaIS5_EEEEpLERKl@Base 2.1.0
 _ZN9__gnu_cxx17__normal_iteratorIPSt4pairIiN7blocxx612SelectEngine4DataEENSt9__cxx19986vectorIS5_SaIS5_EEEEppEv@Base 2.1.0
 _ZN9__gnu_cxx17__normal_iteratorIPSt4pairIiN7blocxx65ArrayINS2_6StringEEEENSt9__cxx19986vectorIS6_SaIS6_EEEEC1ERKS7_@Base 2.1.0
 _ZN9__gnu_cxx17__normal_iteratorIPSt4pairIiN7blocxx65ArrayINS2_6StringEEEENSt9__cxx19986vectorIS6_SaIS6_EEEEC1Ev@Base 2.1.0
 _ZN9__gnu_cxx17__normal_iteratorIPSt4pairIiN7blocxx65ArrayINS2_6StringEEEENSt9__cxx19986vectorIS6_SaIS6_EEEEC2ERKS7_@Base 2.1.0
 _ZN9__gnu_cxx17__normal_iteratorIPSt4pairIiN7blocxx65ArrayINS2_6StringEEEENSt9__cxx19986vectorIS6_SaIS6_EEEEC2Ev@Base 2.1.0
 _ZN9__gnu_cxx17__normal_iteratorIPSt4pairIiN7blocxx65ArrayINS2_6StringEEEENSt9__cxx19986vectorIS6_SaIS6_EEEEpLERKl@Base 2.1.0
 _ZN9__gnu_cxx17__normal_iteratorIPSt4pairIiN7blocxx65ArrayINS2_6StringEEEENSt9__cxx19986vectorIS6_SaIS6_EEEEppEv@Base 2.1.0
 _ZN9__gnu_cxx17__normal_iteratorIPcNSt9__cxx19986vectorIcSaIcEEEEC1ERKS1_@Base 2.1.0
 _ZN9__gnu_cxx17__normal_iteratorIPcNSt9__cxx19986vectorIcSaIcEEEEC1Ev@Base 2.1.0
 _ZN9__gnu_cxx17__normal_iteratorIPcNSt9__cxx19986vectorIcSaIcEEEEC2ERKS1_@Base 2.1.0
 _ZN9__gnu_cxx17__normal_iteratorIPcNSt9__cxx19986vectorIcSaIcEEEEC2Ev@Base 2.1.0
 _ZN9__gnu_cxx17__normal_iteratorIPcNSt9__cxx19986vectorIcSaIcEEEEmmEv@Base 2.1.0
 _ZN9__gnu_cxx17__normal_iteratorIPcNSt9__cxx19986vectorIcSaIcEEEEpLERKl@Base 2.1.0
 _ZN9__gnu_cxx17__normal_iteratorIPhNSt9__cxx19986vectorIhSaIhEEEEC1ERKS1_@Base 2.1.0
 _ZN9__gnu_cxx17__normal_iteratorIPhNSt9__cxx19986vectorIhSaIhEEEEC2ERKS1_@Base 2.1.0
 _ZN9__gnu_cxx17__normal_iteratorIPiNSt9__cxx19986vectorIiSaIiEEEEC1ERKS1_@Base 2.1.0
 _ZN9__gnu_cxx17__normal_iteratorIPiNSt9__cxx19986vectorIiSaIiEEEEC2ERKS1_@Base 2.1.0
 _ZN9__gnu_cxx17__normal_iteratorIPtNSt9__cxx19986vectorItSaItEEEEC1ERKS1_@Base 2.1.0
 _ZN9__gnu_cxx17__normal_iteratorIPtNSt9__cxx19986vectorItSaItEEEEC2ERKS1_@Base 2.1.0
 _ZN9__gnu_cxx24__concurrence_lock_errorC1Ev@Base 2.1.0
 _ZN9__gnu_cxx24__concurrence_lock_errorC2Ev@Base 2.1.0
 _ZN9__gnu_cxx24__concurrence_lock_errorD0Ev@Base 2.1.0
 _ZN9__gnu_cxx24__concurrence_lock_errorD1Ev@Base 2.1.0
 _ZN9__gnu_cxx24__concurrence_lock_errorD2Ev@Base 2.1.0
 _ZN9__gnu_cxx26__concurrence_unlock_errorC1Ev@Base 2.1.0
 _ZN9__gnu_cxx26__concurrence_unlock_errorC2Ev@Base 2.1.0
 _ZN9__gnu_cxx26__concurrence_unlock_errorD0Ev@Base 2.1.0
 _ZN9__gnu_cxx26__concurrence_unlock_errorD1Ev@Base 2.1.0
 _ZN9__gnu_cxx26__concurrence_unlock_errorD2Ev@Base 2.1.0
 _ZN9__gnu_cxx30__throw_concurrence_lock_errorEv@Base 2.1.0
 _ZN9__gnu_cxx32__throw_concurrence_unlock_errorEv@Base 2.1.0
 _ZN9__gnu_cxx7__mutex4lockEv@Base 2.1.0
 _ZN9__gnu_cxx7__mutex6unlockEv@Base 2.1.0
 _ZN9__gnu_cxxeqIP10regmatch_tPKS1_NSt9__cxx19986vectorIS1_SaIS1_EEEEEbRKNS_17__normal_iteratorIT_T1_EERKNS9_IT0_SB_EE@Base 2.1.0
 _ZN9__gnu_cxxeqIPK10regmatch_tNSt9__cxx19986vectorIS1_SaIS1_EEEEEbRKNS_17__normal_iteratorIT_T0_EESD_@Base 2.1.0
 _ZN9__gnu_cxxeqIPKN7blocxx618IntrusiveReferenceINS1_26LogMessagePatternFormatter9ConverterEEENSt9__cxx19986vectorIS5_SaIS5_EEEEEbRKNS_17__normal_iteratorIT_T0_EESH_@Base 2.1.0
 _ZN9__gnu_cxxeqIPKN7blocxx618IntrusiveReferenceINS1_6ThreadEEENSt9__cxx19986vectorIS4_SaIS4_EEEEEbRKNS_17__normal_iteratorIT_T0_EESG_@Base 2.1.0
 _ZN9__gnu_cxxeqIPKN7blocxx66Select12SelectObjectENSt9__cxx19986vectorIS3_SaIS3_EEEEEbRKNS_17__normal_iteratorIT_T0_EESF_@Base 2.1.0
 _ZN9__gnu_cxxeqIPKN7blocxx66StringENSt9__cxx19986vectorIS2_SaIS2_EEEEEbRKNS_17__normal_iteratorIT_T0_EESE_@Base 2.1.0
 _ZN9__gnu_cxxeqIPKN7blocxx69PerlRegEx7match_tENSt9__cxx19986vectorIS3_SaIS3_EEEEEbRKNS_17__normal_iteratorIT_T0_EESF_@Base 2.1.0
 _ZN9__gnu_cxxeqIPKSt4pairIN7blocxx66StringENS2_17EFileStatusReturnEENSt9__cxx19986vectorIS5_SaIS5_EEEEEbRKNS_17__normal_iteratorIT_T0_EESH_@Base 2.1.0
 _ZN9__gnu_cxxeqIPKSt4pairIN7blocxx66StringES3_ENSt9__cxx19986vectorIS4_SaIS4_EEEEEbRKNS_17__normal_iteratorIT_T0_EESG_@Base 2.1.0
 _ZN9__gnu_cxxeqIPKSt4pairIiN7blocxx612SelectEngine4DataEENSt9__cxx19986vectorIS5_SaIS5_EEEEEbRKNS_17__normal_iteratorIT_T0_EESH_@Base 2.1.0
 _ZN9__gnu_cxxeqIPKSt4pairIiN7blocxx65ArrayINS2_6StringEEEENSt9__cxx19986vectorIS6_SaIS6_EEEEEbRKNS_17__normal_iteratorIT_T0_EESI_@Base 2.1.0
 _ZN9__gnu_cxxeqIPKcNSt9__cxx19986vectorIcSaIcEEEEEbRKNS_17__normal_iteratorIT_T0_EESC_@Base 2.1.0
 _ZN9__gnu_cxxeqIPKtNSt9__cxx19986vectorItSaItEEEEEbRKNS_17__normal_iteratorIT_T0_EESC_@Base 2.1.0
 _ZN9__gnu_cxxeqIPN7blocxx618IntrusiveReferenceINS1_6ThreadEEENSt9__cxx19986vectorIS4_SaIS4_EEEEEbRKNS_17__normal_iteratorIT_T0_EESF_@Base 2.1.0
 _ZN9__gnu_cxxeqIPN7blocxx618IntrusiveReferenceINS1_6ThreadEEEPKS4_NSt9__cxx19986vectorIS4_SaIS4_EEEEEbRKNS_17__normal_iteratorIT_T1_EERKNSC_IT0_SE_EE@Base 2.1.0
 _ZN9__gnu_cxxeqIPN7blocxx66StringENSt9__cxx19986vectorIS2_SaIS2_EEEEEbRKNS_17__normal_iteratorIT_T0_EESD_@Base 2.1.0
 _ZN9__gnu_cxxeqIPN7blocxx66StringEPKS2_NSt9__cxx19986vectorIS2_SaIS2_EEEEEbRKNS_17__normal_iteratorIT_T1_EERKNSA_IT0_SC_EE@Base 2.1.0
 _ZN9__gnu_cxxeqIPN7blocxx69PerlRegEx7match_tEPKS3_NSt9__cxx19986vectorIS3_SaIS3_EEEEEbRKNS_17__normal_iteratorIT_T1_EERKNSB_IT0_SD_EE@Base 2.1.0
 _ZN9__gnu_cxxeqIPSt4pairIiN7blocxx612SelectEngine4DataEENSt9__cxx19986vectorIS5_SaIS5_EEEEEbRKNS_17__normal_iteratorIT_T0_EESG_@Base 2.1.0
 _ZN9__gnu_cxxeqIPSt4pairIiN7blocxx612SelectEngine4DataEEPKS5_NSt9__cxx19986vectorIS5_SaIS5_EEEEEbRKNS_17__normal_iteratorIT_T1_EERKNSD_IT0_SF_EE@Base 2.1.0
 _ZN9__gnu_cxxeqIPSt4pairIiN7blocxx65ArrayINS2_6StringEEEENSt9__cxx19986vectorIS6_SaIS6_EEEEEbRKNS_17__normal_iteratorIT_T0_EESH_@Base 2.1.0
 _ZN9__gnu_cxxeqIPSt4pairIiN7blocxx65ArrayINS2_6StringEEEEPKS6_NSt9__cxx19986vectorIS6_SaIS6_EEEEEbRKNS_17__normal_iteratorIT_T1_EERKNSE_IT0_SG_EE@Base 2.1.0
 _ZN9__gnu_cxxeqIPcNSt9__cxx19986vectorIcSaIcEEEEEbRKNS_17__normal_iteratorIT_T0_EESB_@Base 2.1.0
 _ZN9__gnu_cxxeqIPcPKcNSt9__cxx19986vectorIcSaIcEEEEEbRKNS_17__normal_iteratorIT_T1_EERKNS8_IT0_SA_EE@Base 2.1.0
 _ZN9__gnu_cxxeqIPhPKhNSt9__cxx19986vectorIhSaIhEEEEEbRKNS_17__normal_iteratorIT_T1_EERKNS8_IT0_SA_EE@Base 2.1.0
 _ZN9__gnu_cxxltIPN7blocxx66StringENSt9__cxx19986vectorIS2_SaIS2_EEEEEbRKNS_17__normal_iteratorIT_T0_EESD_@Base 2.1.0
 _ZN9__gnu_cxxmiIP10regmatch_tNSt9__cxx19986vectorIS1_SaIS1_EEEEENS_17__normal_iteratorIT_T0_E15difference_typeERKSA_SD_@Base 2.1.0
 _ZN9__gnu_cxxmiIPK10regmatch_tNSt9__cxx19986vectorIS1_SaIS1_EEEEENS_17__normal_iteratorIT_T0_E15difference_typeERKSB_SE_@Base 2.1.0
 _ZN9__gnu_cxxmiIPKN7blocxx618IntrusiveReferenceINS1_6ThreadEEENSt9__cxx19986vectorIS4_SaIS4_EEEEENS_17__normal_iteratorIT_T0_E15difference_typeERKSE_SH_@Base 2.1.0
 _ZN9__gnu_cxxmiIPKN7blocxx618IntrusiveReferenceINS1_6ThreadEEEPS4_NSt9__cxx19986vectorIS4_SaIS4_EEEEENS_17__normal_iteratorIT_T1_E15difference_typeERKSF_RKNSC_IT0_SE_EE@Base 2.1.0
 _ZN9__gnu_cxxmiIPKN7blocxx66StringENSt9__cxx19986vectorIS2_SaIS2_EEEEENS_17__normal_iteratorIT_T0_E15difference_typeERKSC_SF_@Base 2.1.0
 _ZN9__gnu_cxxmiIPKN7blocxx66StringEPS2_NSt9__cxx19986vectorIS2_SaIS2_EEEEENS_17__normal_iteratorIT_T1_E15difference_typeERKSD_RKNSA_IT0_SC_EE@Base 2.1.0
 _ZN9__gnu_cxxmiIPKN7blocxx69PerlRegEx7match_tENSt9__cxx19986vectorIS3_SaIS3_EEEEENS_17__normal_iteratorIT_T0_E15difference_typeERKSD_SG_@Base 2.1.0
 _ZN9__gnu_cxxmiIPKPKcNSt9__cxx19986vectorIS2_SaIS2_EEEEENS_17__normal_iteratorIT_T0_E15difference_typeERKSC_SF_@Base 2.1.0
 _ZN9__gnu_cxxmiIPKSt4pairIN7blocxx66StringES3_ENSt9__cxx19986vectorIS4_SaIS4_EEEEENS_17__normal_iteratorIT_T0_E15difference_typeERKSE_SH_@Base 2.1.0
 _ZN9__gnu_cxxmiIPKSt4pairIiN7blocxx612SelectEngine4DataEENSt9__cxx19986vectorIS5_SaIS5_EEEEENS_17__normal_iteratorIT_T0_E15difference_typeERKSF_SI_@Base 2.1.0
 _ZN9__gnu_cxxmiIPKSt4pairIiN7blocxx612SelectEngine4DataEEPS5_NSt9__cxx19986vectorIS5_SaIS5_EEEEENS_17__normal_iteratorIT_T1_E15difference_typeERKSG_RKNSD_IT0_SF_EE@Base 2.1.0
 _ZN9__gnu_cxxmiIPKSt4pairIiN7blocxx65ArrayINS2_6StringEEEENSt9__cxx19986vectorIS6_SaIS6_EEEEENS_17__normal_iteratorIT_T0_E15difference_typeERKSG_SJ_@Base 2.1.0
 _ZN9__gnu_cxxmiIPKSt4pairIiN7blocxx65ArrayINS2_6StringEEEEPS6_NSt9__cxx19986vectorIS6_SaIS6_EEEEENS_17__normal_iteratorIT_T1_E15difference_typeERKSH_RKNSE_IT0_SG_EE@Base 2.1.0
 _ZN9__gnu_cxxmiIPKcNSt9__cxx19986vectorIcSaIcEEEEENS_17__normal_iteratorIT_T0_E15difference_typeERKSA_SD_@Base 2.1.0
 _ZN9__gnu_cxxmiIPKcPcNSt9__cxx19986vectorIcSaIcEEEEENS_17__normal_iteratorIT_T1_E15difference_typeERKSB_RKNS8_IT0_SA_EE@Base 2.1.0
 _ZN9__gnu_cxxmiIPKhNSt9__cxx19986vectorIhSaIhEEEEENS_17__normal_iteratorIT_T0_E15difference_typeERKSA_SD_@Base 2.1.0
 _ZN9__gnu_cxxmiIPKiNSt9__cxx19986vectorIiSaIiEEEEENS_17__normal_iteratorIT_T0_E15difference_typeERKSA_SD_@Base 2.1.0
 _ZN9__gnu_cxxmiIPKtNSt9__cxx19986vectorItSaItEEEEENS_17__normal_iteratorIT_T0_E15difference_typeERKSA_SD_@Base 2.1.0
 _ZN9__gnu_cxxmiIPN7blocxx618IntrusiveReferenceINS1_11LogAppenderEEENSt9__cxx19986vectorIS4_SaIS4_EEEEENS_17__normal_iteratorIT_T0_E15difference_typeERKSD_SG_@Base 2.1.0
 _ZN9__gnu_cxxmiIPN7blocxx618IntrusiveReferenceINS1_26LogMessagePatternFormatter9ConverterEEENSt9__cxx19986vectorIS5_SaIS5_EEEEENS_17__normal_iteratorIT_T0_E15difference_typeERKSE_SH_@Base 2.1.0
 _ZN9__gnu_cxxmiIPN7blocxx618IntrusiveReferenceINS1_6ThreadEEENSt9__cxx19986vectorIS4_SaIS4_EEEEENS_17__normal_iteratorIT_T0_E15difference_typeERKSD_SG_@Base 2.1.0
 _ZN9__gnu_cxxmiIPN7blocxx618IntrusiveReferenceINS1_6ThreadEEEPKS4_NSt9__cxx19986vectorIS4_SaIS4_EEEEENS_17__normal_iteratorIT_T1_E15difference_typeERKSF_RKNSC_IT0_SE_EE@Base 2.1.0
 _ZN9__gnu_cxxmiIPN7blocxx618IntrusiveReferenceINS1_7ProcessEEENSt9__cxx19986vectorIS4_SaIS4_EEEEENS_17__normal_iteratorIT_T0_E15difference_typeERKSD_SG_@Base 2.1.0
 _ZN9__gnu_cxxmiIPN7blocxx66Select12SelectObjectENSt9__cxx19986vectorIS3_SaIS3_EEEEENS_17__normal_iteratorIT_T0_E15difference_typeERKSC_SF_@Base 2.1.0
 _ZN9__gnu_cxxmiIPN7blocxx66StringENSt9__cxx19986vectorIS2_SaIS2_EEEEENS_17__normal_iteratorIT_T0_E15difference_typeERKSB_SE_@Base 2.1.0
 _ZN9__gnu_cxxmiIPN7blocxx66StringEPKS2_NSt9__cxx19986vectorIS2_SaIS2_EEEEENS_17__normal_iteratorIT_T1_E15difference_typeERKSD_RKNSA_IT0_SC_EE@Base 2.1.0
 _ZN9__gnu_cxxmiIPN7blocxx69PerlRegEx7match_tENSt9__cxx19986vectorIS3_SaIS3_EEEEENS_17__normal_iteratorIT_T0_E15difference_typeERKSC_SF_@Base 2.1.0
 _ZN9__gnu_cxxmiIPPKcNSt9__cxx19986vectorIS2_SaIS2_EEEEENS_17__normal_iteratorIT_T0_E15difference_typeERKSB_SE_@Base 2.1.0
 _ZN9__gnu_cxxmiIPSt4pairIN7blocxx66StringENS2_17EFileStatusReturnEENSt9__cxx19986vectorIS5_SaIS5_EEEEENS_17__normal_iteratorIT_T0_E15difference_typeERKSE_SH_@Base 2.1.0
 _ZN9__gnu_cxxmiIPSt4pairIiN7blocxx612SelectEngine4DataEENSt9__cxx19986vectorIS5_SaIS5_EEEEENS_17__normal_iteratorIT_T0_E15difference_typeERKSE_SH_@Base 2.1.0
 _ZN9__gnu_cxxmiIPSt4pairIiN7blocxx612SelectEngine4DataEEPKS5_NSt9__cxx19986vectorIS5_SaIS5_EEEEENS_17__normal_iteratorIT_T1_E15difference_typeERKSG_RKNSD_IT0_SF_EE@Base 2.1.0
 _ZN9__gnu_cxxmiIPSt4pairIiN7blocxx65ArrayINS2_6StringEEEENSt9__cxx19986vectorIS6_SaIS6_EEEEENS_17__normal_iteratorIT_T0_E15difference_typeERKSF_SI_@Base 2.1.0
 _ZN9__gnu_cxxmiIPSt4pairIiN7blocxx65ArrayINS2_6StringEEEEPKS6_NSt9__cxx19986vectorIS6_SaIS6_EEEEENS_17__normal_iteratorIT_T1_E15difference_typeERKSH_RKNSE_IT0_SG_EE@Base 2.1.0
 _ZN9__gnu_cxxmiIPcNSt9__cxx19986vectorIcSaIcEEEEENS_17__normal_iteratorIT_T0_E15difference_typeERKS9_SC_@Base 2.1.0
 _ZN9__gnu_cxxmiIPcPKcNSt9__cxx19986vectorIcSaIcEEEEENS_17__normal_iteratorIT_T1_E15difference_typeERKSB_RKNS8_IT0_SA_EE@Base 2.1.0
 _ZN9__gnu_cxxmiIPhNSt9__cxx19986vectorIhSaIhEEEEENS_17__normal_iteratorIT_T0_E15difference_typeERKS9_SC_@Base 2.1.0
 _ZN9__gnu_cxxmiIPiNSt9__cxx19986vectorIiSaIiEEEEENS_17__normal_iteratorIT_T0_E15difference_typeERKS9_SC_@Base 2.1.0
 _ZN9__gnu_cxxmiIPtNSt9__cxx19986vectorItSaItEEEEENS_17__normal_iteratorIT_T0_E15difference_typeERKS9_SC_@Base 2.1.0
 _ZN9__gnu_cxxneIPK10regmatch_tPS1_NSt9__cxx19986vectorIS1_SaIS1_EEEEEbRKNS_17__normal_iteratorIT_T1_EERKNS9_IT0_SB_EE@Base 2.1.0
 _ZN9__gnu_cxxneIPKN7blocxx618IntrusiveReferenceINS1_11LogAppenderEEENSt9__cxx19986vectorIS4_SaIS4_EEEEEbRKNS_17__normal_iteratorIT_T0_EESG_@Base 2.1.0
 _ZN9__gnu_cxxneIPKN7blocxx618IntrusiveReferenceINS1_26LogMessagePatternFormatter9ConverterEEENSt9__cxx19986vectorIS5_SaIS5_EEEEEbRKNS_17__normal_iteratorIT_T0_EESH_@Base 2.1.0
 _ZN9__gnu_cxxneIPKN7blocxx618IntrusiveReferenceINS1_6ThreadEEENSt9__cxx19986vectorIS4_SaIS4_EEEEEbRKNS_17__normal_iteratorIT_T0_EESG_@Base 2.1.0
 _ZN9__gnu_cxxneIPKN7blocxx618IntrusiveReferenceINS1_7ProcessEEENSt9__cxx19986vectorIS4_SaIS4_EEEEEbRKNS_17__normal_iteratorIT_T0_EESG_@Base 2.1.0
 _ZN9__gnu_cxxneIPKN7blocxx65ArrayIcEENSt9__cxx19986vectorIS3_SaIS3_EEEEEbRKNS_17__normal_iteratorIT_T0_EESF_@Base 2.1.0
 _ZN9__gnu_cxxneIPKN7blocxx66Select12SelectObjectENSt9__cxx19986vectorIS3_SaIS3_EEEEEbRKNS_17__normal_iteratorIT_T0_EESF_@Base 2.1.0
 _ZN9__gnu_cxxneIPKN7blocxx66StringENSt9__cxx19986vectorIS2_SaIS2_EEEEEbRKNS_17__normal_iteratorIT_T0_EESE_@Base 2.1.0
 _ZN9__gnu_cxxneIPKN7blocxx66StringEPS2_NSt9__cxx19986vectorIS2_SaIS2_EEEEEbRKNS_17__normal_iteratorIT_T1_EERKNSA_IT0_SC_EE@Base 2.1.0
 _ZN9__gnu_cxxneIPKN7blocxx69PerlRegEx7match_tEPS3_NSt9__cxx19986vectorIS3_SaIS3_EEEEEbRKNS_17__normal_iteratorIT_T1_EERKNSB_IT0_SD_EE@Base 2.1.0
 _ZN9__gnu_cxxneIPKSt4pairIN7blocxx66StringENS2_17EFileStatusReturnEENSt9__cxx19986vectorIS5_SaIS5_EEEEEbRKNS_17__normal_iteratorIT_T0_EESH_@Base 2.1.0
 _ZN9__gnu_cxxneIPKSt4pairIN7blocxx66StringES3_ENSt9__cxx19986vectorIS4_SaIS4_EEEEEbRKNS_17__normal_iteratorIT_T0_EESG_@Base 2.1.0
 _ZN9__gnu_cxxneIPKSt4pairIiN7blocxx612SelectEngine4DataEENSt9__cxx19986vectorIS5_SaIS5_EEEEEbRKNS_17__normal_iteratorIT_T0_EESH_@Base 2.1.0
 _ZN9__gnu_cxxneIPKSt4pairIiN7blocxx612SelectEngine4DataEEPS5_NSt9__cxx19986vectorIS5_SaIS5_EEEEEbRKNS_17__normal_iteratorIT_T1_EERKNSD_IT0_SF_EE@Base 2.1.0
 _ZN9__gnu_cxxneIPKSt4pairIiN7blocxx65ArrayINS2_6StringEEEENSt9__cxx19986vectorIS6_SaIS6_EEEEEbRKNS_17__normal_iteratorIT_T0_EESI_@Base 2.1.0
 _ZN9__gnu_cxxneIPN7blocxx618IntrusiveReferenceINS1_6ThreadEEENSt9__cxx19986vectorIS4_SaIS4_EEEEEbRKNS_17__normal_iteratorIT_T0_EESF_@Base 2.1.0
 _ZN9__gnu_cxxneIPN7blocxx66StringENSt9__cxx19986vectorIS2_SaIS2_EEEEEbRKNS_17__normal_iteratorIT_T0_EESD_@Base 2.1.0
 _ZN9__gnu_cxxneIPSt4pairIiN7blocxx612SelectEngine4DataEENSt9__cxx19986vectorIS5_SaIS5_EEEEEbRKNS_17__normal_iteratorIT_T0_EESG_@Base 2.1.0
 _ZN9__gnu_cxxneIPSt4pairIiN7blocxx65ArrayINS2_6StringEEEENSt9__cxx19986vectorIS6_SaIS6_EEEEEbRKNS_17__normal_iteratorIT_T0_EESH_@Base 2.1.0
 _ZN9__gnu_cxxneIPcNSt9__cxx19986vectorIcSaIcEEEEEbRKNS_17__normal_iteratorIT_T0_EESB_@Base 2.1.0
 _ZN9__gnu_cxxneIPhNSt9__cxx19986vectorIhSaIhEEEEEbRKNS_17__normal_iteratorIT_T0_EESB_@Base 2.1.0
 _ZNK11__gnu_debug13_Not_equal_toISt23_Rb_tree_const_iteratorISt4pairIKN7blocxx66StringES4_EEEclERKS7_@Base 2.1.0
 _ZNK11__gnu_debug14_Safe_iteratorIN9__gnu_cxx17__normal_iteratorIP10regmatch_tNSt9__cxx19986vectorIS3_SaIS3_EEEEENSt7__debug6vectorIS3_S7_EEE11_M_constantEv@Base 2.1.0
 _ZNK11__gnu_debug14_Safe_iteratorIN9__gnu_cxx17__normal_iteratorIP10regmatch_tNSt9__cxx19986vectorIS3_SaIS3_EEEEENSt7__debug6vectorIS3_S7_EEE11_M_is_beginEv@Base 2.1.0
 _ZNK11__gnu_debug14_Safe_iteratorIN9__gnu_cxx17__normal_iteratorIP10regmatch_tNSt9__cxx19986vectorIS3_SaIS3_EEEEENSt7__debug6vectorIS3_S7_EEE15_M_get_sequenceEv@Base 2.1.0
 _ZNK11__gnu_debug14_Safe_iteratorIN9__gnu_cxx17__normal_iteratorIP10regmatch_tNSt9__cxx19986vectorIS3_SaIS3_EEEEENSt7__debug6vectorIS3_S7_EEE18_M_is_before_beginEv@Base 2.1.0
 _ZNK11__gnu_debug14_Safe_iteratorIN9__gnu_cxx17__normal_iteratorIP10regmatch_tNSt9__cxx19986vectorIS3_SaIS3_EEEEENSt7__debug6vectorIS3_S7_EEE4baseEv@Base 2.1.0
 _ZNK11__gnu_debug14_Safe_iteratorIN9__gnu_cxx17__normal_iteratorIP10regmatch_tNSt9__cxx19986vectorIS3_SaIS3_EEEEENSt7__debug6vectorIS3_S7_EEE9_M_is_endEv@Base 2.1.0
 _ZNK11__gnu_debug14_Safe_iteratorIN9__gnu_cxx17__normal_iteratorIPK10regmatch_tNSt9__cxx19986vectorIS3_SaIS3_EEEEENSt7__debug6vectorIS3_S8_EEE11_M_constantEv@Base 2.1.0
 _ZNK11__gnu_debug14_Safe_iteratorIN9__gnu_cxx17__normal_iteratorIPK10regmatch_tNSt9__cxx19986vectorIS3_SaIS3_EEEEENSt7__debug6vectorIS3_S8_EEE11_M_is_beginEv@Base 2.1.0
 _ZNK11__gnu_debug14_Safe_iteratorIN9__gnu_cxx17__normal_iteratorIPK10regmatch_tNSt9__cxx19986vectorIS3_SaIS3_EEEEENSt7__debug6vectorIS3_S8_EEE15_M_get_sequenceEv@Base 2.1.0
 _ZNK11__gnu_debug14_Safe_iteratorIN9__gnu_cxx17__normal_iteratorIPK10regmatch_tNSt9__cxx19986vectorIS3_SaIS3_EEEEENSt7__debug6vectorIS3_S8_EEE16_M_incrementableEv@Base 2.1.0
 _ZNK11__gnu_debug14_Safe_iteratorIN9__gnu_cxx17__normal_iteratorIPK10regmatch_tNSt9__cxx19986vectorIS3_SaIS3_EEEEENSt7__debug6vectorIS3_S8_EEE18_M_dereferenceableEv@Base 2.1.0
 _ZNK11__gnu_debug14_Safe_iteratorIN9__gnu_cxx17__normal_iteratorIPK10regmatch_tNSt9__cxx19986vectorIS3_SaIS3_EEEEENSt7__debug6vectorIS3_S8_EEE18_M_is_before_beginEv@Base 2.1.0
 _ZNK11__gnu_debug14_Safe_iteratorIN9__gnu_cxx17__normal_iteratorIPK10regmatch_tNSt9__cxx19986vectorIS3_SaIS3_EEEEENSt7__debug6vectorIS3_S8_EEE4baseEv@Base 2.1.0
 _ZNK11__gnu_debug14_Safe_iteratorIN9__gnu_cxx17__normal_iteratorIPK10regmatch_tNSt9__cxx19986vectorIS3_SaIS3_EEEEENSt7__debug6vectorIS3_S8_EEE9_M_is_endEv@Base 2.1.0
 _ZNK11__gnu_debug14_Safe_iteratorIN9__gnu_cxx17__normal_iteratorIPK10regmatch_tNSt9__cxx19986vectorIS3_SaIS3_EEEEENSt7__debug6vectorIS3_S8_EEEptEv@Base 2.1.0
 _ZNK11__gnu_debug14_Safe_iteratorIN9__gnu_cxx17__normal_iteratorIPKN7blocxx618IntrusiveReferenceINS3_26LogMessagePatternFormatter9ConverterEEENSt9__cxx19986vectorIS7_SaIS7_EEEEENSt7__debug6vectorIS7_SC_EEE11_M_constantEv@Base 2.1.0
 _ZNK11__gnu_debug14_Safe_iteratorIN9__gnu_cxx17__normal_iteratorIPKN7blocxx618IntrusiveReferenceINS3_26LogMessagePatternFormatter9ConverterEEENSt9__cxx19986vectorIS7_SaIS7_EEEEENSt7__debug6vectorIS7_SC_EEE11_M_is_beginEv@Base 2.1.0
 _ZNK11__gnu_debug14_Safe_iteratorIN9__gnu_cxx17__normal_iteratorIPKN7blocxx618IntrusiveReferenceINS3_26LogMessagePatternFormatter9ConverterEEENSt9__cxx19986vectorIS7_SaIS7_EEEEENSt7__debug6vectorIS7_SC_EEE15_M_get_sequenceEv@Base 2.1.0
 _ZNK11__gnu_debug14_Safe_iteratorIN9__gnu_cxx17__normal_iteratorIPKN7blocxx618IntrusiveReferenceINS3_26LogMessagePatternFormatter9ConverterEEENSt9__cxx19986vectorIS7_SaIS7_EEEEENSt7__debug6vectorIS7_SC_EEE16_M_incrementableEv@Base 2.1.0
 _ZNK11__gnu_debug14_Safe_iteratorIN9__gnu_cxx17__normal_iteratorIPKN7blocxx618IntrusiveReferenceINS3_26LogMessagePatternFormatter9ConverterEEENSt9__cxx19986vectorIS7_SaIS7_EEEEENSt7__debug6vectorIS7_SC_EEE18_M_dereferenceableEv@Base 2.1.0
 _ZNK11__gnu_debug14_Safe_iteratorIN9__gnu_cxx17__normal_iteratorIPKN7blocxx618IntrusiveReferenceINS3_26LogMessagePatternFormatter9ConverterEEENSt9__cxx19986vectorIS7_SaIS7_EEEEENSt7__debug6vectorIS7_SC_EEE18_M_is_before_beginEv@Base 2.1.0
 _ZNK11__gnu_debug14_Safe_iteratorIN9__gnu_cxx17__normal_iteratorIPKN7blocxx618IntrusiveReferenceINS3_26LogMessagePatternFormatter9ConverterEEENSt9__cxx19986vectorIS7_SaIS7_EEEEENSt7__debug6vectorIS7_SC_EEE4baseEv@Base 2.1.0
 _ZNK11__gnu_debug14_Safe_iteratorIN9__gnu_cxx17__normal_iteratorIPKN7blocxx618IntrusiveReferenceINS3_26LogMessagePatternFormatter9ConverterEEENSt9__cxx19986vectorIS7_SaIS7_EEEEENSt7__debug6vectorIS7_SC_EEE9_M_is_endEv@Base 2.1.0
 _ZNK11__gnu_debug14_Safe_iteratorIN9__gnu_cxx17__normal_iteratorIPKN7blocxx618IntrusiveReferenceINS3_26LogMessagePatternFormatter9ConverterEEENSt9__cxx19986vectorIS7_SaIS7_EEEEENSt7__debug6vectorIS7_SC_EEEdeEv@Base 2.1.0
 _ZNK11__gnu_debug14_Safe_iteratorIN9__gnu_cxx17__normal_iteratorIPKN7blocxx618IntrusiveReferenceINS3_6ThreadEEENSt9__cxx19986vectorIS6_SaIS6_EEEEENSt7__debug6vectorIS6_SB_EEE4baseEv@Base 2.1.0
 _ZNK11__gnu_debug14_Safe_iteratorIN9__gnu_cxx17__normal_iteratorIPKN7blocxx66StringENSt9__cxx19986vectorIS4_SaIS4_EEEEENSt7__debug6vectorIS4_S9_EEE11_M_constantEv@Base 2.1.0
 _ZNK11__gnu_debug14_Safe_iteratorIN9__gnu_cxx17__normal_iteratorIPKN7blocxx66StringENSt9__cxx19986vectorIS4_SaIS4_EEEEENSt7__debug6vectorIS4_S9_EEE11_M_is_beginEv@Base 2.1.0
 _ZNK11__gnu_debug14_Safe_iteratorIN9__gnu_cxx17__normal_iteratorIPKN7blocxx66StringENSt9__cxx19986vectorIS4_SaIS4_EEEEENSt7__debug6vectorIS4_S9_EEE14_M_can_advanceERKl@Base 2.1.0
 _ZNK11__gnu_debug14_Safe_iteratorIN9__gnu_cxx17__normal_iteratorIPKN7blocxx66StringENSt9__cxx19986vectorIS4_SaIS4_EEEEENSt7__debug6vectorIS4_S9_EEE14_M_valid_rangeISB_EEbRKNS0_IT_SE_EE@Base 2.1.0
 _ZNK11__gnu_debug14_Safe_iteratorIN9__gnu_cxx17__normal_iteratorIPKN7blocxx66StringENSt9__cxx19986vectorIS4_SaIS4_EEEEENSt7__debug6vectorIS4_S9_EEE15_M_get_sequenceEv@Base 2.1.0
 _ZNK11__gnu_debug14_Safe_iteratorIN9__gnu_cxx17__normal_iteratorIPKN7blocxx66StringENSt9__cxx19986vectorIS4_SaIS4_EEEEENSt7__debug6vectorIS4_S9_EEE16_M_incrementableEv@Base 2.1.0
 _ZNK11__gnu_debug14_Safe_iteratorIN9__gnu_cxx17__normal_iteratorIPKN7blocxx66StringENSt9__cxx19986vectorIS4_SaIS4_EEEEENSt7__debug6vectorIS4_S9_EEE18_M_dereferenceableEv@Base 2.1.0
 _ZNK11__gnu_debug14_Safe_iteratorIN9__gnu_cxx17__normal_iteratorIPKN7blocxx66StringENSt9__cxx19986vectorIS4_SaIS4_EEEEENSt7__debug6vectorIS4_S9_EEE18_M_is_before_beginEv@Base 2.1.0
 _ZNK11__gnu_debug14_Safe_iteratorIN9__gnu_cxx17__normal_iteratorIPKN7blocxx66StringENSt9__cxx19986vectorIS4_SaIS4_EEEEENSt7__debug6vectorIS4_S9_EEE4baseEv@Base 2.1.0
 _ZNK11__gnu_debug14_Safe_iteratorIN9__gnu_cxx17__normal_iteratorIPKN7blocxx66StringENSt9__cxx19986vectorIS4_SaIS4_EEEEENSt7__debug6vectorIS4_S9_EEE9_M_is_endEv@Base 2.1.0
 _ZNK11__gnu_debug14_Safe_iteratorIN9__gnu_cxx17__normal_iteratorIPKN7blocxx66StringENSt9__cxx19986vectorIS4_SaIS4_EEEEENSt7__debug6vectorIS4_S9_EEEdeEv@Base 2.1.0
 _ZNK11__gnu_debug14_Safe_iteratorIN9__gnu_cxx17__normal_iteratorIPKN7blocxx66StringENSt9__cxx19986vectorIS4_SaIS4_EEEEENSt7__debug6vectorIS4_S9_EEEptEv@Base 2.1.0
 _ZNK11__gnu_debug14_Safe_iteratorIN9__gnu_cxx17__normal_iteratorIPKN7blocxx69PerlRegEx7match_tENSt9__cxx19986vectorIS5_SaIS5_EEEEENSt7__debug6vectorIS5_SA_EEE11_M_constantEv@Base 2.1.0
 _ZNK11__gnu_debug14_Safe_iteratorIN9__gnu_cxx17__normal_iteratorIPKN7blocxx69PerlRegEx7match_tENSt9__cxx19986vectorIS5_SaIS5_EEEEENSt7__debug6vectorIS5_SA_EEE11_M_is_beginEv@Base 2.1.0
 _ZNK11__gnu_debug14_Safe_iteratorIN9__gnu_cxx17__normal_iteratorIPKN7blocxx69PerlRegEx7match_tENSt9__cxx19986vectorIS5_SaIS5_EEEEENSt7__debug6vectorIS5_SA_EEE15_M_get_sequenceEv@Base 2.1.0
 _ZNK11__gnu_debug14_Safe_iteratorIN9__gnu_cxx17__normal_iteratorIPKN7blocxx69PerlRegEx7match_tENSt9__cxx19986vectorIS5_SaIS5_EEEEENSt7__debug6vectorIS5_SA_EEE16_M_incrementableEv@Base 2.1.0
 _ZNK11__gnu_debug14_Safe_iteratorIN9__gnu_cxx17__normal_iteratorIPKN7blocxx69PerlRegEx7match_tENSt9__cxx19986vectorIS5_SaIS5_EEEEENSt7__debug6vectorIS5_SA_EEE18_M_dereferenceableEv@Base 2.1.0
 _ZNK11__gnu_debug14_Safe_iteratorIN9__gnu_cxx17__normal_iteratorIPKN7blocxx69PerlRegEx7match_tENSt9__cxx19986vectorIS5_SaIS5_EEEEENSt7__debug6vectorIS5_SA_EEE18_M_is_before_beginEv@Base 2.1.0
 _ZNK11__gnu_debug14_Safe_iteratorIN9__gnu_cxx17__normal_iteratorIPKN7blocxx69PerlRegEx7match_tENSt9__cxx19986vectorIS5_SaIS5_EEEEENSt7__debug6vectorIS5_SA_EEE4baseEv@Base 2.1.0
 _ZNK11__gnu_debug14_Safe_iteratorIN9__gnu_cxx17__normal_iteratorIPKN7blocxx69PerlRegEx7match_tENSt9__cxx19986vectorIS5_SaIS5_EEEEENSt7__debug6vectorIS5_SA_EEE9_M_is_endEv@Base 2.1.0
 _ZNK11__gnu_debug14_Safe_iteratorIN9__gnu_cxx17__normal_iteratorIPKN7blocxx69PerlRegEx7match_tENSt9__cxx19986vectorIS5_SaIS5_EEEEENSt7__debug6vectorIS5_SA_EEEptEv@Base 2.1.0
 _ZNK11__gnu_debug14_Safe_iteratorIN9__gnu_cxx17__normal_iteratorIPKSt4pairIN7blocxx66StringENS4_17EFileStatusReturnEENSt9__cxx19986vectorIS7_SaIS7_EEEEENSt7__debug6vectorIS7_SC_EEE11_M_constantEv@Base 2.1.0
 _ZNK11__gnu_debug14_Safe_iteratorIN9__gnu_cxx17__normal_iteratorIPKSt4pairIN7blocxx66StringENS4_17EFileStatusReturnEENSt9__cxx19986vectorIS7_SaIS7_EEEEENSt7__debug6vectorIS7_SC_EEE11_M_is_beginEv@Base 2.1.0
 _ZNK11__gnu_debug14_Safe_iteratorIN9__gnu_cxx17__normal_iteratorIPKSt4pairIN7blocxx66StringENS4_17EFileStatusReturnEENSt9__cxx19986vectorIS7_SaIS7_EEEEENSt7__debug6vectorIS7_SC_EEE15_M_get_sequenceEv@Base 2.1.0
 _ZNK11__gnu_debug14_Safe_iteratorIN9__gnu_cxx17__normal_iteratorIPKSt4pairIN7blocxx66StringENS4_17EFileStatusReturnEENSt9__cxx19986vectorIS7_SaIS7_EEEEENSt7__debug6vectorIS7_SC_EEE16_M_incrementableEv@Base 2.1.0
 _ZNK11__gnu_debug14_Safe_iteratorIN9__gnu_cxx17__normal_iteratorIPKSt4pairIN7blocxx66StringENS4_17EFileStatusReturnEENSt9__cxx19986vectorIS7_SaIS7_EEEEENSt7__debug6vectorIS7_SC_EEE18_M_dereferenceableEv@Base 2.1.0
 _ZNK11__gnu_debug14_Safe_iteratorIN9__gnu_cxx17__normal_iteratorIPKSt4pairIN7blocxx66StringENS4_17EFileStatusReturnEENSt9__cxx19986vectorIS7_SaIS7_EEEEENSt7__debug6vectorIS7_SC_EEE18_M_is_before_beginEv@Base 2.1.0
 _ZNK11__gnu_debug14_Safe_iteratorIN9__gnu_cxx17__normal_iteratorIPKSt4pairIN7blocxx66StringENS4_17EFileStatusReturnEENSt9__cxx19986vectorIS7_SaIS7_EEEEENSt7__debug6vectorIS7_SC_EEE4baseEv@Base 2.1.0
 _ZNK11__gnu_debug14_Safe_iteratorIN9__gnu_cxx17__normal_iteratorIPKSt4pairIN7blocxx66StringENS4_17EFileStatusReturnEENSt9__cxx19986vectorIS7_SaIS7_EEEEENSt7__debug6vectorIS7_SC_EEE9_M_is_endEv@Base 2.1.0
 _ZNK11__gnu_debug14_Safe_iteratorIN9__gnu_cxx17__normal_iteratorIPKSt4pairIN7blocxx66StringENS4_17EFileStatusReturnEENSt9__cxx19986vectorIS7_SaIS7_EEEEENSt7__debug6vectorIS7_SC_EEEptEv@Base 2.1.0
 _ZNK11__gnu_debug14_Safe_iteratorIN9__gnu_cxx17__normal_iteratorIPKSt4pairIN7blocxx66StringES5_ENSt9__cxx19986vectorIS6_SaIS6_EEEEENSt7__debug6vectorIS6_SB_EEE11_M_constantEv@Base 2.1.0
 _ZNK11__gnu_debug14_Safe_iteratorIN9__gnu_cxx17__normal_iteratorIPKSt4pairIN7blocxx66StringES5_ENSt9__cxx19986vectorIS6_SaIS6_EEEEENSt7__debug6vectorIS6_SB_EEE11_M_is_beginEv@Base 2.1.0
 _ZNK11__gnu_debug14_Safe_iteratorIN9__gnu_cxx17__normal_iteratorIPKSt4pairIN7blocxx66StringES5_ENSt9__cxx19986vectorIS6_SaIS6_EEEEENSt7__debug6vectorIS6_SB_EEE14_M_can_advanceERKl@Base 2.1.0
 _ZNK11__gnu_debug14_Safe_iteratorIN9__gnu_cxx17__normal_iteratorIPKSt4pairIN7blocxx66StringES5_ENSt9__cxx19986vectorIS6_SaIS6_EEEEENSt7__debug6vectorIS6_SB_EEE14_M_valid_rangeISD_EEbRKNS0_IT_SG_EE@Base 2.1.0
 _ZNK11__gnu_debug14_Safe_iteratorIN9__gnu_cxx17__normal_iteratorIPKSt4pairIN7blocxx66StringES5_ENSt9__cxx19986vectorIS6_SaIS6_EEEEENSt7__debug6vectorIS6_SB_EEE15_M_get_sequenceEv@Base 2.1.0
 _ZNK11__gnu_debug14_Safe_iteratorIN9__gnu_cxx17__normal_iteratorIPKSt4pairIN7blocxx66StringES5_ENSt9__cxx19986vectorIS6_SaIS6_EEEEENSt7__debug6vectorIS6_SB_EEE16_M_incrementableEv@Base 2.1.0
 _ZNK11__gnu_debug14_Safe_iteratorIN9__gnu_cxx17__normal_iteratorIPKSt4pairIN7blocxx66StringES5_ENSt9__cxx19986vectorIS6_SaIS6_EEEEENSt7__debug6vectorIS6_SB_EEE18_M_dereferenceableEv@Base 2.1.0
 _ZNK11__gnu_debug14_Safe_iteratorIN9__gnu_cxx17__normal_iteratorIPKSt4pairIN7blocxx66StringES5_ENSt9__cxx19986vectorIS6_SaIS6_EEEEENSt7__debug6vectorIS6_SB_EEE18_M_is_before_beginEv@Base 2.1.0
 _ZNK11__gnu_debug14_Safe_iteratorIN9__gnu_cxx17__normal_iteratorIPKSt4pairIN7blocxx66StringES5_ENSt9__cxx19986vectorIS6_SaIS6_EEEEENSt7__debug6vectorIS6_SB_EEE4baseEv@Base 2.1.0
 _ZNK11__gnu_debug14_Safe_iteratorIN9__gnu_cxx17__normal_iteratorIPKSt4pairIN7blocxx66StringES5_ENSt9__cxx19986vectorIS6_SaIS6_EEEEENSt7__debug6vectorIS6_SB_EEE9_M_is_endEv@Base 2.1.0
 _ZNK11__gnu_debug14_Safe_iteratorIN9__gnu_cxx17__normal_iteratorIPKSt4pairIN7blocxx66StringES5_ENSt9__cxx19986vectorIS6_SaIS6_EEEEENSt7__debug6vectorIS6_SB_EEEdeEv@Base 2.1.0
 _ZNK11__gnu_debug14_Safe_iteratorIN9__gnu_cxx17__normal_iteratorIPKSt4pairIN7blocxx66StringES5_ENSt9__cxx19986vectorIS6_SaIS6_EEEEENSt7__debug6vectorIS6_SB_EEEptEv@Base 2.1.0
 _ZNK11__gnu_debug14_Safe_iteratorIN9__gnu_cxx17__normal_iteratorIPKSt4pairIiN7blocxx612SelectEngine4DataEENSt9__cxx19986vectorIS7_SaIS7_EEEEENSt7__debug6vectorIS7_SC_EEE11_M_constantEv@Base 2.1.0
 _ZNK11__gnu_debug14_Safe_iteratorIN9__gnu_cxx17__normal_iteratorIPKSt4pairIiN7blocxx612SelectEngine4DataEENSt9__cxx19986vectorIS7_SaIS7_EEEEENSt7__debug6vectorIS7_SC_EEE11_M_is_beginEv@Base 2.1.0
 _ZNK11__gnu_debug14_Safe_iteratorIN9__gnu_cxx17__normal_iteratorIPKSt4pairIiN7blocxx612SelectEngine4DataEENSt9__cxx19986vectorIS7_SaIS7_EEEEENSt7__debug6vectorIS7_SC_EEE15_M_get_sequenceEv@Base 2.1.0
 _ZNK11__gnu_debug14_Safe_iteratorIN9__gnu_cxx17__normal_iteratorIPKSt4pairIiN7blocxx612SelectEngine4DataEENSt9__cxx19986vectorIS7_SaIS7_EEEEENSt7__debug6vectorIS7_SC_EEE16_M_incrementableEv@Base 2.1.0
 _ZNK11__gnu_debug14_Safe_iteratorIN9__gnu_cxx17__normal_iteratorIPKSt4pairIiN7blocxx612SelectEngine4DataEENSt9__cxx19986vectorIS7_SaIS7_EEEEENSt7__debug6vectorIS7_SC_EEE18_M_dereferenceableEv@Base 2.1.0
 _ZNK11__gnu_debug14_Safe_iteratorIN9__gnu_cxx17__normal_iteratorIPKSt4pairIiN7blocxx612SelectEngine4DataEENSt9__cxx19986vectorIS7_SaIS7_EEEEENSt7__debug6vectorIS7_SC_EEE18_M_is_before_beginEv@Base 2.1.0
 _ZNK11__gnu_debug14_Safe_iteratorIN9__gnu_cxx17__normal_iteratorIPKSt4pairIiN7blocxx612SelectEngine4DataEENSt9__cxx19986vectorIS7_SaIS7_EEEEENSt7__debug6vectorIS7_SC_EEE4baseEv@Base 2.1.0
 _ZNK11__gnu_debug14_Safe_iteratorIN9__gnu_cxx17__normal_iteratorIPKSt4pairIiN7blocxx612SelectEngine4DataEENSt9__cxx19986vectorIS7_SaIS7_EEEEENSt7__debug6vectorIS7_SC_EEE9_M_is_endEv@Base 2.1.0
 _ZNK11__gnu_debug14_Safe_iteratorIN9__gnu_cxx17__normal_iteratorIPKSt4pairIiN7blocxx612SelectEngine4DataEENSt9__cxx19986vectorIS7_SaIS7_EEEEENSt7__debug6vectorIS7_SC_EEEptEv@Base 2.1.0
 _ZNK11__gnu_debug14_Safe_iteratorIN9__gnu_cxx17__normal_iteratorIPKSt4pairIiN7blocxx65ArrayINS4_6StringEEEENSt9__cxx19986vectorIS8_SaIS8_EEEEENSt7__debug6vectorIS8_SD_EEE11_M_constantEv@Base 2.1.0
 _ZNK11__gnu_debug14_Safe_iteratorIN9__gnu_cxx17__normal_iteratorIPKSt4pairIiN7blocxx65ArrayINS4_6StringEEEENSt9__cxx19986vectorIS8_SaIS8_EEEEENSt7__debug6vectorIS8_SD_EEE11_M_is_beginEv@Base 2.1.0
 _ZNK11__gnu_debug14_Safe_iteratorIN9__gnu_cxx17__normal_iteratorIPKSt4pairIiN7blocxx65ArrayINS4_6StringEEEENSt9__cxx19986vectorIS8_SaIS8_EEEEENSt7__debug6vectorIS8_SD_EEE14_M_can_advanceERKl@Base 2.1.0
 _ZNK11__gnu_debug14_Safe_iteratorIN9__gnu_cxx17__normal_iteratorIPKSt4pairIiN7blocxx65ArrayINS4_6StringEEEENSt9__cxx19986vectorIS8_SaIS8_EEEEENSt7__debug6vectorIS8_SD_EEE14_M_valid_rangeISF_EEbRKNS0_IT_SI_EE@Base 2.1.0
 _ZNK11__gnu_debug14_Safe_iteratorIN9__gnu_cxx17__normal_iteratorIPKSt4pairIiN7blocxx65ArrayINS4_6StringEEEENSt9__cxx19986vectorIS8_SaIS8_EEEEENSt7__debug6vectorIS8_SD_EEE15_M_get_sequenceEv@Base 2.1.0
 _ZNK11__gnu_debug14_Safe_iteratorIN9__gnu_cxx17__normal_iteratorIPKSt4pairIiN7blocxx65ArrayINS4_6StringEEEENSt9__cxx19986vectorIS8_SaIS8_EEEEENSt7__debug6vectorIS8_SD_EEE16_M_incrementableEv@Base 2.1.0
 _ZNK11__gnu_debug14_Safe_iteratorIN9__gnu_cxx17__normal_iteratorIPKSt4pairIiN7blocxx65ArrayINS4_6StringEEEENSt9__cxx19986vectorIS8_SaIS8_EEEEENSt7__debug6vectorIS8_SD_EEE18_M_dereferenceableEv@Base 2.1.0
 _ZNK11__gnu_debug14_Safe_iteratorIN9__gnu_cxx17__normal_iteratorIPKSt4pairIiN7blocxx65ArrayINS4_6StringEEEENSt9__cxx19986vectorIS8_SaIS8_EEEEENSt7__debug6vectorIS8_SD_EEE18_M_is_before_beginEv@Base 2.1.0
 _ZNK11__gnu_debug14_Safe_iteratorIN9__gnu_cxx17__normal_iteratorIPKSt4pairIiN7blocxx65ArrayINS4_6StringEEEENSt9__cxx19986vectorIS8_SaIS8_EEEEENSt7__debug6vectorIS8_SD_EEE4baseEv@Base 2.1.0
 _ZNK11__gnu_debug14_Safe_iteratorIN9__gnu_cxx17__normal_iteratorIPKSt4pairIiN7blocxx65ArrayINS4_6StringEEEENSt9__cxx19986vectorIS8_SaIS8_EEEEENSt7__debug6vectorIS8_SD_EEE9_M_is_endEv@Base 2.1.0
 _ZNK11__gnu_debug14_Safe_iteratorIN9__gnu_cxx17__normal_iteratorIPKSt4pairIiN7blocxx65ArrayINS4_6StringEEEENSt9__cxx19986vectorIS8_SaIS8_EEEEENSt7__debug6vectorIS8_SD_EEEdeEv@Base 2.1.0
 _ZNK11__gnu_debug14_Safe_iteratorIN9__gnu_cxx17__normal_iteratorIPKSt4pairIiN7blocxx65ArrayINS4_6StringEEEENSt9__cxx19986vectorIS8_SaIS8_EEEEENSt7__debug6vectorIS8_SD_EEEptEv@Base 2.1.0
 _ZNK11__gnu_debug14_Safe_iteratorIN9__gnu_cxx17__normal_iteratorIPKcNSt9__cxx19986vectorIcSaIcEEEEENSt7__debug6vectorIcS7_EEE4baseEv@Base 2.1.0
 _ZNK11__gnu_debug14_Safe_iteratorIN9__gnu_cxx17__normal_iteratorIPKhNSt9__cxx19986vectorIhSaIhEEEEENSt7__debug6vectorIhS7_EEE4baseEv@Base 2.1.0
 _ZNK11__gnu_debug14_Safe_iteratorIN9__gnu_cxx17__normal_iteratorIPKiNSt9__cxx19986vectorIiSaIiEEEEENSt7__debug6vectorIiS7_EEE4baseEv@Base 2.1.0
 _ZNK11__gnu_debug14_Safe_iteratorIN9__gnu_cxx17__normal_iteratorIPN7blocxx618IntrusiveReferenceINS3_6ThreadEEENSt9__cxx19986vectorIS6_SaIS6_EEEEENSt7__debug6vectorIS6_SA_EEE11_M_constantEv@Base 2.1.0
 _ZNK11__gnu_debug14_Safe_iteratorIN9__gnu_cxx17__normal_iteratorIPN7blocxx618IntrusiveReferenceINS3_6ThreadEEENSt9__cxx19986vectorIS6_SaIS6_EEEEENSt7__debug6vectorIS6_SA_EEE11_M_is_beginEv@Base 2.1.0
 _ZNK11__gnu_debug14_Safe_iteratorIN9__gnu_cxx17__normal_iteratorIPN7blocxx618IntrusiveReferenceINS3_6ThreadEEENSt9__cxx19986vectorIS6_SaIS6_EEEEENSt7__debug6vectorIS6_SA_EEE14_M_can_advanceERKl@Base 2.1.0
 _ZNK11__gnu_debug14_Safe_iteratorIN9__gnu_cxx17__normal_iteratorIPN7blocxx618IntrusiveReferenceINS3_6ThreadEEENSt9__cxx19986vectorIS6_SaIS6_EEEEENSt7__debug6vectorIS6_SA_EEE15_M_get_sequenceEv@Base 2.1.0
 _ZNK11__gnu_debug14_Safe_iteratorIN9__gnu_cxx17__normal_iteratorIPN7blocxx618IntrusiveReferenceINS3_6ThreadEEENSt9__cxx19986vectorIS6_SaIS6_EEEEENSt7__debug6vectorIS6_SA_EEE18_M_dereferenceableEv@Base 2.1.0
 _ZNK11__gnu_debug14_Safe_iteratorIN9__gnu_cxx17__normal_iteratorIPN7blocxx618IntrusiveReferenceINS3_6ThreadEEENSt9__cxx19986vectorIS6_SaIS6_EEEEENSt7__debug6vectorIS6_SA_EEE18_M_is_before_beginEv@Base 2.1.0
 _ZNK11__gnu_debug14_Safe_iteratorIN9__gnu_cxx17__normal_iteratorIPN7blocxx618IntrusiveReferenceINS3_6ThreadEEENSt9__cxx19986vectorIS6_SaIS6_EEEEENSt7__debug6vectorIS6_SA_EEE4baseEv@Base 2.1.0
 _ZNK11__gnu_debug14_Safe_iteratorIN9__gnu_cxx17__normal_iteratorIPN7blocxx618IntrusiveReferenceINS3_6ThreadEEENSt9__cxx19986vectorIS6_SaIS6_EEEEENSt7__debug6vectorIS6_SA_EEE9_M_is_endEv@Base 2.1.0
 _ZNK11__gnu_debug14_Safe_iteratorIN9__gnu_cxx17__normal_iteratorIPN7blocxx618IntrusiveReferenceINS3_6ThreadEEENSt9__cxx19986vectorIS6_SaIS6_EEEEENSt7__debug6vectorIS6_SA_EEEplERKl@Base 2.1.0
 _ZNK11__gnu_debug14_Safe_iteratorIN9__gnu_cxx17__normal_iteratorIPN7blocxx66StringENSt9__cxx19986vectorIS4_SaIS4_EEEEENSt7__debug6vectorIS4_S8_EEE11_M_constantEv@Base 2.1.0
 _ZNK11__gnu_debug14_Safe_iteratorIN9__gnu_cxx17__normal_iteratorIPN7blocxx66StringENSt9__cxx19986vectorIS4_SaIS4_EEEEENSt7__debug6vectorIS4_S8_EEE11_M_is_beginEv@Base 2.1.0
 _ZNK11__gnu_debug14_Safe_iteratorIN9__gnu_cxx17__normal_iteratorIPN7blocxx66StringENSt9__cxx19986vectorIS4_SaIS4_EEEEENSt7__debug6vectorIS4_S8_EEE14_M_can_advanceERKl@Base 2.1.0
 _ZNK11__gnu_debug14_Safe_iteratorIN9__gnu_cxx17__normal_iteratorIPN7blocxx66StringENSt9__cxx19986vectorIS4_SaIS4_EEEEENSt7__debug6vectorIS4_S8_EEE14_M_valid_rangeISA_EEbRKNS0_IT_SD_EE@Base 2.1.0
 _ZNK11__gnu_debug14_Safe_iteratorIN9__gnu_cxx17__normal_iteratorIPN7blocxx66StringENSt9__cxx19986vectorIS4_SaIS4_EEEEENSt7__debug6vectorIS4_S8_EEE15_M_get_sequenceEv@Base 2.1.0
 _ZNK11__gnu_debug14_Safe_iteratorIN9__gnu_cxx17__normal_iteratorIPN7blocxx66StringENSt9__cxx19986vectorIS4_SaIS4_EEEEENSt7__debug6vectorIS4_S8_EEE16_M_decrementableEv@Base 2.1.0
 _ZNK11__gnu_debug14_Safe_iteratorIN9__gnu_cxx17__normal_iteratorIPN7blocxx66StringENSt9__cxx19986vectorIS4_SaIS4_EEEEENSt7__debug6vectorIS4_S8_EEE16_M_incrementableEv@Base 2.1.0
 _ZNK11__gnu_debug14_Safe_iteratorIN9__gnu_cxx17__normal_iteratorIPN7blocxx66StringENSt9__cxx19986vectorIS4_SaIS4_EEEEENSt7__debug6vectorIS4_S8_EEE18_M_dereferenceableEv@Base 2.1.0
 _ZNK11__gnu_debug14_Safe_iteratorIN9__gnu_cxx17__normal_iteratorIPN7blocxx66StringENSt9__cxx19986vectorIS4_SaIS4_EEEEENSt7__debug6vectorIS4_S8_EEE18_M_is_before_beginEv@Base 2.1.0
 _ZNK11__gnu_debug14_Safe_iteratorIN9__gnu_cxx17__normal_iteratorIPN7blocxx66StringENSt9__cxx19986vectorIS4_SaIS4_EEEEENSt7__debug6vectorIS4_S8_EEE4baseEv@Base 2.1.0
 _ZNK11__gnu_debug14_Safe_iteratorIN9__gnu_cxx17__normal_iteratorIPN7blocxx66StringENSt9__cxx19986vectorIS4_SaIS4_EEEEENSt7__debug6vectorIS4_S8_EEE9_M_is_endEv@Base 2.1.0
 _ZNK11__gnu_debug14_Safe_iteratorIN9__gnu_cxx17__normal_iteratorIPN7blocxx66StringENSt9__cxx19986vectorIS4_SaIS4_EEEEENSt7__debug6vectorIS4_S8_EEEdeEv@Base 2.1.0
 _ZNK11__gnu_debug14_Safe_iteratorIN9__gnu_cxx17__normal_iteratorIPN7blocxx66StringENSt9__cxx19986vectorIS4_SaIS4_EEEEENSt7__debug6vectorIS4_S8_EEEixERKl@Base 2.1.0
 _ZNK11__gnu_debug14_Safe_iteratorIN9__gnu_cxx17__normal_iteratorIPN7blocxx66StringENSt9__cxx19986vectorIS4_SaIS4_EEEEENSt7__debug6vectorIS4_S8_EEEmiERKl@Base 2.1.0
 _ZNK11__gnu_debug14_Safe_iteratorIN9__gnu_cxx17__normal_iteratorIPN7blocxx66StringENSt9__cxx19986vectorIS4_SaIS4_EEEEENSt7__debug6vectorIS4_S8_EEEplERKl@Base 2.1.0
 _ZNK11__gnu_debug14_Safe_iteratorIN9__gnu_cxx17__normal_iteratorIPN7blocxx69PerlRegEx7match_tENSt9__cxx19986vectorIS5_SaIS5_EEEEENSt7__debug6vectorIS5_S9_EEE11_M_constantEv@Base 2.1.0
 _ZNK11__gnu_debug14_Safe_iteratorIN9__gnu_cxx17__normal_iteratorIPN7blocxx69PerlRegEx7match_tENSt9__cxx19986vectorIS5_SaIS5_EEEEENSt7__debug6vectorIS5_S9_EEE11_M_is_beginEv@Base 2.1.0
 _ZNK11__gnu_debug14_Safe_iteratorIN9__gnu_cxx17__normal_iteratorIPN7blocxx69PerlRegEx7match_tENSt9__cxx19986vectorIS5_SaIS5_EEEEENSt7__debug6vectorIS5_S9_EEE15_M_get_sequenceEv@Base 2.1.0
 _ZNK11__gnu_debug14_Safe_iteratorIN9__gnu_cxx17__normal_iteratorIPN7blocxx69PerlRegEx7match_tENSt9__cxx19986vectorIS5_SaIS5_EEEEENSt7__debug6vectorIS5_S9_EEE18_M_is_before_beginEv@Base 2.1.0
 _ZNK11__gnu_debug14_Safe_iteratorIN9__gnu_cxx17__normal_iteratorIPN7blocxx69PerlRegEx7match_tENSt9__cxx19986vectorIS5_SaIS5_EEEEENSt7__debug6vectorIS5_S9_EEE4baseEv@Base 2.1.0
 _ZNK11__gnu_debug14_Safe_iteratorIN9__gnu_cxx17__normal_iteratorIPN7blocxx69PerlRegEx7match_tENSt9__cxx19986vectorIS5_SaIS5_EEEEENSt7__debug6vectorIS5_S9_EEE9_M_is_endEv@Base 2.1.0
 _ZNK11__gnu_debug14_Safe_iteratorIN9__gnu_cxx17__normal_iteratorIPSt4pairIiN7blocxx612SelectEngine4DataEENSt9__cxx19986vectorIS7_SaIS7_EEEEENSt7__debug6vectorIS7_SB_EEE11_M_constantEv@Base 2.1.0
 _ZNK11__gnu_debug14_Safe_iteratorIN9__gnu_cxx17__normal_iteratorIPSt4pairIiN7blocxx612SelectEngine4DataEENSt9__cxx19986vectorIS7_SaIS7_EEEEENSt7__debug6vectorIS7_SB_EEE11_M_is_beginEv@Base 2.1.0
 _ZNK11__gnu_debug14_Safe_iteratorIN9__gnu_cxx17__normal_iteratorIPSt4pairIiN7blocxx612SelectEngine4DataEENSt9__cxx19986vectorIS7_SaIS7_EEEEENSt7__debug6vectorIS7_SB_EEE14_M_can_advanceERKl@Base 2.1.0
 _ZNK11__gnu_debug14_Safe_iteratorIN9__gnu_cxx17__normal_iteratorIPSt4pairIiN7blocxx612SelectEngine4DataEENSt9__cxx19986vectorIS7_SaIS7_EEEEENSt7__debug6vectorIS7_SB_EEE14_M_valid_rangeISD_EEbRKNS0_IT_SG_EE@Base 2.1.0
 _ZNK11__gnu_debug14_Safe_iteratorIN9__gnu_cxx17__normal_iteratorIPSt4pairIiN7blocxx612SelectEngine4DataEENSt9__cxx19986vectorIS7_SaIS7_EEEEENSt7__debug6vectorIS7_SB_EEE15_M_get_sequenceEv@Base 2.1.0
 _ZNK11__gnu_debug14_Safe_iteratorIN9__gnu_cxx17__normal_iteratorIPSt4pairIiN7blocxx612SelectEngine4DataEENSt9__cxx19986vectorIS7_SaIS7_EEEEENSt7__debug6vectorIS7_SB_EEE16_M_incrementableEv@Base 2.1.0
 _ZNK11__gnu_debug14_Safe_iteratorIN9__gnu_cxx17__normal_iteratorIPSt4pairIiN7blocxx612SelectEngine4DataEENSt9__cxx19986vectorIS7_SaIS7_EEEEENSt7__debug6vectorIS7_SB_EEE18_M_dereferenceableEv@Base 2.1.0
 _ZNK11__gnu_debug14_Safe_iteratorIN9__gnu_cxx17__normal_iteratorIPSt4pairIiN7blocxx612SelectEngine4DataEENSt9__cxx19986vectorIS7_SaIS7_EEEEENSt7__debug6vectorIS7_SB_EEE18_M_is_before_beginEv@Base 2.1.0
 _ZNK11__gnu_debug14_Safe_iteratorIN9__gnu_cxx17__normal_iteratorIPSt4pairIiN7blocxx612SelectEngine4DataEENSt9__cxx19986vectorIS7_SaIS7_EEEEENSt7__debug6vectorIS7_SB_EEE4baseEv@Base 2.1.0
 _ZNK11__gnu_debug14_Safe_iteratorIN9__gnu_cxx17__normal_iteratorIPSt4pairIiN7blocxx612SelectEngine4DataEENSt9__cxx19986vectorIS7_SaIS7_EEEEENSt7__debug6vectorIS7_SB_EEE9_M_is_endEv@Base 2.1.0
 _ZNK11__gnu_debug14_Safe_iteratorIN9__gnu_cxx17__normal_iteratorIPSt4pairIiN7blocxx612SelectEngine4DataEENSt9__cxx19986vectorIS7_SaIS7_EEEEENSt7__debug6vectorIS7_SB_EEEdeEv@Base 2.1.0
 _ZNK11__gnu_debug14_Safe_iteratorIN9__gnu_cxx17__normal_iteratorIPSt4pairIiN7blocxx612SelectEngine4DataEENSt9__cxx19986vectorIS7_SaIS7_EEEEENSt7__debug6vectorIS7_SB_EEEptEv@Base 2.1.0
 _ZNK11__gnu_debug14_Safe_iteratorIN9__gnu_cxx17__normal_iteratorIPSt4pairIiN7blocxx65ArrayINS4_6StringEEEENSt9__cxx19986vectorIS8_SaIS8_EEEEENSt7__debug6vectorIS8_SC_EEE11_M_constantEv@Base 2.1.0
 _ZNK11__gnu_debug14_Safe_iteratorIN9__gnu_cxx17__normal_iteratorIPSt4pairIiN7blocxx65ArrayINS4_6StringEEEENSt9__cxx19986vectorIS8_SaIS8_EEEEENSt7__debug6vectorIS8_SC_EEE11_M_is_beginEv@Base 2.1.0
 _ZNK11__gnu_debug14_Safe_iteratorIN9__gnu_cxx17__normal_iteratorIPSt4pairIiN7blocxx65ArrayINS4_6StringEEEENSt9__cxx19986vectorIS8_SaIS8_EEEEENSt7__debug6vectorIS8_SC_EEE14_M_can_advanceERKl@Base 2.1.0
 _ZNK11__gnu_debug14_Safe_iteratorIN9__gnu_cxx17__normal_iteratorIPSt4pairIiN7blocxx65ArrayINS4_6StringEEEENSt9__cxx19986vectorIS8_SaIS8_EEEEENSt7__debug6vectorIS8_SC_EEE14_M_valid_rangeISE_EEbRKNS0_IT_SH_EE@Base 2.1.0
 _ZNK11__gnu_debug14_Safe_iteratorIN9__gnu_cxx17__normal_iteratorIPSt4pairIiN7blocxx65ArrayINS4_6StringEEEENSt9__cxx19986vectorIS8_SaIS8_EEEEENSt7__debug6vectorIS8_SC_EEE15_M_get_sequenceEv@Base 2.1.0
 _ZNK11__gnu_debug14_Safe_iteratorIN9__gnu_cxx17__normal_iteratorIPSt4pairIiN7blocxx65ArrayINS4_6StringEEEENSt9__cxx19986vectorIS8_SaIS8_EEEEENSt7__debug6vectorIS8_SC_EEE16_M_incrementableEv@Base 2.1.0
 _ZNK11__gnu_debug14_Safe_iteratorIN9__gnu_cxx17__normal_iteratorIPSt4pairIiN7blocxx65ArrayINS4_6StringEEEENSt9__cxx19986vectorIS8_SaIS8_EEEEENSt7__debug6vectorIS8_SC_EEE18_M_dereferenceableEv@Base 2.1.0
 _ZNK11__gnu_debug14_Safe_iteratorIN9__gnu_cxx17__normal_iteratorIPSt4pairIiN7blocxx65ArrayINS4_6StringEEEENSt9__cxx19986vectorIS8_SaIS8_EEEEENSt7__debug6vectorIS8_SC_EEE18_M_is_before_beginEv@Base 2.1.0
 _ZNK11__gnu_debug14_Safe_iteratorIN9__gnu_cxx17__normal_iteratorIPSt4pairIiN7blocxx65ArrayINS4_6StringEEEENSt9__cxx19986vectorIS8_SaIS8_EEEEENSt7__debug6vectorIS8_SC_EEE4baseEv@Base 2.1.0
 _ZNK11__gnu_debug14_Safe_iteratorIN9__gnu_cxx17__normal_iteratorIPSt4pairIiN7blocxx65ArrayINS4_6StringEEEENSt9__cxx19986vectorIS8_SaIS8_EEEEENSt7__debug6vectorIS8_SC_EEE9_M_is_endEv@Base 2.1.0
 _ZNK11__gnu_debug14_Safe_iteratorIN9__gnu_cxx17__normal_iteratorIPSt4pairIiN7blocxx65ArrayINS4_6StringEEEENSt9__cxx19986vectorIS8_SaIS8_EEEEENSt7__debug6vectorIS8_SC_EEEdeEv@Base 2.1.0
 _ZNK11__gnu_debug14_Safe_iteratorIN9__gnu_cxx17__normal_iteratorIPSt4pairIiN7blocxx65ArrayINS4_6StringEEEENSt9__cxx19986vectorIS8_SaIS8_EEEEENSt7__debug6vectorIS8_SC_EEEptEv@Base 2.1.0
 _ZNK11__gnu_debug14_Safe_iteratorIN9__gnu_cxx17__normal_iteratorIPcNSt9__cxx19986vectorIcSaIcEEEEENSt7__debug6vectorIcS6_EEE11_M_constantEv@Base 2.1.0
 _ZNK11__gnu_debug14_Safe_iteratorIN9__gnu_cxx17__normal_iteratorIPcNSt9__cxx19986vectorIcSaIcEEEEENSt7__debug6vectorIcS6_EEE11_M_is_beginEv@Base 2.1.0
 _ZNK11__gnu_debug14_Safe_iteratorIN9__gnu_cxx17__normal_iteratorIPcNSt9__cxx19986vectorIcSaIcEEEEENSt7__debug6vectorIcS6_EEE14_M_can_advanceERKl@Base 2.1.0
 _ZNK11__gnu_debug14_Safe_iteratorIN9__gnu_cxx17__normal_iteratorIPcNSt9__cxx19986vectorIcSaIcEEEEENSt7__debug6vectorIcS6_EEE14_M_valid_rangeIS8_EEbRKNS0_IT_SB_EE@Base 2.1.0
 _ZNK11__gnu_debug14_Safe_iteratorIN9__gnu_cxx17__normal_iteratorIPcNSt9__cxx19986vectorIcSaIcEEEEENSt7__debug6vectorIcS6_EEE15_M_get_sequenceEv@Base 2.1.0
 _ZNK11__gnu_debug14_Safe_iteratorIN9__gnu_cxx17__normal_iteratorIPcNSt9__cxx19986vectorIcSaIcEEEEENSt7__debug6vectorIcS6_EEE18_M_is_before_beginEv@Base 2.1.0
 _ZNK11__gnu_debug14_Safe_iteratorIN9__gnu_cxx17__normal_iteratorIPcNSt9__cxx19986vectorIcSaIcEEEEENSt7__debug6vectorIcS6_EEE4baseEv@Base 2.1.0
 _ZNK11__gnu_debug14_Safe_iteratorIN9__gnu_cxx17__normal_iteratorIPcNSt9__cxx19986vectorIcSaIcEEEEENSt7__debug6vectorIcS6_EEE9_M_is_endEv@Base 2.1.0
 _ZNK11__gnu_debug14_Safe_iteratorIN9__gnu_cxx17__normal_iteratorIPcNSt9__cxx19986vectorIcSaIcEEEEENSt7__debug6vectorIcS6_EEEplERKl@Base 2.1.0
 _ZNK11__gnu_debug14_Safe_iteratorIN9__gnu_cxx17__normal_iteratorIPhNSt9__cxx19986vectorIhSaIhEEEEENSt7__debug6vectorIhS6_EEE11_M_constantEv@Base 2.1.0
 _ZNK11__gnu_debug14_Safe_iteratorIN9__gnu_cxx17__normal_iteratorIPhNSt9__cxx19986vectorIhSaIhEEEEENSt7__debug6vectorIhS6_EEE11_M_is_beginEv@Base 2.1.0
 _ZNK11__gnu_debug14_Safe_iteratorIN9__gnu_cxx17__normal_iteratorIPhNSt9__cxx19986vectorIhSaIhEEEEENSt7__debug6vectorIhS6_EEE15_M_get_sequenceEv@Base 2.1.0
 _ZNK11__gnu_debug14_Safe_iteratorIN9__gnu_cxx17__normal_iteratorIPhNSt9__cxx19986vectorIhSaIhEEEEENSt7__debug6vectorIhS6_EEE18_M_is_before_beginEv@Base 2.1.0
 _ZNK11__gnu_debug14_Safe_iteratorIN9__gnu_cxx17__normal_iteratorIPhNSt9__cxx19986vectorIhSaIhEEEEENSt7__debug6vectorIhS6_EEE4baseEv@Base 2.1.0
 _ZNK11__gnu_debug14_Safe_iteratorIN9__gnu_cxx17__normal_iteratorIPhNSt9__cxx19986vectorIhSaIhEEEEENSt7__debug6vectorIhS6_EEE9_M_is_endEv@Base 2.1.0
 _ZNK11__gnu_debug14_Safe_iteratorIN9__gnu_cxx17__normal_iteratorIPiNSt9__cxx19986vectorIiSaIiEEEEENSt7__debug6vectorIiS6_EEE4baseEv@Base 2.1.0
 _ZNK11__gnu_debug14_Safe_iteratorINSt9__cxx199815_Deque_iteratorIN7blocxx618IntrusiveReferenceINS3_8RunnableEEERKS6_PS7_EENSt7__debug5dequeIS6_SaIS6_EEEE4baseEv@Base 2.1.0
 _ZNK11__gnu_debug14_Safe_iteratorINSt9__cxx199815_Deque_iteratorIN7blocxx618IntrusiveReferenceINS3_8RunnableEEERS6_PS6_EENSt7__debug5dequeIS6_SaIS6_EEEE4baseEv@Base 2.1.0
 _ZNK11__gnu_debug14_Safe_iteratorISt17_Rb_tree_iteratorISt4pairIKN7blocxx66StringENS3_13SSLTrustStore8UserInfoEEENSt7__debug3mapIS4_S7_St4lessIS4_ESaIS8_EEEE11_M_constantEv@Base 2.1.0
 _ZNK11__gnu_debug14_Safe_iteratorISt17_Rb_tree_iteratorISt4pairIKN7blocxx66StringENS3_13SSLTrustStore8UserInfoEEENSt7__debug3mapIS4_S7_St4lessIS4_ESaIS8_EEEE11_M_is_beginEv@Base 2.1.0
 _ZNK11__gnu_debug14_Safe_iteratorISt17_Rb_tree_iteratorISt4pairIKN7blocxx66StringENS3_13SSLTrustStore8UserInfoEEENSt7__debug3mapIS4_S7_St4lessIS4_ESaIS8_EEEE15_M_get_sequenceEv@Base 2.1.0
 _ZNK11__gnu_debug14_Safe_iteratorISt17_Rb_tree_iteratorISt4pairIKN7blocxx66StringENS3_13SSLTrustStore8UserInfoEEENSt7__debug3mapIS4_S7_St4lessIS4_ESaIS8_EEEE18_M_is_before_beginEv@Base 2.1.0
 _ZNK11__gnu_debug14_Safe_iteratorISt17_Rb_tree_iteratorISt4pairIKN7blocxx66StringENS3_13SSLTrustStore8UserInfoEEENSt7__debug3mapIS4_S7_St4lessIS4_ESaIS8_EEEE4baseEv@Base 2.1.0
 _ZNK11__gnu_debug14_Safe_iteratorISt17_Rb_tree_iteratorISt4pairIKN7blocxx66StringENS3_13SSLTrustStore8UserInfoEEENSt7__debug3mapIS4_S7_St4lessIS4_ESaIS8_EEEE9_M_is_endEv@Base 2.1.0
 _ZNK11__gnu_debug14_Safe_iteratorISt17_Rb_tree_iteratorISt4pairIKN7blocxx66StringES4_EENSt7__debug3mapIS4_S4_St4lessIS4_ESaIS6_EEEE11_M_constantEv@Base 2.1.0
 _ZNK11__gnu_debug14_Safe_iteratorISt17_Rb_tree_iteratorISt4pairIKN7blocxx66StringES4_EENSt7__debug3mapIS4_S4_St4lessIS4_ESaIS6_EEEE11_M_is_beginEv@Base 2.1.0
 _ZNK11__gnu_debug14_Safe_iteratorISt17_Rb_tree_iteratorISt4pairIKN7blocxx66StringES4_EENSt7__debug3mapIS4_S4_St4lessIS4_ESaIS6_EEEE15_M_get_sequenceEv@Base 2.1.0
 _ZNK11__gnu_debug14_Safe_iteratorISt17_Rb_tree_iteratorISt4pairIKN7blocxx66StringES4_EENSt7__debug3mapIS4_S4_St4lessIS4_ESaIS6_EEEE18_M_dereferenceableEv@Base 2.1.0
 _ZNK11__gnu_debug14_Safe_iteratorISt17_Rb_tree_iteratorISt4pairIKN7blocxx66StringES4_EENSt7__debug3mapIS4_S4_St4lessIS4_ESaIS6_EEEE18_M_is_before_beginEv@Base 2.1.0
 _ZNK11__gnu_debug14_Safe_iteratorISt17_Rb_tree_iteratorISt4pairIKN7blocxx66StringES4_EENSt7__debug3mapIS4_S4_St4lessIS4_ESaIS6_EEEE4baseEv@Base 2.1.0
 _ZNK11__gnu_debug14_Safe_iteratorISt17_Rb_tree_iteratorISt4pairIKN7blocxx66StringES4_EENSt7__debug3mapIS4_S4_St4lessIS4_ESaIS6_EEEE9_M_is_endEv@Base 2.1.0
 _ZNK11__gnu_debug14_Safe_iteratorISt17_Rb_tree_iteratorISt4pairIKN7blocxx66StringES4_EENSt7__debug3mapIS4_S4_St4lessIS4_ESaIS6_EEEEptEv@Base 2.1.0
 _ZNK11__gnu_debug14_Safe_iteratorISt17_Rb_tree_iteratorISt4pairIKmN7blocxx617GenericRWLockImplImNS4_8RWLocker14ThreadComparerEE10LockerInfoEEENSt7__debug3mapImS9_S7_SaISA_EEEE11_M_constantEv@Base 2.1.0
 _ZNK11__gnu_debug14_Safe_iteratorISt17_Rb_tree_iteratorISt4pairIKmN7blocxx617GenericRWLockImplImNS4_8RWLocker14ThreadComparerEE10LockerInfoEEENSt7__debug3mapImS9_S7_SaISA_EEEE11_M_is_beginEv@Base 2.1.0
 _ZNK11__gnu_debug14_Safe_iteratorISt17_Rb_tree_iteratorISt4pairIKmN7blocxx617GenericRWLockImplImNS4_8RWLocker14ThreadComparerEE10LockerInfoEEENSt7__debug3mapImS9_S7_SaISA_EEEE15_M_get_sequenceEv@Base 2.1.0
 _ZNK11__gnu_debug14_Safe_iteratorISt17_Rb_tree_iteratorISt4pairIKmN7blocxx617GenericRWLockImplImNS4_8RWLocker14ThreadComparerEE10LockerInfoEEENSt7__debug3mapImS9_S7_SaISA_EEEE18_M_dereferenceableEv@Base 2.1.0
 _ZNK11__gnu_debug14_Safe_iteratorISt17_Rb_tree_iteratorISt4pairIKmN7blocxx617GenericRWLockImplImNS4_8RWLocker14ThreadComparerEE10LockerInfoEEENSt7__debug3mapImS9_S7_SaISA_EEEE18_M_is_before_beginEv@Base 2.1.0
 _ZNK11__gnu_debug14_Safe_iteratorISt17_Rb_tree_iteratorISt4pairIKmN7blocxx617GenericRWLockImplImNS4_8RWLocker14ThreadComparerEE10LockerInfoEEENSt7__debug3mapImS9_S7_SaISA_EEEE4baseEv@Base 2.1.0
 _ZNK11__gnu_debug14_Safe_iteratorISt17_Rb_tree_iteratorISt4pairIKmN7blocxx617GenericRWLockImplImNS4_8RWLocker14ThreadComparerEE10LockerInfoEEENSt7__debug3mapImS9_S7_SaISA_EEEE9_M_is_endEv@Base 2.1.0
 _ZNK11__gnu_debug14_Safe_iteratorISt17_Rb_tree_iteratorISt4pairIKmN7blocxx617GenericRWLockImplImNS4_8RWLocker14ThreadComparerEE10LockerInfoEEENSt7__debug3mapImS9_S7_SaISA_EEEEptEv@Base 2.1.0
 _ZNK11__gnu_debug14_Safe_iteratorISt23_Rb_tree_const_iteratorISt4pairIKN7blocxx66StringENS3_13SSLTrustStore8UserInfoEEENSt7__debug3mapIS4_S7_St4lessIS4_ESaIS8_EEEE11_M_constantEv@Base 2.1.0
 _ZNK11__gnu_debug14_Safe_iteratorISt23_Rb_tree_const_iteratorISt4pairIKN7blocxx66StringENS3_13SSLTrustStore8UserInfoEEENSt7__debug3mapIS4_S7_St4lessIS4_ESaIS8_EEEE11_M_is_beginEv@Base 2.1.0
 _ZNK11__gnu_debug14_Safe_iteratorISt23_Rb_tree_const_iteratorISt4pairIKN7blocxx66StringENS3_13SSLTrustStore8UserInfoEEENSt7__debug3mapIS4_S7_St4lessIS4_ESaIS8_EEEE15_M_get_sequenceEv@Base 2.1.0
 _ZNK11__gnu_debug14_Safe_iteratorISt23_Rb_tree_const_iteratorISt4pairIKN7blocxx66StringENS3_13SSLTrustStore8UserInfoEEENSt7__debug3mapIS4_S7_St4lessIS4_ESaIS8_EEEE16_M_incrementableEv@Base 2.1.0
 _ZNK11__gnu_debug14_Safe_iteratorISt23_Rb_tree_const_iteratorISt4pairIKN7blocxx66StringENS3_13SSLTrustStore8UserInfoEEENSt7__debug3mapIS4_S7_St4lessIS4_ESaIS8_EEEE18_M_dereferenceableEv@Base 2.1.0
 _ZNK11__gnu_debug14_Safe_iteratorISt23_Rb_tree_const_iteratorISt4pairIKN7blocxx66StringENS3_13SSLTrustStore8UserInfoEEENSt7__debug3mapIS4_S7_St4lessIS4_ESaIS8_EEEE18_M_is_before_beginEv@Base 2.1.0
 _ZNK11__gnu_debug14_Safe_iteratorISt23_Rb_tree_const_iteratorISt4pairIKN7blocxx66StringENS3_13SSLTrustStore8UserInfoEEENSt7__debug3mapIS4_S7_St4lessIS4_ESaIS8_EEEE4baseEv@Base 2.1.0
 _ZNK11__gnu_debug14_Safe_iteratorISt23_Rb_tree_const_iteratorISt4pairIKN7blocxx66StringENS3_13SSLTrustStore8UserInfoEEENSt7__debug3mapIS4_S7_St4lessIS4_ESaIS8_EEEE9_M_is_endEv@Base 2.1.0
 _ZNK11__gnu_debug14_Safe_iteratorISt23_Rb_tree_const_iteratorISt4pairIKN7blocxx66StringENS3_13SSLTrustStore8UserInfoEEENSt7__debug3mapIS4_S7_St4lessIS4_ESaIS8_EEEEptEv@Base 2.1.0
 _ZNK11__gnu_debug14_Safe_iteratorISt23_Rb_tree_const_iteratorISt4pairIKN7blocxx66StringES4_EENSt7__debug3mapIS4_S4_St4lessIS4_ESaIS6_EEEE11_M_constantEv@Base 2.1.0
 _ZNK11__gnu_debug14_Safe_iteratorISt23_Rb_tree_const_iteratorISt4pairIKN7blocxx66StringES4_EENSt7__debug3mapIS4_S4_St4lessIS4_ESaIS6_EEEE11_M_is_beginEv@Base 2.1.0
 _ZNK11__gnu_debug14_Safe_iteratorISt23_Rb_tree_const_iteratorISt4pairIKN7blocxx66StringES4_EENSt7__debug3mapIS4_S4_St4lessIS4_ESaIS6_EEEE15_M_get_sequenceEv@Base 2.1.0
 _ZNK11__gnu_debug14_Safe_iteratorISt23_Rb_tree_const_iteratorISt4pairIKN7blocxx66StringES4_EENSt7__debug3mapIS4_S4_St4lessIS4_ESaIS6_EEEE16_M_incrementableEv@Base 2.1.0
 _ZNK11__gnu_debug14_Safe_iteratorISt23_Rb_tree_const_iteratorISt4pairIKN7blocxx66StringES4_EENSt7__debug3mapIS4_S4_St4lessIS4_ESaIS6_EEEE18_M_dereferenceableEv@Base 2.1.0
 _ZNK11__gnu_debug14_Safe_iteratorISt23_Rb_tree_const_iteratorISt4pairIKN7blocxx66StringES4_EENSt7__debug3mapIS4_S4_St4lessIS4_ESaIS6_EEEE18_M_is_before_beginEv@Base 2.1.0
 _ZNK11__gnu_debug14_Safe_iteratorISt23_Rb_tree_const_iteratorISt4pairIKN7blocxx66StringES4_EENSt7__debug3mapIS4_S4_St4lessIS4_ESaIS6_EEEE4baseEv@Base 2.1.0
 _ZNK11__gnu_debug14_Safe_iteratorISt23_Rb_tree_const_iteratorISt4pairIKN7blocxx66StringES4_EENSt7__debug3mapIS4_S4_St4lessIS4_ESaIS6_EEEE9_M_is_endEv@Base 2.1.0
 _ZNK11__gnu_debug14_Safe_iteratorISt23_Rb_tree_const_iteratorISt4pairIKN7blocxx66StringES4_EENSt7__debug3mapIS4_S4_St4lessIS4_ESaIS6_EEEEptEv@Base 2.1.0
 _ZNK11__gnu_debug14_Safe_iteratorISt23_Rb_tree_const_iteratorISt4pairIKmN7blocxx617GenericRWLockImplImNS4_8RWLocker14ThreadComparerEE10LockerInfoEEENSt7__debug3mapImS9_S7_SaISA_EEEE4baseEv@Base 2.1.0
 _ZNK11__gnu_debug15_After_nth_fromIN9__gnu_cxx17__normal_iteratorIPK10regmatch_tNSt9__cxx19986vectorIS3_SaIS3_EEEEEEclERKSA_@Base 2.1.0
 _ZNK11__gnu_debug15_After_nth_fromIN9__gnu_cxx17__normal_iteratorIPKN7blocxx618IntrusiveReferenceINS3_6ThreadEEENSt9__cxx19986vectorIS6_SaIS6_EEEEEEclERKSD_@Base 2.1.0
 _ZNK11__gnu_debug15_After_nth_fromIN9__gnu_cxx17__normal_iteratorIPKN7blocxx66StringENSt9__cxx19986vectorIS4_SaIS4_EEEEEEclERKSB_@Base 2.1.0
 _ZNK11__gnu_debug15_After_nth_fromIN9__gnu_cxx17__normal_iteratorIPKN7blocxx69PerlRegEx7match_tENSt9__cxx19986vectorIS5_SaIS5_EEEEEEclERKSC_@Base 2.1.0
 _ZNK11__gnu_debug15_After_nth_fromIN9__gnu_cxx17__normal_iteratorIPKSt4pairIiN7blocxx612SelectEngine4DataEENSt9__cxx19986vectorIS7_SaIS7_EEEEEEclERKSE_@Base 2.1.0
 _ZNK11__gnu_debug15_After_nth_fromIN9__gnu_cxx17__normal_iteratorIPKSt4pairIiN7blocxx65ArrayINS4_6StringEEEENSt9__cxx19986vectorIS8_SaIS8_EEEEEEclERKSF_@Base 2.1.0
 _ZNK11__gnu_debug15_After_nth_fromIN9__gnu_cxx17__normal_iteratorIPKcNSt9__cxx19986vectorIcSaIcEEEEEEclERKS9_@Base 2.1.0
 _ZNK11__gnu_debug15_After_nth_fromIN9__gnu_cxx17__normal_iteratorIPKhNSt9__cxx19986vectorIhSaIhEEEEEEclERKS9_@Base 2.1.0
 _ZNK11__gnu_debug15_After_nth_fromIN9__gnu_cxx17__normal_iteratorIPKiNSt9__cxx19986vectorIiSaIiEEEEEEclERKS9_@Base 2.1.0
 _ZNK11__gnu_debug16_Error_formatter10_M_integerElPKc@Base 2.1.0
 _ZNK11__gnu_debug16_Error_formatter11_M_iteratorIN9__gnu_cxx17__normal_iteratorIPK10regmatch_tNSt9__cxx19986vectorIS4_SaIS4_EEEEEEERKS0_RKT_PKc@Base 2.1.0
 _ZNK11__gnu_debug16_Error_formatter11_M_iteratorIN9__gnu_cxx17__normal_iteratorIPKN7blocxx69PerlRegEx7match_tENSt9__cxx19986vectorIS6_SaIS6_EEEEEEERKS0_RKT_PKc@Base 2.1.0
 _ZNK11__gnu_debug16_Error_formatter11_M_iteratorIN9__gnu_cxx17__normal_iteratorIPKPKcNSt9__cxx19986vectorIS5_SaIS5_EEEEEEERKS0_RKT_S5_@Base 2.1.0
 _ZNK11__gnu_debug16_Error_formatter11_M_iteratorIN9__gnu_cxx17__normal_iteratorIPKcNSt9__cxx19986vectorIcSaIcEEEEEEERKS0_RKT_S5_@Base 2.1.0
 _ZNK11__gnu_debug16_Error_formatter11_M_iteratorIN9__gnu_cxx17__normal_iteratorIPKiNSt9__cxx19986vectorIiSaIiEEEEEEERKS0_RKT_PKc@Base 2.1.0
 _ZNK11__gnu_debug16_Error_formatter11_M_iteratorIN9__gnu_cxx17__normal_iteratorIPKtNSt9__cxx19986vectorItSaItEEEEEEERKS0_RKT_PKc@Base 2.1.0
 _ZNK11__gnu_debug16_Error_formatter11_M_iteratorIN9__gnu_cxx17__normal_iteratorIPN7blocxx618IntrusiveReferenceINS4_6ThreadEEENSt9__cxx19986vectorIS7_SaIS7_EEEEEEERKS0_RKT_PKc@Base 2.1.0
 _ZNK11__gnu_debug16_Error_formatter11_M_iteratorIN9__gnu_cxx17__normal_iteratorIPN7blocxx66StringENSt9__cxx19986vectorIS5_SaIS5_EEEEEEERKS0_RKT_PKc@Base 2.1.0
 _ZNK11__gnu_debug16_Error_formatter11_M_iteratorIN9__gnu_cxx17__normal_iteratorIPSt4pairIiN7blocxx612SelectEngine4DataEENSt9__cxx19986vectorIS8_SaIS8_EEEEEEERKS0_RKT_PKc@Base 2.1.0
 _ZNK11__gnu_debug16_Error_formatter11_M_iteratorIN9__gnu_cxx17__normal_iteratorIPcNSt9__cxx19986vectorIcSaIcEEEEEEERKS0_RKT_PKc@Base 2.1.0
 _ZNK11__gnu_debug16_Error_formatter11_M_iteratorINS_14_Safe_iteratorIN9__gnu_cxx17__normal_iteratorIP10regmatch_tNSt9__cxx19986vectorIS5_SaIS5_EEEEENSt7__debug6vectorIS5_S9_EEEEEERKS0_RKT_PKc@Base 2.1.0
 _ZNK11__gnu_debug16_Error_formatter11_M_iteratorINS_14_Safe_iteratorIN9__gnu_cxx17__normal_iteratorIPK10regmatch_tNSt9__cxx19986vectorIS5_SaIS5_EEEEENSt7__debug6vectorIS5_SA_EEEEEERKS0_RKT_PKc@Base 2.1.0
 _ZNK11__gnu_debug16_Error_formatter11_M_iteratorINS_14_Safe_iteratorIN9__gnu_cxx17__normal_iteratorIPKN7blocxx618IntrusiveReferenceINS5_26LogMessagePatternFormatter9ConverterEEENSt9__cxx19986vectorIS9_SaIS9_EEEEENSt7__debug6vectorIS9_SE_EEEEEERKS0_RKT_PKc@Base 2.1.0
 _ZNK11__gnu_debug16_Error_formatter11_M_iteratorINS_14_Safe_iteratorIN9__gnu_cxx17__normal_iteratorIPKN7blocxx66StringENSt9__cxx19986vectorIS6_SaIS6_EEEEENSt7__debug6vectorIS6_SB_EEEEEERKS0_RKT_PKc@Base 2.1.0
 _ZNK11__gnu_debug16_Error_formatter11_M_iteratorINS_14_Safe_iteratorIN9__gnu_cxx17__normal_iteratorIPKN7blocxx69PerlRegEx7match_tENSt9__cxx19986vectorIS7_SaIS7_EEEEENSt7__debug6vectorIS7_SC_EEEEEERKS0_RKT_PKc@Base 2.1.0
 _ZNK11__gnu_debug16_Error_formatter11_M_iteratorINS_14_Safe_iteratorIN9__gnu_cxx17__normal_iteratorIPKSt4pairIN7blocxx66StringENS6_17EFileStatusReturnEENSt9__cxx19986vectorIS9_SaIS9_EEEEENSt7__debug6vectorIS9_SE_EEEEEERKS0_RKT_PKc@Base 2.1.0
 _ZNK11__gnu_debug16_Error_formatter11_M_iteratorINS_14_Safe_iteratorIN9__gnu_cxx17__normal_iteratorIPKSt4pairIN7blocxx66StringES7_ENSt9__cxx19986vectorIS8_SaIS8_EEEEENSt7__debug6vectorIS8_SD_EEEEEERKS0_RKT_PKc@Base 2.1.0
 _ZNK11__gnu_debug16_Error_formatter11_M_iteratorINS_14_Safe_iteratorIN9__gnu_cxx17__normal_iteratorIPKSt4pairIiN7blocxx612SelectEngine4DataEENSt9__cxx19986vectorIS9_SaIS9_EEEEENSt7__debug6vectorIS9_SE_EEEEEERKS0_RKT_PKc@Base 2.1.0
 _ZNK11__gnu_debug16_Error_formatter11_M_iteratorINS_14_Safe_iteratorIN9__gnu_cxx17__normal_iteratorIPKSt4pairIiN7blocxx65ArrayINS6_6StringEEEENSt9__cxx19986vectorISA_SaISA_EEEEENSt7__debug6vectorISA_SF_EEEEEERKS0_RKT_PKc@Base 2.1.0
 _ZNK11__gnu_debug16_Error_formatter11_M_iteratorINS_14_Safe_iteratorIN9__gnu_cxx17__normal_iteratorIPN7blocxx618IntrusiveReferenceINS5_6ThreadEEENSt9__cxx19986vectorIS8_SaIS8_EEEEENSt7__debug6vectorIS8_SC_EEEEEERKS0_RKT_PKc@Base 2.1.0
 _ZNK11__gnu_debug16_Error_formatter11_M_iteratorINS_14_Safe_iteratorIN9__gnu_cxx17__normal_iteratorIPN7blocxx66StringENSt9__cxx19986vectorIS6_SaIS6_EEEEENSt7__debug6vectorIS6_SA_EEEEEERKS0_RKT_PKc@Base 2.1.0
 _ZNK11__gnu_debug16_Error_formatter11_M_iteratorINS_14_Safe_iteratorIN9__gnu_cxx17__normal_iteratorIPN7blocxx69PerlRegEx7match_tENSt9__cxx19986vectorIS7_SaIS7_EEEEENSt7__debug6vectorIS7_SB_EEEEEERKS0_RKT_PKc@Base 2.1.0
 _ZNK11__gnu_debug16_Error_formatter11_M_iteratorINS_14_Safe_iteratorIN9__gnu_cxx17__normal_iteratorIPSt4pairIiN7blocxx612SelectEngine4DataEENSt9__cxx19986vectorIS9_SaIS9_EEEEENSt7__debug6vectorIS9_SD_EEEEEERKS0_RKT_PKc@Base 2.1.0
 _ZNK11__gnu_debug16_Error_formatter11_M_iteratorINS_14_Safe_iteratorIN9__gnu_cxx17__normal_iteratorIPSt4pairIiN7blocxx65ArrayINS6_6StringEEEENSt9__cxx19986vectorISA_SaISA_EEEEENSt7__debug6vectorISA_SE_EEEEEERKS0_RKT_PKc@Base 2.1.0
 _ZNK11__gnu_debug16_Error_formatter11_M_iteratorINS_14_Safe_iteratorIN9__gnu_cxx17__normal_iteratorIPcNSt9__cxx19986vectorIcSaIcEEEEENSt7__debug6vectorIcS8_EEEEEERKS0_RKT_PKc@Base 2.1.0
 _ZNK11__gnu_debug16_Error_formatter11_M_iteratorINS_14_Safe_iteratorIN9__gnu_cxx17__normal_iteratorIPhNSt9__cxx19986vectorIhSaIhEEEEENSt7__debug6vectorIhS8_EEEEEERKS0_RKT_PKc@Base 2.1.0
 _ZNK11__gnu_debug16_Error_formatter11_M_iteratorINS_14_Safe_iteratorISt17_Rb_tree_iteratorISt4pairIKN7blocxx66StringENS5_13SSLTrustStore8UserInfoEEENSt7__debug3mapIS6_S9_St4lessIS6_ESaISA_EEEEEEERKS0_RKT_PKc@Base 2.1.0
 _ZNK11__gnu_debug16_Error_formatter11_M_iteratorINS_14_Safe_iteratorISt17_Rb_tree_iteratorISt4pairIKN7blocxx66StringES6_EENSt7__debug3mapIS6_S6_St4lessIS6_ESaIS8_EEEEEEERKS0_RKT_PKc@Base 2.1.0
 _ZNK11__gnu_debug16_Error_formatter11_M_iteratorINS_14_Safe_iteratorISt17_Rb_tree_iteratorISt4pairIKmN7blocxx617GenericRWLockImplImNS6_8RWLocker14ThreadComparerEE10LockerInfoEEENSt7__debug3mapImSB_S9_SaISC_EEEEEEERKS0_RKT_PKc@Base 2.1.0
 _ZNK11__gnu_debug16_Error_formatter11_M_iteratorINS_14_Safe_iteratorISt23_Rb_tree_const_iteratorISt4pairIKN7blocxx66StringENS5_13SSLTrustStore8UserInfoEEENSt7__debug3mapIS6_S9_St4lessIS6_ESaISA_EEEEEEERKS0_RKT_PKc@Base 2.1.0
 _ZNK11__gnu_debug16_Error_formatter11_M_iteratorINS_14_Safe_iteratorISt23_Rb_tree_const_iteratorISt4pairIKN7blocxx66StringES6_EENSt7__debug3mapIS6_S6_St4lessIS6_ESaIS8_EEEEEEERKS0_RKT_PKc@Base 2.1.0
 _ZNK11__gnu_debug16_Error_formatter11_M_iteratorIP10regmatch_tEERKS0_RKT_PKc@Base 2.1.0
 _ZNK11__gnu_debug16_Error_formatter11_M_iteratorIPKN7blocxx613CmdLineParser6OptionEEERKS0_RKT_PKc@Base 2.1.0
 _ZNK11__gnu_debug16_Error_formatter11_M_iteratorIPKcEERKS0_RKT_S3_@Base 2.1.0
 _ZNK11__gnu_debug16_Error_formatter11_M_iteratorIPN7blocxx618IntrusiveReferenceINS2_11LogAppenderEEEEERKS0_RKT_PKc@Base 2.1.0
 _ZNK11__gnu_debug16_Error_formatter11_M_iteratorIPN7blocxx618IntrusiveReferenceINS2_26LogMessagePatternFormatter9ConverterEEEEERKS0_RKT_PKc@Base 2.1.0
 _ZNK11__gnu_debug16_Error_formatter11_M_iteratorIPN7blocxx618IntrusiveReferenceINS2_6ThreadEEEEERKS0_RKT_PKc@Base 2.1.0
 _ZNK11__gnu_debug16_Error_formatter11_M_iteratorIPN7blocxx618IntrusiveReferenceINS2_7ProcessEEEEERKS0_RKT_PKc@Base 2.1.0
 _ZNK11__gnu_debug16_Error_formatter11_M_iteratorIPN7blocxx66Select12SelectObjectEEERKS0_RKT_PKc@Base 2.1.0
 _ZNK11__gnu_debug16_Error_formatter11_M_iteratorIPN7blocxx66StringEEERKS0_RKT_PKc@Base 2.1.0
 _ZNK11__gnu_debug16_Error_formatter11_M_iteratorIPN7blocxx69PerlRegEx7match_tEEERKS0_RKT_PKc@Base 2.1.0
 _ZNK11__gnu_debug16_Error_formatter11_M_iteratorIPPKcEERKS0_RKT_S3_@Base 2.1.0
 _ZNK11__gnu_debug16_Error_formatter11_M_iteratorIPPN7blocxx618IntrusiveReferenceINS2_8RunnableEEEEERKS0_RKT_PKc@Base 2.1.0
 _ZNK11__gnu_debug16_Error_formatter11_M_iteratorIPPcEERKS0_RKT_PKc@Base 2.1.0
 _ZNK11__gnu_debug16_Error_formatter11_M_iteratorIPSt4pairIN7blocxx66StringENS3_17EFileStatusReturnEEEERKS0_RKT_PKc@Base 2.1.0
 _ZNK11__gnu_debug16_Error_formatter11_M_iteratorIPSt4pairIiN7blocxx612SelectEngine4DataEEEERKS0_RKT_PKc@Base 2.1.0
 _ZNK11__gnu_debug16_Error_formatter11_M_iteratorIPSt4pairIiN7blocxx65ArrayINS3_6StringEEEEEERKS0_RKT_PKc@Base 2.1.0
 _ZNK11__gnu_debug16_Error_formatter11_M_iteratorIPcEERKS0_RKT_PKc@Base 2.1.0
 _ZNK11__gnu_debug16_Error_formatter11_M_iteratorIPhEERKS0_RKT_PKc@Base 2.1.0
 _ZNK11__gnu_debug16_Error_formatter11_M_iteratorIPiEERKS0_RKT_PKc@Base 2.1.0
 _ZNK11__gnu_debug16_Error_formatter11_M_iteratorIPtEERKS0_RKT_PKc@Base 2.1.0
 _ZNK11__gnu_debug16_Error_formatter11_M_sequenceINSt7__debug3mapIN7blocxx66StringES5_St4lessIS5_ESaISt4pairIKS5_S5_EEEEEERKS0_RKT_PKc@Base 2.1.0
 _ZNK11__gnu_debug16_Error_formatter11_M_sequenceINSt7__debug3mapImN7blocxx617GenericRWLockImplImNS4_8RWLocker14ThreadComparerEE10LockerInfoES7_SaISt4pairIKmS9_EEEEEERKS0_RKT_PKc@Base 2.1.0
 _ZNK11__gnu_debug16_Error_formatter11_M_sequenceINSt7__debug5dequeIN7blocxx618IntrusiveReferenceINS4_8RunnableEEESaIS7_EEEEERKS0_RKT_PKc@Base 2.1.0
 _ZNK11__gnu_debug16_Error_formatter11_M_sequenceINSt7__debug6vectorI10regmatch_tSaIS4_EEEEERKS0_RKT_PKc@Base 2.1.0
 _ZNK11__gnu_debug16_Error_formatter11_M_sequenceINSt7__debug6vectorIN7blocxx618IntrusiveReferenceINS4_11LogAppenderEEESaIS7_EEEEERKS0_RKT_PKc@Base 2.1.0
 _ZNK11__gnu_debug16_Error_formatter11_M_sequenceINSt7__debug6vectorIN7blocxx618IntrusiveReferenceINS4_6ThreadEEESaIS7_EEEEERKS0_RKT_PKc@Base 2.1.0
 _ZNK11__gnu_debug16_Error_formatter11_M_sequenceINSt7__debug6vectorIN7blocxx618IntrusiveReferenceINS4_7ProcessEEESaIS7_EEEEERKS0_RKT_PKc@Base 2.1.0
 _ZNK11__gnu_debug16_Error_formatter11_M_sequenceINSt7__debug6vectorIN7blocxx65ArrayIcEESaIS6_EEEEERKS0_RKT_PKc@Base 2.1.0
 _ZNK11__gnu_debug16_Error_formatter11_M_sequenceINSt7__debug6vectorIN7blocxx66Char16ESaIS5_EEEEERKS0_RKT_PKc@Base 2.1.0
 _ZNK11__gnu_debug16_Error_formatter11_M_sequenceINSt7__debug6vectorIN7blocxx66Select12SelectObjectESaIS6_EEEEERKS0_RKT_PKc@Base 2.1.0
 _ZNK11__gnu_debug16_Error_formatter11_M_sequenceINSt7__debug6vectorIN7blocxx66StringESaIS5_EEEEERKS0_RKT_PKc@Base 2.1.0
 _ZNK11__gnu_debug16_Error_formatter11_M_sequenceINSt7__debug6vectorIN7blocxx69PerlRegEx7match_tESaIS6_EEEEERKS0_RKT_PKc@Base 2.1.0
 _ZNK11__gnu_debug16_Error_formatter11_M_sequenceINSt7__debug6vectorIN7blocxx69ReferenceINS4_22DelayedFormatInternals26DelayedFormatReferenceBaseEEESaIS8_EEEEERKS0_RKT_PKc@Base 2.1.0
 _ZNK11__gnu_debug16_Error_formatter11_M_sequenceINSt7__debug6vectorIPKcSaIS5_EEEEERKS0_RKT_S5_@Base 2.1.0
 _ZNK11__gnu_debug16_Error_formatter11_M_sequenceINSt7__debug6vectorISt4pairIiN7blocxx612SelectEngine4DataEESaIS8_EEEEERKS0_RKT_PKc@Base 2.1.0
 _ZNK11__gnu_debug16_Error_formatter11_M_sequenceINSt7__debug6vectorISt4pairIiN7blocxx65ArrayINS5_6StringEEEESaIS9_EEEEERKS0_RKT_PKc@Base 2.1.0
 _ZNK11__gnu_debug16_Error_formatter11_M_sequenceINSt7__debug6vectorIbSaIbEEEEERKS0_RKT_PKc@Base 2.1.0
 _ZNK11__gnu_debug16_Error_formatter11_M_sequenceINSt7__debug6vectorIcSaIcEEEEERKS0_RKT_PKc@Base 2.1.0
 _ZNK11__gnu_debug16_Error_formatter11_M_sequenceINSt7__debug6vectorIhSaIhEEEEERKS0_RKT_PKc@Base 2.1.0
 _ZNK11__gnu_debug16_Error_formatter11_M_sequenceINSt7__debug6vectorIiSaIiEEEEERKS0_RKT_PKc@Base 2.1.0
 _ZNK11__gnu_debug16_Error_formatter11_M_sequenceINSt7__debug6vectorItSaItEEEEERKS0_RKT_PKc@Base 2.1.0
 _ZNK11__gnu_debug16_Error_formatter9_M_stringEPKcS2_@Base 2.1.0
 _ZNK11__gnu_debug19_Safe_iterator_base14_M_attached_toEPKNS_19_Safe_sequence_baseE@Base 2.1.0
 _ZNK11__gnu_debug19_Safe_sequence_base17_M_invalidate_allEv@Base 2.1.0
 _ZNK11__gnu_debug9_Equal_toIN9__gnu_cxx17__normal_iteratorIPKN7blocxx618IntrusiveReferenceINS3_6ThreadEEENSt9__cxx19986vectorIS6_SaIS6_EEEEEEclERKSD_@Base 2.1.0
 _ZNK11__gnu_debug9_Equal_toIN9__gnu_cxx17__normal_iteratorIPKcNSt9__cxx19986vectorIcSaIcEEEEEEclERKS9_@Base 2.1.0
 _ZNK11__gnu_debug9_Equal_toINSt9__cxx199815_Deque_iteratorIN7blocxx618IntrusiveReferenceINS3_8RunnableEEERKS6_PS7_EEEclERKSA_@Base 2.1.0
 _ZNK11__gnu_debug9_Equal_toISt23_Rb_tree_const_iteratorISt4pairIKN7blocxx66StringES4_EEEclERKS7_@Base 2.1.0
 _ZNK11__gnu_debug9_Equal_toISt23_Rb_tree_const_iteratorISt4pairIKmN7blocxx617GenericRWLockImplImNS4_8RWLocker14ThreadComparerEE10LockerInfoEEEEclERKSB_@Base 2.1.0
 _ZNK7blocxx610AutoPtrVecI10regmatch_tE3getEv@Base 2.1.0
 _ZNK7blocxx610AutoPtrVecI11epoll_eventE3getEv@Base 2.1.0
 _ZNK7blocxx610AutoPtrVecI6pollfdE3getEv@Base 2.1.0
 _ZNK7blocxx610AutoPtrVecIcE3getEv@Base 2.1.0
 _ZNK7blocxx610LazyGlobalINS_18IntrusiveReferenceINS_11UnnamedPipeEEEiNS_6Socket24ShutDownMechanismFactoryEE3getEv@Base 2.1.0
 _ZNK7blocxx610LazyGlobalINS_5ArrayINS_6StringEEEKPKcNS_29StringArrayConstructorFactoryEE3getEv@Base 2.1.0
 _ZNK7blocxx610LazyGlobalINS_5ArrayINS_6StringEEEKPKcNS_29StringArrayConstructorFactoryEEcvRKS3_Ev@Base 2.1.0
 _ZNK7blocxx610LazyGlobalINS_5MutexEiNS_18GlobalMutexFactoryEE3getEv@Base 2.1.0
 _ZNK7blocxx610LazyGlobalINS_6StringEKPKcNS_33DefaultVariableConstructorFactoryIS1_S4_EEE3getEv@Base 2.1.0
 _ZNK7blocxx610LazyGlobalINS_6StringEKPKcNS_33DefaultVariableConstructorFactoryIS1_S4_EEEcvRKS1_Ev@Base 2.1.0
 _ZNK7blocxx610PosixRegEx10isCompiledEv@Base 2.1.0
 _ZNK7blocxx610PosixRegEx11errorStringEv@Base 2.1.0
 _ZNK7blocxx610PosixRegEx12compileFlagsEv@Base 2.1.0
 _ZNK7blocxx610PosixRegEx13patternStringEv@Base 2.1.0
 _ZNK7blocxx610PosixRegEx5matchERKNS_6StringEmi@Base 2.1.0
 _ZNK7blocxx610SSLCtxBase9getSSLCtxEv@Base 2.1.0
 _ZNK7blocxx610SocketImpl12getSelectObjEv@Base 2.1.0
 _ZNK7blocxx611IFileStream6isOpenEv@Base 2.1.0
 _ZNK7blocxx611IOException4typeEv@Base 2.1.0
 _ZNK7blocxx611IOException5cloneEv@Base 2.1.0
 _ZNK7blocxx611IOException7rethrowEv@Base 2.1.0
 _ZNK7blocxx611LogAppender10logMessageERKNS_10LogMessageE@Base 2.1.0
 _ZNK7blocxx611LogAppender11getLogLevelEv@Base 2.1.0
 _ZNK7blocxx611LogAppender17categoryIsEnabledERKNS_6StringE@Base 2.1.0
 _ZNK7blocxx611LogAppender30componentAndCategoryAreEnabledERKNS_6StringES3_@Base 2.1.0
 _ZNK7blocxx611SafeCString17OverflowException4typeEv@Base 2.1.0
 _ZNK7blocxx611SafeCString17OverflowException5cloneEv@Base 2.1.0
 _ZNK7blocxx611SafeCString17OverflowException7rethrowEv@Base 2.1.0
 _ZNK7blocxx612AutoResourceINS_20AutoDescriptorPolicyEE3getEv@Base 2.1.0
 _ZNK7blocxx612COWReferenceINSt7__debug3mapINS_6StringENS_13SSLTrustStore8UserInfoESt4lessIS3_ESaISt4pairIKS3_S5_EEEEEptEv@Base 2.1.0
 _ZNK7blocxx612COWReferenceINSt7__debug3mapINS_6StringES3_St4lessIS3_ESaISt4pairIKS3_S3_EEEEEptEv@Base 2.1.0
 _ZNK7blocxx612COWReferenceINSt7__debug6vectorI10regmatch_tSaIS3_EEEEptEv@Base 2.1.0
 _ZNK7blocxx612COWReferenceINSt7__debug6vectorINS_18IntrusiveReferenceINS_11LogAppenderEEESaIS5_EEEEptEv@Base 2.1.0
 _ZNK7blocxx612COWReferenceINSt7__debug6vectorINS_18IntrusiveReferenceINS_26LogMessagePatternFormatter9ConverterEEESaIS6_EEEEptEv@Base 2.1.0
 _ZNK7blocxx612COWReferenceINSt7__debug6vectorINS_18IntrusiveReferenceINS_6ThreadEEESaIS5_EEEEptEv@Base 2.1.0
 _ZNK7blocxx612COWReferenceINSt7__debug6vectorINS_18IntrusiveReferenceINS_7ProcessEEESaIS5_EEEEptEv@Base 2.1.0
 _ZNK7blocxx612COWReferenceINSt7__debug6vectorINS_5ArrayIcEESaIS4_EEEEptEv@Base 2.1.0
 _ZNK7blocxx612COWReferenceINSt7__debug6vectorINS_6Char16ESaIS3_EEEEptEv@Base 2.1.0
 _ZNK7blocxx612COWReferenceINSt7__debug6vectorINS_6Select12SelectObjectESaIS4_EEEEptEv@Base 2.1.0
 _ZNK7blocxx612COWReferenceINSt7__debug6vectorINS_6StringESaIS3_EEEEptEv@Base 2.1.0
 _ZNK7blocxx612COWReferenceINSt7__debug6vectorINS_9PerlRegEx7match_tESaIS4_EEEEptEv@Base 2.1.0
 _ZNK7blocxx612COWReferenceINSt7__debug6vectorINS_9ReferenceINS_22DelayedFormatInternals26DelayedFormatReferenceBaseEEESaIS6_EEEEptEv@Base 2.1.0
 _ZNK7blocxx612COWReferenceINSt7__debug6vectorIPKcSaIS4_EEEEptEv@Base 2.1.0
 _ZNK7blocxx612COWReferenceINSt7__debug6vectorISt4pairINS_6StringENS_17EFileStatusReturnEESaIS6_EEEEptEv@Base 2.1.0
 _ZNK7blocxx612COWReferenceINSt7__debug6vectorISt4pairINS_6StringES4_ESaIS5_EEEEptEv@Base 2.1.0
 _ZNK7blocxx612COWReferenceINSt7__debug6vectorISt4pairIiNS_5ArrayINS_6StringEEEESaIS7_EEEEptEv@Base 2.1.0
 _ZNK7blocxx612COWReferenceINSt7__debug6vectorIcSaIcEEEEptEv@Base 2.1.0
 _ZNK7blocxx612COWReferenceINSt7__debug6vectorIiSaIiEEEEptEv@Base 2.1.0
 _ZNK7blocxx612COWReferenceINSt7__debug6vectorItSaItEEEEptEv@Base 2.1.0
 _ZNK7blocxx612CerrAppender19doProcessLogMessageERKNS_6StringERKNS_10LogMessageE@Base 2.1.0
 _ZNK7blocxx612FileAppender19doProcessLogMessageERKNS_6StringERKNS_10LogMessageE@Base 2.1.0
 _ZNK7blocxx612MD5Exception4typeEv@Base 2.1.0
 _ZNK7blocxx612MD5Exception5cloneEv@Base 2.1.0
 _ZNK7blocxx612MD5Exception7rethrowEv@Base 2.1.0
 _ZNK7blocxx612NullAppender19doProcessLogMessageERKNS_6StringERKNS_10LogMessageE@Base 2.1.0
 _ZNK7blocxx612SSLException4typeEv@Base 2.1.0
 _ZNK7blocxx612SSLException5cloneEv@Base 2.1.0
 _ZNK7blocxx612SSLException7rethrowEv@Base 2.1.0
 _ZNK7blocxx612ServerSocket12getSelectObjEv@Base 2.1.0
 _ZNK7blocxx612ServerSocket5getfdEv@Base 2.1.0
 _ZNK7blocxx612StringBuffer10startsWithEc@Base 2.1.0
 _ZNK7blocxx612StringBuffer5c_strEv@Base 2.1.0
 _ZNK7blocxx612StringBuffer6equalsEPKc@Base 2.1.0
 _ZNK7blocxx612StringBuffer6equalsERKS0_@Base 2.1.0
 _ZNK7blocxx612StringBuffer6lengthEv@Base 2.1.0
 _ZNK7blocxx612StringBuffer8endsWithEc@Base 2.1.0
 _ZNK7blocxx612StringBuffer8toStringEv@Base 2.1.0
 _ZNK7blocxx612StringBufferixEm@Base 2.1.0
 _ZNK7blocxx612TimeoutTimer10asTimespecER8timespec@Base 2.1.0
 _ZNK7blocxx612TimeoutTimer11calcSecondsEd@Base 2.1.0
 _ZNK7blocxx612TimeoutTimer11calcSecondsEv@Base 2.1.0
 _ZNK7blocxx612TimeoutTimer14getCurrentTimeEv@Base 2.1.0
 _ZNK7blocxx612TimeoutTimer17asAbsoluteTimeoutEv@Base 2.1.0
 _ZNK7blocxx612TimeoutTimer17asRelativeTimeoutEd@Base 2.1.0
 _ZNK7blocxx612TimeoutTimer17asRelativeTimeoutEv@Base 2.1.0
 _ZNK7blocxx612TimeoutTimer7asIntMsEd@Base 2.1.0
 _ZNK7blocxx612TimeoutTimer7asIntMsEv@Base 2.1.0
 _ZNK7blocxx612TimeoutTimer7expiredEv@Base 2.1.0
 _ZNK7blocxx612TimeoutTimer8infiniteEv@Base 2.1.0
 _ZNK7blocxx612TimeoutTimer9asTimeoutEv@Base 2.1.0
 _ZNK7blocxx612TimeoutTimer9asTimevalER7timeval@Base 2.1.0
 _ZNK7blocxx612TimeoutTimer9asTimevalER7timevald@Base 2.1.0
 _ZNK7blocxx613CmdLineParser14getOptionValueEiPKc@Base 2.1.0
 _ZNK7blocxx613CmdLineParser15getNonOptionArgEm@Base 2.1.0
 _ZNK7blocxx613CmdLineParser16getNonOptionArgsEv@Base 2.1.0
 _ZNK7blocxx613CmdLineParser17getNonOptionCountEv@Base 2.1.0
 _ZNK7blocxx613CmdLineParser18getOptionValueListEi@Base 2.1.0
 _ZNK7blocxx613CmdLineParser18mustGetOptionValueEiPKc@Base 2.1.0
 _ZNK7blocxx613CmdLineParser22mustGetOptionValueListEiPKc@Base 2.1.0
 _ZNK7blocxx613CmdLineParser5isSetEi@Base 2.1.0
 _ZNK7blocxx613DelayedFormat16formatWithStringEPKc@Base 2.1.0
 _ZNK7blocxx613DelayedFormat16formatWithStringERKNS_6StringE@Base 2.1.0
 _ZNK7blocxx613DelayedFormat6formatEv@Base 2.1.0
 _ZNK7blocxx613DelayedFormatcvNS_6StringEEv@Base 2.1.0
 _ZNK7blocxx613MultiAppender19doProcessLogMessageERKNS_6StringERKNS_10LogMessageE@Base 2.1.0
 _ZNK7blocxx613OStringStream5c_strEv@Base 2.1.0
 _ZNK7blocxx613OStringStream6lengthEv@Base 2.1.0
 _ZNK7blocxx613OStringStream8toStringEv@Base 2.1.0
 _ZNK7blocxx613SSLSocketImpl12getSelectObjEv@Base 2.1.0
 _ZNK7blocxx613SSLSocketImpl16peerCertVerifiedEv@Base 2.1.0
 _ZNK7blocxx613SSLSocketImpl6getSSLEv@Base 2.1.0
 _ZNK7blocxx613SocketAddress10getAddressEv@Base 2.1.0
 _ZNK7blocxx613SocketAddress13getNativeFormEv@Base 2.1.0
 _ZNK7blocxx613SocketAddress14getInetAddressEv@Base 2.1.0
 _ZNK7blocxx613SocketAddress14getUnixAddressEv@Base 2.1.0
 _ZNK7blocxx613SocketAddress17getNativeFormSizeEv@Base 2.1.0
 _ZNK7blocxx613SocketAddress7getNameEv@Base 2.1.0
 _ZNK7blocxx613SocketAddress7getPortEv@Base 2.1.0
 _ZNK7blocxx613SocketAddress7getTypeEv@Base 2.1.0
 _ZNK7blocxx613SocketAddress8toStringEv@Base 2.1.0
 _ZNK7blocxx613UUIDException4typeEv@Base 2.1.0
 _ZNK7blocxx613UUIDException5cloneEv@Base 2.1.0
 _ZNK7blocxx613UUIDException7rethrowEv@Base 2.1.0
 _ZNK7blocxx614SocketBaseImpl12getSelectObjEv@Base 2.1.0
 _ZNK7blocxx614SocketBaseImpl5getfdEv@Base 2.1.0
 _ZNK7blocxx614SyslogAppender19doProcessLogMessageERKNS_6StringERKNS_10LogMessageE@Base 2.1.0
 _ZNK7blocxx614TempFileBuffer13usingTempFileEv@Base 2.1.0
 _ZNK7blocxx614TempFileStream13usingTempFileEv@Base 2.1.0
 _ZNK7blocxx615ExceptionDetail9FormatMsg3getEv@Base 2.1.0
 _ZNK7blocxx615LoggerException4typeEv@Base 2.1.0
 _ZNK7blocxx615LoggerException5cloneEv@Base 2.1.0
 _ZNK7blocxx615LoggerException7rethrowEv@Base 2.1.0
 _ZNK7blocxx615SelectException4typeEv@Base 2.1.0
 _ZNK7blocxx615SelectException5cloneEv@Base 2.1.0
 _ZNK7blocxx615SelectException7rethrowEv@Base 2.1.0
 _ZNK7blocxx615SocketException4typeEv@Base 2.1.0
 _ZNK7blocxx615SocketException5cloneEv@Base 2.1.0
 _ZNK7blocxx615SocketException7rethrowEv@Base 2.1.0
 _ZNK7blocxx615SortedVectorMapINS_6StringES1_NS_26SortedVectorMapDataCompareIS1_S1_St4lessIS1_EEEE3endEv@Base 2.1.0
 _ZNK7blocxx615SortedVectorMapINS_6StringES1_NS_26SortedVectorMapDataCompareIS1_S1_St4lessIS1_EEEE4findERKS1_@Base 2.1.0
 _ZNK7blocxx615SortedVectorMapIiNS_5ArrayINS_6StringEEENS_26SortedVectorMapDataCompareIiS3_St4lessIiEEEE3endEv@Base 2.1.0
 _ZNK7blocxx615SortedVectorMapIiNS_5ArrayINS_6StringEEENS_26SortedVectorMapDataCompareIiS3_St4lessIiEEEE4findERKi@Base 2.1.0
 _ZNK7blocxx615SortedVectorMapIiNS_5ArrayINS_6StringEEENS_26SortedVectorMapDataCompareIiS3_St4lessIiEEEE5countERKi@Base 2.1.0
 _ZNK7blocxx615SortedVectorSetINS_6StringESt4lessIS1_EE4sizeEv@Base 2.1.0
 _ZNK7blocxx615SortedVectorSetINS_6StringESt4lessIS1_EE5countERKS1_@Base 2.1.0
 _ZNK7blocxx615ThreadException4typeEv@Base 2.1.0
 _ZNK7blocxx615ThreadException5cloneEv@Base 2.1.0
 _ZNK7blocxx615ThreadException7rethrowEv@Base 2.1.0
 _ZNK7blocxx615dlSharedLibrary20doGetFunctionPointerERKNS_6StringEPPv@Base 2.1.0
 _ZNK7blocxx616COWReferenceBase22refCountGreaterThanOneEv@Base 2.1.0
 _ZNK7blocxx616OStringStreamBuf5c_strEv@Base 2.1.0
 _ZNK7blocxx616OStringStreamBuf6lengthEv@Base 2.1.0
 _ZNK7blocxx616OStringStreamBuf8toStringEv@Base 2.1.0
 _ZNK7blocxx616PosixUnnamedPipe14getInputHandleEv@Base 2.1.0
 _ZNK7blocxx616PosixUnnamedPipe15getOutputHandleEv@Base 2.1.0
 _ZNK7blocxx616PosixUnnamedPipe15getReadBlockingEv@Base 2.1.0
 _ZNK7blocxx616PosixUnnamedPipe16getReadSelectObjEv@Base 2.1.0
 _ZNK7blocxx616PosixUnnamedPipe16getWriteBlockingEv@Base 2.1.0
 _ZNK7blocxx616PosixUnnamedPipe17getWriteSelectObjEv@Base 2.1.0
 _ZNK7blocxx616PosixUnnamedPipe18getInputDescriptorEv@Base 2.1.0
 _ZNK7blocxx616PosixUnnamedPipe19getOutputDescriptorEv@Base 2.1.0
 _ZNK7blocxx616PosixUnnamedPipe6isOpenEv@Base 2.1.0
 _ZNK7blocxx616ServerSocketImpl12getSelectObjEv@Base 2.1.0
 _ZNK7blocxx616ServerSocketImpl5getfdEv@Base 2.1.0
 _ZNK7blocxx616TimeoutException4typeEv@Base 2.1.0
 _ZNK7blocxx616TimeoutException5cloneEv@Base 2.1.0
 _ZNK7blocxx616TimeoutException7rethrowEv@Base 2.1.0
 _ZNK7blocxx617DateTimeException4typeEv@Base 2.1.0
 _ZNK7blocxx617DateTimeException5cloneEv@Base 2.1.0
 _ZNK7blocxx617DateTimeException7rethrowEv@Base 2.1.0
 _ZNK7blocxx617DeadlockException4typeEv@Base 2.1.0
 _ZNK7blocxx617DeadlockException5cloneEv@Base 2.1.0
 _ZNK7blocxx617DeadlockException7rethrowEv@Base 2.1.0
 _ZNK7blocxx617GenericRWLockImplImNS_8RWLocker14ThreadComparerEE10LockerInfo8isReaderEv@Base 2.1.0
 _ZNK7blocxx617GenericRWLockImplImNS_8RWLocker14ThreadComparerEE10LockerInfo8isWriterEv@Base 2.1.0
 _ZNK7blocxx617IPCMutexException4typeEv@Base 2.1.0
 _ZNK7blocxx617IPCMutexException5cloneEv@Base 2.1.0
 _ZNK7blocxx617IPCMutexException7rethrowEv@Base 2.1.0
 _ZNK7blocxx617RWLockerException4typeEv@Base 2.1.0
 _ZNK7blocxx617RWLockerException5cloneEv@Base 2.1.0
 _ZNK7blocxx617RWLockerException7rethrowEv@Base 2.1.0
 _ZNK7blocxx618AssertionException4typeEv@Base 2.1.0
 _ZNK7blocxx618AssertionException5cloneEv@Base 2.1.0
 _ZNK7blocxx618AssertionException7rethrowEv@Base 2.1.0
 _ZNK7blocxx618ExecErrorException4typeEv@Base 2.1.0
 _ZNK7blocxx618ExecErrorException5cloneEv@Base 2.1.0
 _ZNK7blocxx618ExecErrorException7rethrowEv@Base 2.1.0
 _ZNK7blocxx618IntrusiveReferenceINS_11LogAppenderEE7cast_toINS_13MultiAppenderEEENS0_IT_EEv@Base 2.1.0
 _ZNK7blocxx618IntrusiveReferenceINS_11LogAppenderEEcvMS2_PS1_Ev@Base 2.1.0
 _ZNK7blocxx618IntrusiveReferenceINS_11LogAppenderEEptEv@Base 2.1.0
 _ZNK7blocxx618IntrusiveReferenceINS_11ProcessImplEEptEv@Base 2.1.0
 _ZNK7blocxx618IntrusiveReferenceINS_11UnnamedPipeEE6getPtrEv@Base 2.1.0
 _ZNK7blocxx618IntrusiveReferenceINS_11UnnamedPipeEE7cast_toINS_16PosixUnnamedPipeEEENS0_IT_EEv@Base 2.1.0
 _ZNK7blocxx618IntrusiveReferenceINS_11UnnamedPipeEEcvMS2_PS1_Ev@Base 2.1.0
 _ZNK7blocxx618IntrusiveReferenceINS_11UnnamedPipeEEntEv@Base 2.1.0
 _ZNK7blocxx618IntrusiveReferenceINS_11UnnamedPipeEEptEv@Base 2.1.0
 _ZNK7blocxx618IntrusiveReferenceINS_12SSLClientCtxEEcvMS2_PS1_Ev@Base 2.1.0
 _ZNK7blocxx618IntrusiveReferenceINS_12SSLClientCtxEEntEv@Base 2.1.0
 _ZNK7blocxx618IntrusiveReferenceINS_12SSLClientCtxEEptEv@Base 2.1.0
 _ZNK7blocxx618IntrusiveReferenceINS_12SSLServerCtxEEcvMS2_PS1_Ev@Base 2.1.0
 _ZNK7blocxx618IntrusiveReferenceINS_12SSLServerCtxEEntEv@Base 2.1.0
 _ZNK7blocxx618IntrusiveReferenceINS_12SSLServerCtxEEptEv@Base 2.1.0
 _ZNK7blocxx618IntrusiveReferenceINS_13MultiAppenderEEntEv@Base 2.1.0
 _ZNK7blocxx618IntrusiveReferenceINS_13MultiAppenderEEptEv@Base 2.1.0
 _ZNK7blocxx618IntrusiveReferenceINS_13SSLSocketImplEEntEv@Base 2.1.0
 _ZNK7blocxx618IntrusiveReferenceINS_13SSLSocketImplEEptEv@Base 2.1.0
 _ZNK7blocxx618IntrusiveReferenceINS_13ThreadCounterEEptEv@Base 2.1.0
 _ZNK7blocxx618IntrusiveReferenceINS_14SocketBaseImplEE7cast_toINS_13SSLSocketImplEEENS0_IT_EEv@Base 2.1.0
 _ZNK7blocxx618IntrusiveReferenceINS_14SocketBaseImplEEptEv@Base 2.1.0
 _ZNK7blocxx618IntrusiveReferenceINS_14ThreadPoolImplEEptEv@Base 2.1.0
 _ZNK7blocxx618IntrusiveReferenceINS_16PosixUnnamedPipeEEntEv@Base 2.1.0
 _ZNK7blocxx618IntrusiveReferenceINS_16PosixUnnamedPipeEEptEv@Base 2.1.0
 _ZNK7blocxx618IntrusiveReferenceINS_16ServerSocketImplEEptEv@Base 2.1.0
 _ZNK7blocxx618IntrusiveReferenceINS_17ThreadBarrierImplEEptEv@Base 2.1.0
 _ZNK7blocxx618IntrusiveReferenceINS_18ThreadDoneCallbackEEcvMS2_PS1_Ev@Base 2.1.0
 _ZNK7blocxx618IntrusiveReferenceINS_18ThreadDoneCallbackEEptEv@Base 2.1.0
 _ZNK7blocxx618IntrusiveReferenceINS_21SelectableCallbackIFCEEptEv@Base 2.1.0
 _ZNK7blocxx618IntrusiveReferenceINS_26LogMessagePatternFormatter9ConverterEEptEv@Base 2.1.0
 _ZNK7blocxx618IntrusiveReferenceINS_6ThreadEEptEv@Base 2.1.0
 _ZNK7blocxx618IntrusiveReferenceINS_7ProcessEEdeEv@Base 2.1.0
 _ZNK7blocxx618IntrusiveReferenceINS_7ProcessEEptEv@Base 2.1.0
 _ZNK7blocxx618IntrusiveReferenceINS_8RunnableEEcvMS2_PS1_Ev@Base 2.1.0
 _ZNK7blocxx618IntrusiveReferenceINS_8RunnableEEntEv@Base 2.1.0
 _ZNK7blocxx618IntrusiveReferenceINS_8RunnableEEptEv@Base 2.1.0
 _ZNK7blocxx618NULLValueException4typeEv@Base 2.1.0
 _ZNK7blocxx618NULLValueException5cloneEv@Base 2.1.0
 _ZNK7blocxx618NULLValueException7rethrowEv@Base 2.1.0
 _ZNK7blocxx619FileSystemException4typeEv@Base 2.1.0
 _ZNK7blocxx619FileSystemException5cloneEv@Base 2.1.0
 _ZNK7blocxx619FileSystemException7rethrowEv@Base 2.1.0
 _ZNK7blocxx619SecureRandException4typeEv@Base 2.1.0
 _ZNK7blocxx619SecureRandException5cloneEv@Base 2.1.0
 _ZNK7blocxx619SecureRandException7rethrowEv@Base 2.1.0
 _ZNK7blocxx619ThreadPoolException4typeEv@Base 2.1.0
 _ZNK7blocxx619ThreadPoolException5cloneEv@Base 2.1.0
 _ZNK7blocxx619ThreadPoolException7rethrowEv@Base 2.1.0
 _ZNK7blocxx620EnumerationException4typeEv@Base 2.1.0
 _ZNK7blocxx620EnumerationException5cloneEv@Base 2.1.0
 _ZNK7blocxx620EnumerationException7rethrowEv@Base 2.1.0
 _ZNK7blocxx620ExecTimeoutException4typeEv@Base 2.1.0
 _ZNK7blocxx620ExecTimeoutException5cloneEv@Base 2.1.0
 _ZNK7blocxx620ExecTimeoutException7rethrowEv@Base 2.1.0
 _ZNK7blocxx620InvalidUTF8Exception4typeEv@Base 2.1.0
 _ZNK7blocxx620InvalidUTF8Exception5cloneEv@Base 2.1.0
 _ZNK7blocxx620InvalidUTF8Exception7rethrowEv@Base 2.1.0
 _ZNK7blocxx620OutOfBoundsException4typeEv@Base 2.1.0
 _ZNK7blocxx620OutOfBoundsException5cloneEv@Base 2.1.0
 _ZNK7blocxx620OutOfBoundsException7rethrowEv@Base 2.1.0
 _ZNK7blocxx620UnknownHostException4typeEv@Base 2.1.0
 _ZNK7blocxx620UnknownHostException5cloneEv@Base 2.1.0
 _ZNK7blocxx620UnknownHostException7rethrowEv@Base 2.1.0
 _ZNK7blocxx620UnnamedPipeException4typeEv@Base 2.1.0
 _ZNK7blocxx620UnnamedPipeException5cloneEv@Base 2.1.0
 _ZNK7blocxx620UnnamedPipeException7rethrowEv@Base 2.1.0
 _ZNK7blocxx621BadSignatureException4typeEv@Base 2.1.0
 _ZNK7blocxx621BadSignatureException5cloneEv@Base 2.1.0
 _ZNK7blocxx621BadSignatureException7rethrowEv@Base 2.1.0
 _ZNK7blocxx621COWIntrusiveReferenceINS_6String7ByteBufEEcvMS3_PS2_Ev@Base 2.1.0
 _ZNK7blocxx621COWIntrusiveReferenceINS_6String7ByteBufEEntEv@Base 2.1.0
 _ZNK7blocxx621COWIntrusiveReferenceINS_6String7ByteBufEEptEv@Base 2.1.0
 _ZNK7blocxx621NonRecursiveMutexLock8isLockedEv@Base 2.1.0
 _ZNK7blocxx621ProcessErrorException4typeEv@Base 2.1.0
 _ZNK7blocxx621ProcessErrorException5cloneEv@Base 2.1.0
 _ZNK7blocxx621ProcessErrorException7rethrowEv@Base 2.1.0
 _ZNK7blocxx621RegExCompileException4typeEv@Base 2.1.0
 _ZNK7blocxx621RegExCompileException5cloneEv@Base 2.1.0
 _ZNK7blocxx621RegExCompileException7rethrowEv@Base 2.1.0
 _ZNK7blocxx621RegExExecuteException4typeEv@Base 2.1.0
 _ZNK7blocxx621RegExExecuteException5cloneEv@Base 2.1.0
 _ZNK7blocxx621RegExExecuteException7rethrowEv@Base 2.1.0
 _ZNK7blocxx621dlSharedLibraryLoader17loadSharedLibraryERKNS_6StringE@Base 2.1.0
 _ZNK7blocxx622CmdLineParserException4typeEv@Base 2.1.0
 _ZNK7blocxx622CmdLineParserException5cloneEv@Base 2.1.0
 _ZNK7blocxx622CmdLineParserException7rethrowEv@Base 2.1.0
 _ZNK7blocxx622ConditionLockException4typeEv@Base 2.1.0
 _ZNK7blocxx622ConditionLockException5cloneEv@Base 2.1.0
 _ZNK7blocxx622ConditionLockException7rethrowEv@Base 2.1.0
 _ZNK7blocxx622DelayedFormatInternals26DelayedFormatReferenceBase12dumpToStreamERSo@Base 2.1.0
 _ZNK7blocxx622NULLReferenceException4typeEv@Base 2.1.0
 _ZNK7blocxx622NULLReferenceException5cloneEv@Base 2.1.0
 _ZNK7blocxx622NULLReferenceException7rethrowEv@Base 2.1.0
 _ZNK7blocxx622SharedLibraryException4typeEv@Base 2.1.0
 _ZNK7blocxx622SharedLibraryException5cloneEv@Base 2.1.0
 _ZNK7blocxx622SharedLibraryException7rethrowEv@Base 2.1.0
 _ZNK7blocxx622SocketAddressException4typeEv@Base 2.1.0
 _ZNK7blocxx622SocketAddressException5cloneEv@Base 2.1.0
 _ZNK7blocxx622SocketAddressException7rethrowEv@Base 2.1.0
 _ZNK7blocxx622SocketTimeoutException4typeEv@Base 2.1.0
 _ZNK7blocxx622SocketTimeoutException5cloneEv@Base 2.1.0
 _ZNK7blocxx622SocketTimeoutException7rethrowEv@Base 2.1.0
 _ZNK7blocxx622ThreadBarrierException4typeEv@Base 2.1.0
 _ZNK7blocxx622ThreadBarrierException5cloneEv@Base 2.1.0
 _ZNK7blocxx622ThreadBarrierException7rethrowEv@Base 2.1.0
 _ZNK7blocxx623ExecBufferFullException4typeEv@Base 2.1.0
 _ZNK7blocxx623ExecBufferFullException5cloneEv@Base 2.1.0
 _ZNK7blocxx623ExecBufferFullException7rethrowEv@Base 2.1.0
 _ZNK7blocxx624MultiProcessFileAppender19doProcessLogMessageERKNS_6StringERKNS_10LogMessageE@Base 2.1.0
 _ZNK7blocxx625StringConversionException4typeEv@Base 2.1.0
 _ZNK7blocxx625StringConversionException5cloneEv@Base 2.1.0
 _ZNK7blocxx625StringConversionException7rethrowEv@Base 2.1.0
 _ZNK7blocxx626ConditionResourceException4typeEv@Base 2.1.0
 _ZNK7blocxx626ConditionResourceException5cloneEv@Base 2.1.0
 _ZNK7blocxx626ConditionResourceException7rethrowEv@Base 2.1.0
 _ZNK7blocxx626GenericRWLockImplException4typeEv@Base 2.1.0
 _ZNK7blocxx626GenericRWLockImplException5cloneEv@Base 2.1.0
 _ZNK7blocxx626GenericRWLockImplException7rethrowEv@Base 2.1.0
 _ZNK7blocxx626LogMessagePatternFormatter13formatMessageERKNS_10LogMessageERNS_12StringBufferE@Base 2.1.0
 _ZNK7blocxx626LogMessagePatternFormatter9Converter13formatMessageERKNS_10LogMessageERNS_12StringBufferE@Base 2.1.0
 _ZNK7blocxx626SortedVectorMapDataCompareINS_6StringES1_St4lessIS1_EE7keyLessERKS1_S6_@Base 2.1.0
 _ZNK7blocxx626SortedVectorMapDataCompareINS_6StringES1_St4lessIS1_EEclERKS1_S6_@Base 2.1.0
 _ZNK7blocxx626SortedVectorMapDataCompareINS_6StringES1_St4lessIS1_EEclERKSt4pairIS1_S1_ERKS1_@Base 2.1.0
 _ZNK7blocxx626SortedVectorMapDataCompareIiNS_12SelectEngine4DataESt4lessIiEE7keyLessERKiS7_@Base 2.1.0
 _ZNK7blocxx626SortedVectorMapDataCompareIiNS_12SelectEngine4DataESt4lessIiEEclERKSt4pairIiS2_ERKi@Base 2.1.0
 _ZNK7blocxx626SortedVectorMapDataCompareIiNS_12SelectEngine4DataESt4lessIiEEclERKSt4pairIiS2_ES9_@Base 2.1.0
 _ZNK7blocxx626SortedVectorMapDataCompareIiNS_12SelectEngine4DataESt4lessIiEEclERKiS7_@Base 2.1.0
 _ZNK7blocxx626SortedVectorMapDataCompareIiNS_5ArrayINS_6StringEEESt4lessIiEE7keyLessERKiS8_@Base 2.1.0
 _ZNK7blocxx626SortedVectorMapDataCompareIiNS_5ArrayINS_6StringEEESt4lessIiEEclERKSt4pairIiS3_ERKi@Base 2.1.0
 _ZNK7blocxx626SortedVectorMapDataCompareIiNS_5ArrayINS_6StringEEESt4lessIiEEclERKiRKSt4pairIiS3_E@Base 2.1.0
 _ZNK7blocxx626SortedVectorMapDataCompareIiNS_5ArrayINS_6StringEEESt4lessIiEEclERKiS8_@Base 2.1.0
 _ZNK7blocxx627CancellationDeniedException4typeEv@Base 2.1.0
 _ZNK7blocxx627CancellationDeniedException5cloneEv@Base 2.1.0
 _ZNK7blocxx627CancellationDeniedException7rethrowEv@Base 2.1.0
 _ZNK7blocxx627TempFileEnumerationImplBase12throwIfEmptyEv@Base 2.1.0
 _ZNK7blocxx627TempFileEnumerationImplBase13usingTempFileEv@Base 2.1.0
 _ZNK7blocxx627TempFileEnumerationImplBase15hasMoreElementsEv@Base 2.1.0
 _ZNK7blocxx627TempFileEnumerationImplBase16numberOfElementsEv@Base 2.1.0
 _ZNK7blocxx635LogMessagePatternFormatterException4typeEv@Base 2.1.0
 _ZNK7blocxx635LogMessagePatternFormatterException5cloneEv@Base 2.1.0
 _ZNK7blocxx635LogMessagePatternFormatterException7rethrowEv@Base 2.1.0
 _ZNK7blocxx636ExecMockObjectUnimplementedException4typeEv@Base 2.1.0
 _ZNK7blocxx636ExecMockObjectUnimplementedException5cloneEv@Base 2.1.0
 _ZNK7blocxx636ExecMockObjectUnimplementedException7rethrowEv@Base 2.1.0
 _ZNK7blocxx63MapINS_6StringENS_13SSLTrustStore8UserInfoESt4lessIS1_EE4sizeEv@Base 2.1.0
 _ZNK7blocxx63MapINS_6StringES1_St4lessIS1_EE3endEv@Base 2.1.0
 _ZNK7blocxx63MapINS_6StringES1_St4lessIS1_EE4findERKS1_@Base 2.1.0
 _ZNK7blocxx63MapINS_6StringES1_St4lessIS1_EE4sizeEv@Base 2.1.0
 _ZNK7blocxx63MapINS_6StringES1_St4lessIS1_EE5beginEv@Base 2.1.0
 _ZNK7blocxx642FileSystemMockObjectUnimplementedException4typeEv@Base 2.1.0
 _ZNK7blocxx642FileSystemMockObjectUnimplementedException5cloneEv@Base 2.1.0
 _ZNK7blocxx642FileSystemMockObjectUnimplementedException7rethrowEv@Base 2.1.0
 _ZNK7blocxx64Bool11writeObjectERSt15basic_streambufIcSt11char_traitsIcEE@Base 2.1.0
 _ZNK7blocxx64Bool8toStringEv@Base 2.1.0
 _ZNK7blocxx64BoolcvbEv@Base 2.1.0
 _ZNK7blocxx64File4readEPvml@Base 2.1.0
 _ZNK7blocxx64File4seekEli@Base 2.1.0
 _ZNK7blocxx64File4sizeEv@Base 2.1.0
 _ZNK7blocxx64File4tellEv@Base 2.1.0
 _ZNK7blocxx64FilecvMS0_iEv@Base 2.1.0
 _ZNK7blocxx64FilentEv@Base 2.1.0
 _ZNK7blocxx64UUID8toStringEv@Base 2.1.0
 _ZNK7blocxx65ArrayI10regmatch_tE15checkValidIndexEm@Base 2.1.0
 _ZNK7blocxx65ArrayI10regmatch_tE4sizeEv@Base 2.1.0
 _ZNK7blocxx65ArrayI10regmatch_tE5emptyEv@Base 2.1.0
 _ZNK7blocxx65ArrayI10regmatch_tEixEm@Base 2.1.0
 _ZNK7blocxx65ArrayINS0_IcEEE15checkValidIndexEm@Base 2.1.0
 _ZNK7blocxx65ArrayINS0_IcEEE4sizeEv@Base 2.1.0
 _ZNK7blocxx65ArrayINS_18IntrusiveReferenceINS_11LogAppenderEEEE15checkValidIndexEm@Base 2.1.0
 _ZNK7blocxx65ArrayINS_18IntrusiveReferenceINS_11LogAppenderEEEE4sizeEv@Base 2.1.0
 _ZNK7blocxx65ArrayINS_18IntrusiveReferenceINS_11LogAppenderEEEEixEm@Base 2.1.0
 _ZNK7blocxx65ArrayINS_18IntrusiveReferenceINS_26LogMessagePatternFormatter9ConverterEEEE3endEv@Base 2.1.0
 _ZNK7blocxx65ArrayINS_18IntrusiveReferenceINS_26LogMessagePatternFormatter9ConverterEEEE5beginEv@Base 2.1.0
 _ZNK7blocxx65ArrayINS_18IntrusiveReferenceINS_6ThreadEEEE15checkValidIndexEm@Base 2.1.0
 _ZNK7blocxx65ArrayINS_18IntrusiveReferenceINS_6ThreadEEEE4sizeEv@Base 2.1.0
 _ZNK7blocxx65ArrayINS_18IntrusiveReferenceINS_7ProcessEEEE15checkValidIndexEm@Base 2.1.0
 _ZNK7blocxx65ArrayINS_18IntrusiveReferenceINS_7ProcessEEEE4sizeEv@Base 2.1.0
 _ZNK7blocxx65ArrayINS_6Char16EE15checkValidIndexEm@Base 2.1.0
 _ZNK7blocxx65ArrayINS_6Char16EE4sizeEv@Base 2.1.0
 _ZNK7blocxx65ArrayINS_6Char16EEixEm@Base 2.1.0
 _ZNK7blocxx65ArrayINS_6Select12SelectObjectEE15checkValidIndexEm@Base 2.1.0
 _ZNK7blocxx65ArrayINS_6Select12SelectObjectEE4sizeEv@Base 2.1.0
 _ZNK7blocxx65ArrayINS_6Select12SelectObjectEE5emptyEv@Base 2.1.0
 _ZNK7blocxx65ArrayINS_6StringEE15checkValidIndexEm@Base 2.1.0
 _ZNK7blocxx65ArrayINS_6StringEE3endEv@Base 2.1.0
 _ZNK7blocxx65ArrayINS_6StringEE4sizeEv@Base 2.1.0
 _ZNK7blocxx65ArrayINS_6StringEE5beginEv@Base 2.1.0
 _ZNK7blocxx65ArrayINS_6StringEE5emptyEv@Base 2.1.0
 _ZNK7blocxx65ArrayINS_6StringEEixEm@Base 2.1.0
 _ZNK7blocxx65ArrayINS_9PerlRegEx7match_tEE15checkValidIndexEm@Base 2.1.0
 _ZNK7blocxx65ArrayINS_9PerlRegEx7match_tEE4sizeEv@Base 2.1.0
 _ZNK7blocxx65ArrayINS_9PerlRegEx7match_tEE5emptyEv@Base 2.1.0
 _ZNK7blocxx65ArrayINS_9PerlRegEx7match_tEEixEm@Base 2.1.0
 _ZNK7blocxx65ArrayINS_9ReferenceINS_22DelayedFormatInternals26DelayedFormatReferenceBaseEEEE15checkValidIndexEm@Base 2.1.0
 _ZNK7blocxx65ArrayINS_9ReferenceINS_22DelayedFormatInternals26DelayedFormatReferenceBaseEEEE4sizeEv@Base 2.1.0
 _ZNK7blocxx65ArrayINS_9ReferenceINS_22DelayedFormatInternals26DelayedFormatReferenceBaseEEEEixEm@Base 2.1.0
 _ZNK7blocxx65ArrayIPKcE15checkValidIndexEm@Base 2.1.0
 _ZNK7blocxx65ArrayIPKcE4sizeEv@Base 2.1.0
 _ZNK7blocxx65ArrayISt4pairINS_6StringENS_17EFileStatusReturnEEE3endEv@Base 2.1.0
 _ZNK7blocxx65ArrayISt4pairINS_6StringENS_17EFileStatusReturnEEE5beginEv@Base 2.1.0
 _ZNK7blocxx65ArrayIcE15checkValidIndexEm@Base 2.1.0
 _ZNK7blocxx65ArrayIcE4sizeEv@Base 2.1.0
 _ZNK7blocxx65ArrayIcE5emptyEv@Base 2.1.0
 _ZNK7blocxx65ArrayIcEixEm@Base 2.1.0
 _ZNK7blocxx65ArrayIiE15checkValidIndexEm@Base 2.1.0
 _ZNK7blocxx65ArrayIiE4sizeEv@Base 2.1.0
 _ZNK7blocxx65ArrayIiEixEm@Base 2.1.0
 _ZNK7blocxx65ArrayItE15checkValidIndexEm@Base 2.1.0
 _ZNK7blocxx65ArrayItE4sizeEv@Base 2.1.0
 _ZNK7blocxx65ArrayItE5emptyEv@Base 2.1.0
 _ZNK7blocxx65ArrayItEixEm@Base 2.1.0
 _ZNK7blocxx66Char1611writeObjectERSt15basic_streambufIcSt11char_traitsIcEE@Base 2.1.0
 _ZNK7blocxx66Char166toUTF8Ev@Base 2.1.0
 _ZNK7blocxx66Char168getValueEv@Base 2.1.0
 _ZNK7blocxx66Char168toStringEv@Base 2.1.0
 _ZNK7blocxx66Format5c_strEv@Base 2.1.0
 _ZNK7blocxx66Format8toStringEv@Base 2.1.0
 _ZNK7blocxx66FormatcvNS_6StringEEv@Base 2.1.0
 _ZNK7blocxx66Logger10logMessageERKNS_10LogMessageE@Base 2.1.0
 _ZNK7blocxx66Logger10logMessageERKNS_6StringES3_@Base 2.1.0
 _ZNK7blocxx66Logger10logMessageERKNS_6StringES3_PKciS5_@Base 2.1.0
 _ZNK7blocxx66Logger10logMessageERKNS_6StringES3_S3_@Base 2.1.0
 _ZNK7blocxx66Logger10logMessageERKNS_6StringES3_S3_PKciS5_@Base 2.1.0
 _ZNK7blocxx66Logger10logWarningERKNS_6StringEPKciS5_@Base 2.1.0
 _ZNK7blocxx66Logger11getLogLevelEv@Base 2.1.0
 _ZNK7blocxx66Logger13logFatalErrorERKNS_6StringEPKciS5_@Base 2.1.0
 _ZNK7blocxx66Logger14levelIsEnabledENS_9ELogLevelE@Base 2.1.0
 _ZNK7blocxx66Logger17categoryIsEnabledERKNS_6StringE@Base 2.1.0
 _ZNK7blocxx66Logger17processLogMessageERKNS_10LogMessageE@Base 2.1.0
 _ZNK7blocxx66Logger19getDefaultComponentEv@Base 2.1.0
 _ZNK7blocxx66Logger30componentAndCategoryAreEnabledERKNS_6StringES3_@Base 2.1.0
 _ZNK7blocxx66Logger5cloneEv@Base 2.1.0
 _ZNK7blocxx66Logger7logInfoERKNS_6StringEPKciS5_@Base 2.1.0
 _ZNK7blocxx66Logger8logDebugERKNS_6StringEPKciS5_@Base 2.1.0
 _ZNK7blocxx66Logger8logErrorERKNS_6StringEPKciS5_@Base 2.1.0
 _ZNK7blocxx66Logger9logDebug2ERKNS_6StringEPKciS5_@Base 2.1.0
 _ZNK7blocxx66Logger9logDebug3ERKNS_6StringEPKciS5_@Base 2.1.0
 _ZNK7blocxx66Secure21ProcessAbortException4typeEv@Base 2.1.0
 _ZNK7blocxx66Secure21ProcessAbortException5cloneEv@Base 2.1.0
 _ZNK7blocxx66Secure21ProcessAbortException7rethrowEv@Base 2.1.0
 _ZNK7blocxx66Socket12getSelectObjEv@Base 2.1.0
 _ZNK7blocxx66Socket16peerCertVerifiedEv@Base 2.1.0
 _ZNK7blocxx66Socket6getSSLEv@Base 2.1.0
 _ZNK7blocxx66String10UTF8LengthEv@Base 2.1.0
 _ZNK7blocxx66String10startsWithEPKcNS0_15EIgnoreCaseFlagE@Base 2.1.0
 _ZNK7blocxx66String10startsWithEc@Base 2.1.0
 _ZNK7blocxx66String11lastIndexOfEPKcm@Base 2.1.0
 _ZNK7blocxx66String11lastIndexOfEcm@Base 2.1.0
 _ZNK7blocxx66String11writeObjectERSt15basic_streambufIcSt11char_traitsIcEE@Base 2.1.0
 _ZNK7blocxx66String13toUnsignedIntEi@Base 2.1.0
 _ZNK7blocxx66String15allocateCStringEv@Base 2.1.0
 _ZNK7blocxx66String16equalsIgnoreCaseEPKc@Base 2.1.0
 _ZNK7blocxx66String16equalsIgnoreCaseERKS0_@Base 2.1.0
 _ZNK7blocxx66String19compareToIgnoreCaseEPKc@Base 2.1.0
 _ZNK7blocxx66String19compareToIgnoreCaseERKS0_@Base 2.1.0
 _ZNK7blocxx66String5c_strEv@Base 2.1.0
 _ZNK7blocxx66String5emptyEv@Base 2.1.0
 _ZNK7blocxx66String5toIntEi@Base 2.1.0
 _ZNK7blocxx66String6charAtEm@Base 2.1.0
 _ZNK7blocxx66String6equalsEPKc@Base 2.1.0
 _ZNK7blocxx66String6equalsERKS0_@Base 2.1.0
 _ZNK7blocxx66String6lengthEv@Base 2.1.0
 _ZNK7blocxx66String6toBoolEv@Base 2.1.0
 _ZNK7blocxx66String6toInt8Ei@Base 2.1.0
 _ZNK7blocxx66String7ByteBuf4dataEv@Base 2.1.0
 _ZNK7blocxx66String7ByteBuf5cloneEv@Base 2.1.0
 _ZNK7blocxx66String7ByteBuf6lengthEv@Base 2.1.0
 _ZNK7blocxx66String7indexOfEPKcm@Base 2.1.0
 _ZNK7blocxx66String7indexOfERKS0_m@Base 2.1.0
 _ZNK7blocxx66String7indexOfEcm@Base 2.1.0
 _ZNK7blocxx66String7toInt16Ei@Base 2.1.0
 _ZNK7blocxx66String7toInt32Ei@Base 2.1.0
 _ZNK7blocxx66String7toInt64Ei@Base 2.1.0
 _ZNK7blocxx66String7toUInt8Ei@Base 2.1.0
 _ZNK7blocxx66String8endsWithEPKcNS0_15EIgnoreCaseFlagE@Base 2.1.0
 _ZNK7blocxx66String8endsWithEc@Base 2.1.0
 _ZNK7blocxx66String8hashCodeEv@Base 2.1.0
 _ZNK7blocxx66String8isSpacesEv@Base 2.1.0
 _ZNK7blocxx66String8toChar16Ev@Base 2.1.0
 _ZNK7blocxx66String8toReal32Ev@Base 2.1.0
 _ZNK7blocxx66String8toReal64Ev@Base 2.1.0
 _ZNK7blocxx66String8toStringEv@Base 2.1.0
 _ZNK7blocxx66String8toUInt16Ei@Base 2.1.0
 _ZNK7blocxx66String8toUInt32Ei@Base 2.1.0
 _ZNK7blocxx66String8toUInt64Ei@Base 2.1.0
 _ZNK7blocxx66String8tokenizeEPKcNS0_21EReturnDelimitersFlagENS0_21EEmptyTokenReturnFlagE@Base 2.1.0
 _ZNK7blocxx66String9compareToEPKc@Base 2.1.0
 _ZNK7blocxx66String9compareToERKS0_@Base 2.1.0
 _ZNK7blocxx66String9substringEmm@Base 2.1.0
 _ZNK7blocxx66StringixEm@Base 2.1.0
 _ZNK7blocxx67AutoPtrINS_14TempFileBufferEEptEv@Base 2.1.0
 _ZNK7blocxx67AutoPtrINS_15ExceptionDetail13FormatMsgImplEEptEv@Base 2.1.0
 _ZNK7blocxx67AutoPtrINS_5ArrayINS_6StringEEEEdeEv@Base 2.1.0
 _ZNK7blocxx67AutoPtrINS_5ArrayINS_6StringEEEEptEv@Base 2.1.0
 _ZNK7blocxx67EnvVars10deleteEnvpEv@Base 2.1.0
 _ZNK7blocxx67EnvVars7getenvpEv@Base 2.1.0
 _ZNK7blocxx67EnvVars8getValueERKNS_6StringES3_@Base 2.1.0
 _ZNK7blocxx67FileBuf6isOpenEv@Base 2.1.0
 _ZNK7blocxx67Process2inEv@Base 2.1.0
 _ZNK7blocxx67Process3errEv@Base 2.1.0
 _ZNK7blocxx67Process3outEv@Base 2.1.0
 _ZNK7blocxx67Process3pidEv@Base 2.1.0
 _ZNK7blocxx67Process6Status10exitStatusEv@Base 2.1.0
 _ZNK7blocxx67Process6Status10stopSignalEv@Base 2.1.0
 _ZNK7blocxx67Process6Status10termSignalEv@Base 2.1.0
 _ZNK7blocxx67Process6Status10terminatedEv@Base 2.1.0
 _ZNK7blocxx67Process6Status14exitTerminatedEv@Base 2.1.0
 _ZNK7blocxx67Process6Status16signalTerminatedEv@Base 2.1.0
 _ZNK7blocxx67Process6Status21getPOSIXwaitpidStatusEv@Base 2.1.0
 _ZNK7blocxx67Process6Status22terminatedSuccessfullyEv@Base 2.1.0
 _ZNK7blocxx67Process6Status4reprERiS2_@Base 2.1.0
 _ZNK7blocxx67Process6Status7runningEv@Base 2.1.0
 _ZNK7blocxx67Process6Status7stoppedEv@Base 2.1.0
 _ZNK7blocxx67Process6Status8toStringEv@Base 2.1.0
 _ZNK7blocxx67Timeout11getAbsoluteEv@Base 2.1.0
 _ZNK7blocxx67Timeout11getRelativeEv@Base 2.1.0
 _ZNK7blocxx67Timeout7getTypeEv@Base 2.1.0
 _ZNK7blocxx68DateTime11toStringGMTEv@Base 2.1.0
 _ZNK7blocxx68DateTime14getMicrosecondEv@Base 2.1.0
 _ZNK7blocxx68DateTime3getEv@Base 2.1.0
 _ZNK7blocxx68DateTime5getTmENS0_11ETimeOffsetE@Base 2.1.0
 _ZNK7blocxx68DateTime6getDayENS0_11ETimeOffsetE@Base 2.1.0
 _ZNK7blocxx68DateTime6getDowENS0_11ETimeOffsetE@Base 2.1.0
 _ZNK7blocxx68DateTime7getHourENS0_11ETimeOffsetE@Base 2.1.0
 _ZNK7blocxx68DateTime7getYearENS0_11ETimeOffsetE@Base 2.1.0
 _ZNK7blocxx68DateTime7toLocalER2tm@Base 2.1.0
 _ZNK7blocxx68DateTime8getMonthENS0_11ETimeOffsetE@Base 2.1.0
 _ZNK7blocxx68DateTime8toStringENS0_11ETimeOffsetE@Base 2.1.0
 _ZNK7blocxx68DateTime8toStringEPKcNS0_11ETimeOffsetE@Base 2.1.0
 _ZNK7blocxx68DateTime9getMinuteENS0_11ETimeOffsetE@Base 2.1.0
 _ZNK7blocxx68DateTime9getSecondENS0_11ETimeOffsetE@Base 2.1.0
 _ZNK7blocxx68DateTimeeqERKS0_@Base 2.1.0
 _ZNK7blocxx68DateTimegeERKS0_@Base 2.1.0
 _ZNK7blocxx68DateTimegtERKS0_@Base 2.1.0
 _ZNK7blocxx68DateTimeltERKS0_@Base 2.1.0
 _ZNK7blocxx68RWLocker14ThreadComparerclEmm@Base 2.1.0
 _ZNK7blocxx68RefCount3getEv@Base 2.1.0
 _ZNK7blocxx69Exception10getMessageEv@Base 2.1.0
 _ZNK7blocxx69Exception12getErrorCodeEv@Base 2.1.0
 _ZNK7blocxx69Exception13getSubClassIdEv@Base 2.1.0
 _ZNK7blocxx69Exception15getSubExceptionEv@Base 2.1.0
 _ZNK7blocxx69Exception4typeEv@Base 2.1.0
 _ZNK7blocxx69Exception4whatEv@Base 2.1.0
 _ZNK7blocxx69Exception5cloneEv@Base 2.1.0
 _ZNK7blocxx69Exception7getFileEv@Base 2.1.0
 _ZNK7blocxx69Exception7getLineEv@Base 2.1.0
 _ZNK7blocxx69Exception7rethrowEv@Base 2.1.0
 _ZNK7blocxx69GlobalPtrINS_14ExecMockObjectENS_4Exec4Impl11NullFactoryEE3getEv@Base 2.1.0
 _ZNK7blocxx69GlobalPtrINS_20FileSystemMockObjectENS_10FileSystem11NullFactoryEE3getEv@Base 2.1.0
 _ZNK7blocxx69GlobalPtrINS_20FileSystemMockObjectENS_10FileSystem11NullFactoryEEcvMS4_PS1_Ev@Base 2.1.0
 _ZNK7blocxx69GlobalPtrINS_20FileSystemMockObjectENS_10FileSystem11NullFactoryEEptEv@Base 2.1.0
 _ZNK7blocxx69PerlRegEx10isCompiledEv@Base 2.1.0
 _ZNK7blocxx69PerlRegEx11errorStringEv@Base 2.1.0
 _ZNK7blocxx69PerlRegEx12compileFlagsEv@Base 2.1.0
 _ZNK7blocxx69PerlRegEx13patternStringEv@Base 2.1.0
 _ZNK7blocxx69PerlRegEx5matchERKNS_6StringEmi@Base 2.1.0
 _ZNK7blocxx69PosixExec13SystemPreExec7keepStdEi@Base 2.1.0
 _ZNK7blocxx69PosixExec15StandardPreExec7keepStdEi@Base 2.1.0
 _ZNK7blocxx69ReferenceINS_13DelayedFormatEEcvMS2_VPS1_Ev@Base 2.1.0
 _ZNK7blocxx69ReferenceINS_13DelayedFormatEEptEv@Base 2.1.0
 _ZNK7blocxx69ReferenceINS_22DelayedFormatInternals26DelayedFormatReferenceBaseEEdeEv@Base 2.1.0
 _ZNK7blocxx69ReferenceINS_9ExceptionEE6getPtrEv@Base 2.1.0
 _ZNK9__gnu_cxx13new_allocatorI10regmatch_tE8max_sizeEv@Base 2.1.0
 _ZNK9__gnu_cxx13new_allocatorIN7blocxx618IntrusiveReferenceINS1_11LogAppenderEEEE8max_sizeEv@Base 2.1.0
 _ZNK9__gnu_cxx13new_allocatorIN7blocxx618IntrusiveReferenceINS1_26LogMessagePatternFormatter9ConverterEEEE8max_sizeEv@Base 2.1.0
 _ZNK9__gnu_cxx13new_allocatorIN7blocxx618IntrusiveReferenceINS1_6ThreadEEEE8max_sizeEv@Base 2.1.0
 _ZNK9__gnu_cxx13new_allocatorIN7blocxx618IntrusiveReferenceINS1_7ProcessEEEE8max_sizeEv@Base 2.1.0
 _ZNK9__gnu_cxx13new_allocatorIN7blocxx618IntrusiveReferenceINS1_8RunnableEEEE8max_sizeEv@Base 2.1.0
 _ZNK9__gnu_cxx13new_allocatorIN7blocxx65ArrayIcEEE8max_sizeEv@Base 2.1.0
 _ZNK9__gnu_cxx13new_allocatorIN7blocxx66Select12SelectObjectEE8max_sizeEv@Base 2.1.0
 _ZNK9__gnu_cxx13new_allocatorIN7blocxx66StringEE8max_sizeEv@Base 2.1.0
 _ZNK9__gnu_cxx13new_allocatorIN7blocxx69PerlRegEx7match_tEE8max_sizeEv@Base 2.1.0
 _ZNK9__gnu_cxx13new_allocatorIPKcE8max_sizeEv@Base 2.1.0
 _ZNK9__gnu_cxx13new_allocatorIPN7blocxx618IntrusiveReferenceINS1_8RunnableEEEE8max_sizeEv@Base 2.1.0
 _ZNK9__gnu_cxx13new_allocatorISt13_Rb_tree_nodeISt4pairIKN7blocxx66StringENS3_13SSLTrustStore8UserInfoEEEE8max_sizeEv@Base 2.1.0
 _ZNK9__gnu_cxx13new_allocatorISt13_Rb_tree_nodeISt4pairIKN7blocxx66StringES4_EEE8max_sizeEv@Base 2.1.0
 _ZNK9__gnu_cxx13new_allocatorISt13_Rb_tree_nodeISt4pairIKiiEEE8max_sizeEv@Base 2.1.0
 _ZNK9__gnu_cxx13new_allocatorISt13_Rb_tree_nodeISt4pairIKmN7blocxx617GenericRWLockImplImNS4_8RWLocker14ThreadComparerEE10LockerInfoEEEE8max_sizeEv@Base 2.1.0
 _ZNK9__gnu_cxx13new_allocatorISt4pairIN7blocxx66StringENS2_17EFileStatusReturnEEE8max_sizeEv@Base 2.1.0
 _ZNK9__gnu_cxx13new_allocatorISt4pairIiN7blocxx612SelectEngine4DataEEE8max_sizeEv@Base 2.1.0
 _ZNK9__gnu_cxx13new_allocatorISt4pairIiN7blocxx65ArrayINS2_6StringEEEEE8max_sizeEv@Base 2.1.0
 _ZNK9__gnu_cxx13new_allocatorIcE8max_sizeEv@Base 2.1.0
 _ZNK9__gnu_cxx13new_allocatorIhE8max_sizeEv@Base 2.1.0
 _ZNK9__gnu_cxx13new_allocatorIiE8max_sizeEv@Base 2.1.0
 _ZNK9__gnu_cxx13new_allocatorItE8max_sizeEv@Base 2.1.0
 _ZNK9__gnu_cxx17__normal_iteratorIP10regmatch_tNSt9__cxx19986vectorIS1_SaIS1_EEEE4baseEv@Base 2.1.0
 _ZNK9__gnu_cxx17__normal_iteratorIPK10regmatch_tNSt9__cxx19986vectorIS1_SaIS1_EEEE4baseEv@Base 2.1.0
 _ZNK9__gnu_cxx17__normal_iteratorIPK10regmatch_tNSt9__cxx19986vectorIS1_SaIS1_EEEEdeEv@Base 2.1.0
 _ZNK9__gnu_cxx17__normal_iteratorIPKN7blocxx618IntrusiveReferenceINS1_11LogAppenderEEENSt9__cxx19986vectorIS4_SaIS4_EEEE4baseEv@Base 2.1.0
 _ZNK9__gnu_cxx17__normal_iteratorIPKN7blocxx618IntrusiveReferenceINS1_11LogAppenderEEENSt9__cxx19986vectorIS4_SaIS4_EEEEdeEv@Base 2.1.0
 _ZNK9__gnu_cxx17__normal_iteratorIPKN7blocxx618IntrusiveReferenceINS1_26LogMessagePatternFormatter9ConverterEEENSt9__cxx19986vectorIS5_SaIS5_EEEE4baseEv@Base 2.1.0
 _ZNK9__gnu_cxx17__normal_iteratorIPKN7blocxx618IntrusiveReferenceINS1_26LogMessagePatternFormatter9ConverterEEENSt9__cxx19986vectorIS5_SaIS5_EEEEdeEv@Base 2.1.0
 _ZNK9__gnu_cxx17__normal_iteratorIPKN7blocxx618IntrusiveReferenceINS1_6ThreadEEENSt9__cxx19986vectorIS4_SaIS4_EEEE4baseEv@Base 2.1.0
 _ZNK9__gnu_cxx17__normal_iteratorIPKN7blocxx618IntrusiveReferenceINS1_6ThreadEEENSt9__cxx19986vectorIS4_SaIS4_EEEEdeEv@Base 2.1.0
 _ZNK9__gnu_cxx17__normal_iteratorIPKN7blocxx618IntrusiveReferenceINS1_7ProcessEEENSt9__cxx19986vectorIS4_SaIS4_EEEE4baseEv@Base 2.1.0
 _ZNK9__gnu_cxx17__normal_iteratorIPKN7blocxx618IntrusiveReferenceINS1_7ProcessEEENSt9__cxx19986vectorIS4_SaIS4_EEEEdeEv@Base 2.1.0
 _ZNK9__gnu_cxx17__normal_iteratorIPKN7blocxx65ArrayIcEENSt9__cxx19986vectorIS3_SaIS3_EEEE4baseEv@Base 2.1.0
 _ZNK9__gnu_cxx17__normal_iteratorIPKN7blocxx65ArrayIcEENSt9__cxx19986vectorIS3_SaIS3_EEEEdeEv@Base 2.1.0
 _ZNK9__gnu_cxx17__normal_iteratorIPKN7blocxx66Select12SelectObjectENSt9__cxx19986vectorIS3_SaIS3_EEEE4baseEv@Base 2.1.0
 _ZNK9__gnu_cxx17__normal_iteratorIPKN7blocxx66Select12SelectObjectENSt9__cxx19986vectorIS3_SaIS3_EEEEdeEv@Base 2.1.0
 _ZNK9__gnu_cxx17__normal_iteratorIPKN7blocxx66StringENSt9__cxx19986vectorIS2_SaIS2_EEEE4baseEv@Base 2.1.0
 _ZNK9__gnu_cxx17__normal_iteratorIPKN7blocxx66StringENSt9__cxx19986vectorIS2_SaIS2_EEEEdeEv@Base 2.1.0
 _ZNK9__gnu_cxx17__normal_iteratorIPKN7blocxx69PerlRegEx7match_tENSt9__cxx19986vectorIS3_SaIS3_EEEE4baseEv@Base 2.1.0
 _ZNK9__gnu_cxx17__normal_iteratorIPKN7blocxx69PerlRegEx7match_tENSt9__cxx19986vectorIS3_SaIS3_EEEEdeEv@Base 2.1.0
 _ZNK9__gnu_cxx17__normal_iteratorIPKPKcNSt9__cxx19986vectorIS2_SaIS2_EEEE4baseEv@Base 2.1.0
 _ZNK9__gnu_cxx17__normal_iteratorIPKSt4pairIN7blocxx66StringENS2_17EFileStatusReturnEENSt9__cxx19986vectorIS5_SaIS5_EEEE4baseEv@Base 2.1.0
 _ZNK9__gnu_cxx17__normal_iteratorIPKSt4pairIN7blocxx66StringENS2_17EFileStatusReturnEENSt9__cxx19986vectorIS5_SaIS5_EEEEdeEv@Base 2.1.0
 _ZNK9__gnu_cxx17__normal_iteratorIPKSt4pairIN7blocxx66StringES3_ENSt9__cxx19986vectorIS4_SaIS4_EEEE4baseEv@Base 2.1.0
 _ZNK9__gnu_cxx17__normal_iteratorIPKSt4pairIN7blocxx66StringES3_ENSt9__cxx19986vectorIS4_SaIS4_EEEEdeEv@Base 2.1.0
 _ZNK9__gnu_cxx17__normal_iteratorIPKSt4pairIiN7blocxx612SelectEngine4DataEENSt9__cxx19986vectorIS5_SaIS5_EEEE4baseEv@Base 2.1.0
 _ZNK9__gnu_cxx17__normal_iteratorIPKSt4pairIiN7blocxx612SelectEngine4DataEENSt9__cxx19986vectorIS5_SaIS5_EEEEdeEv@Base 2.1.0
 _ZNK9__gnu_cxx17__normal_iteratorIPKSt4pairIiN7blocxx65ArrayINS2_6StringEEEENSt9__cxx19986vectorIS6_SaIS6_EEEE4baseEv@Base 2.1.0
 _ZNK9__gnu_cxx17__normal_iteratorIPKSt4pairIiN7blocxx65ArrayINS2_6StringEEEENSt9__cxx19986vectorIS6_SaIS6_EEEEdeEv@Base 2.1.0
 _ZNK9__gnu_cxx17__normal_iteratorIPKcNSt9__cxx19986vectorIcSaIcEEEE4baseEv@Base 2.1.0
 _ZNK9__gnu_cxx17__normal_iteratorIPKhNSt9__cxx19986vectorIhSaIhEEEE4baseEv@Base 2.1.0
 _ZNK9__gnu_cxx17__normal_iteratorIPKiNSt9__cxx19986vectorIiSaIiEEEE4baseEv@Base 2.1.0
 _ZNK9__gnu_cxx17__normal_iteratorIPKtNSt9__cxx19986vectorItSaItEEEE4baseEv@Base 2.1.0
 _ZNK9__gnu_cxx17__normal_iteratorIPN7blocxx618IntrusiveReferenceINS1_11LogAppenderEEENSt9__cxx19986vectorIS4_SaIS4_EEEE4baseEv@Base 2.1.0
 _ZNK9__gnu_cxx17__normal_iteratorIPN7blocxx618IntrusiveReferenceINS1_11LogAppenderEEENSt9__cxx19986vectorIS4_SaIS4_EEEEdeEv@Base 2.1.0
 _ZNK9__gnu_cxx17__normal_iteratorIPN7blocxx618IntrusiveReferenceINS1_26LogMessagePatternFormatter9ConverterEEENSt9__cxx19986vectorIS5_SaIS5_EEEE4baseEv@Base 2.1.0
 _ZNK9__gnu_cxx17__normal_iteratorIPN7blocxx618IntrusiveReferenceINS1_26LogMessagePatternFormatter9ConverterEEENSt9__cxx19986vectorIS5_SaIS5_EEEEdeEv@Base 2.1.0
 _ZNK9__gnu_cxx17__normal_iteratorIPN7blocxx618IntrusiveReferenceINS1_6ThreadEEENSt9__cxx19986vectorIS4_SaIS4_EEEE4baseEv@Base 2.1.0
 _ZNK9__gnu_cxx17__normal_iteratorIPN7blocxx618IntrusiveReferenceINS1_6ThreadEEENSt9__cxx19986vectorIS4_SaIS4_EEEEdeEv@Base 2.1.0
 _ZNK9__gnu_cxx17__normal_iteratorIPN7blocxx618IntrusiveReferenceINS1_6ThreadEEENSt9__cxx19986vectorIS4_SaIS4_EEEEplERKl@Base 2.1.0
 _ZNK9__gnu_cxx17__normal_iteratorIPN7blocxx618IntrusiveReferenceINS1_7ProcessEEENSt9__cxx19986vectorIS4_SaIS4_EEEE4baseEv@Base 2.1.0
 _ZNK9__gnu_cxx17__normal_iteratorIPN7blocxx618IntrusiveReferenceINS1_7ProcessEEENSt9__cxx19986vectorIS4_SaIS4_EEEEdeEv@Base 2.1.0
 _ZNK9__gnu_cxx17__normal_iteratorIPN7blocxx66Select12SelectObjectENSt9__cxx19986vectorIS3_SaIS3_EEEE4baseEv@Base 2.1.0
 _ZNK9__gnu_cxx17__normal_iteratorIPN7blocxx66Select12SelectObjectENSt9__cxx19986vectorIS3_SaIS3_EEEEdeEv@Base 2.1.0
 _ZNK9__gnu_cxx17__normal_iteratorIPN7blocxx66StringENSt9__cxx19986vectorIS2_SaIS2_EEEE4baseEv@Base 2.1.0
 _ZNK9__gnu_cxx17__normal_iteratorIPN7blocxx66StringENSt9__cxx19986vectorIS2_SaIS2_EEEEdeEv@Base 2.1.0
 _ZNK9__gnu_cxx17__normal_iteratorIPN7blocxx66StringENSt9__cxx19986vectorIS2_SaIS2_EEEEixERKl@Base 2.1.0
 _ZNK9__gnu_cxx17__normal_iteratorIPN7blocxx69PerlRegEx7match_tENSt9__cxx19986vectorIS3_SaIS3_EEEE4baseEv@Base 2.1.0
 _ZNK9__gnu_cxx17__normal_iteratorIPPKcNSt9__cxx19986vectorIS2_SaIS2_EEEE4baseEv@Base 2.1.0
 _ZNK9__gnu_cxx17__normal_iteratorIPPKcNSt9__cxx19986vectorIS2_SaIS2_EEEEdeEv@Base 2.1.0
 _ZNK9__gnu_cxx17__normal_iteratorIPSt4pairIN7blocxx66StringENS2_17EFileStatusReturnEENSt9__cxx19986vectorIS5_SaIS5_EEEE4baseEv@Base 2.1.0
 _ZNK9__gnu_cxx17__normal_iteratorIPSt4pairIN7blocxx66StringENS2_17EFileStatusReturnEENSt9__cxx19986vectorIS5_SaIS5_EEEEdeEv@Base 2.1.0
 _ZNK9__gnu_cxx17__normal_iteratorIPSt4pairIiN7blocxx612SelectEngine4DataEENSt9__cxx19986vectorIS5_SaIS5_EEEE4baseEv@Base 2.1.0
 _ZNK9__gnu_cxx17__normal_iteratorIPSt4pairIiN7blocxx612SelectEngine4DataEENSt9__cxx19986vectorIS5_SaIS5_EEEEdeEv@Base 2.1.0
 _ZNK9__gnu_cxx17__normal_iteratorIPSt4pairIiN7blocxx612SelectEngine4DataEENSt9__cxx19986vectorIS5_SaIS5_EEEEplERKl@Base 2.1.0
 _ZNK9__gnu_cxx17__normal_iteratorIPSt4pairIiN7blocxx65ArrayINS2_6StringEEEENSt9__cxx19986vectorIS6_SaIS6_EEEE4baseEv@Base 2.1.0
 _ZNK9__gnu_cxx17__normal_iteratorIPSt4pairIiN7blocxx65ArrayINS2_6StringEEEENSt9__cxx19986vectorIS6_SaIS6_EEEEdeEv@Base 2.1.0
 _ZNK9__gnu_cxx17__normal_iteratorIPcNSt9__cxx19986vectorIcSaIcEEEE4baseEv@Base 2.1.0
 _ZNK9__gnu_cxx17__normal_iteratorIPcNSt9__cxx19986vectorIcSaIcEEEEdeEv@Base 2.1.0
 _ZNK9__gnu_cxx17__normal_iteratorIPcNSt9__cxx19986vectorIcSaIcEEEEmiERKl@Base 2.1.0
 _ZNK9__gnu_cxx17__normal_iteratorIPhNSt9__cxx19986vectorIhSaIhEEEE4baseEv@Base 2.1.0
 _ZNK9__gnu_cxx17__normal_iteratorIPhNSt9__cxx19986vectorIhSaIhEEEEdeEv@Base 2.1.0
 _ZNK9__gnu_cxx17__normal_iteratorIPiNSt9__cxx19986vectorIiSaIiEEEE4baseEv@Base 2.1.0
 _ZNK9__gnu_cxx17__normal_iteratorIPtNSt9__cxx19986vectorItSaItEEEE4baseEv@Base 2.1.0
 _ZNK9__gnu_cxx17__normal_iteratorIPtNSt9__cxx19986vectorItSaItEEEEdeEv@Base 2.1.0
 _ZNK9__gnu_cxx24__concurrence_lock_error4whatEv@Base 2.1.0
 _ZNK9__gnu_cxx26__concurrence_unlock_error4whatEv@Base 2.1.0
 _ZNKSbIwSt11char_traitsIwESaIwEE11_M_disjunctEPKw@Base 2.1.0
 _ZNKSbIwSt11char_traitsIwESaIwEE13get_allocatorEv@Base 2.1.0
 _ZNKSbIwSt11char_traitsIwESaIwEE15_M_check_lengthEmmPKc@Base 2.1.0
 _ZNKSbIwSt11char_traitsIwESaIwEE4_Rep12_M_is_leakedEv@Base 2.1.0
 _ZNKSbIwSt11char_traitsIwESaIwEE4_Rep12_M_is_sharedEv@Base 2.1.0
 _ZNKSbIwSt11char_traitsIwESaIwEE4sizeEv@Base 2.1.0
 _ZNKSbIwSt11char_traitsIwESaIwEE5c_strEv@Base 2.1.0
 _ZNKSbIwSt11char_traitsIwESaIwEE5emptyEv@Base 2.1.0
 _ZNKSbIwSt11char_traitsIwESaIwEE6_M_repEv@Base 2.1.0
 _ZNKSbIwSt11char_traitsIwESaIwEE6lengthEv@Base 2.1.0
 _ZNKSbIwSt11char_traitsIwESaIwEE7_M_dataEv@Base 2.1.0
 _ZNKSbIwSt11char_traitsIwESaIwEE8capacityEv@Base 2.1.0
 _ZNKSbIwSt11char_traitsIwESaIwEE8max_sizeEv@Base 2.1.0
 _ZNKSi6sentrycvbEv@Base 2.1.0
 _ZNKSo6sentrycvbEv@Base 2.1.0
 _ZNKSs11_M_disjunctEPKc@Base 2.1.0
 _ZNKSs13get_allocatorEv@Base 2.1.0
 _ZNKSs15_M_check_lengthEmmPKc@Base 2.1.0
 _ZNKSs4_Rep12_M_is_leakedEv@Base 2.1.0
 _ZNKSs4_Rep12_M_is_sharedEv@Base 2.1.0
 _ZNKSs4sizeEv@Base 2.1.0
 _ZNKSs5c_strEv@Base 2.1.0
 _ZNKSs5emptyEv@Base 2.1.0
 _ZNKSs6_M_repEv@Base 2.1.0
 _ZNKSs6lengthEv@Base 2.1.0
 _ZNKSs7_M_dataEv@Base 2.1.0
 _ZNKSs8capacityEv@Base 2.1.0
 _ZNKSs8max_sizeEv@Base 2.1.0
 _ZNKSt10_Select1stISt4pairIKN7blocxx66StringENS1_13SSLTrustStore8UserInfoEEEclERKS6_@Base 2.1.0
 _ZNKSt10_Select1stISt4pairIKN7blocxx66StringES2_EEclERKS4_@Base 2.1.0
 _ZNKSt10_Select1stISt4pairIKiiEEclERKS2_@Base 2.1.0
 _ZNKSt10_Select1stISt4pairIKmN7blocxx617GenericRWLockImplImNS2_8RWLocker14ThreadComparerEE10LockerInfoEEEclERKS8_@Base 2.1.0
 _ZNKSt13basic_filebufIcSt11char_traitsIcEE7is_openEv@Base 2.1.0
 _ZNKSt14basic_ifstreamIcSt11char_traitsIcEE5rdbufEv@Base 2.1.0
 _ZNKSt15basic_streambufIcSt11char_traitsIcEE4gptrEv@Base 2.1.0
 _ZNKSt15basic_streambufIcSt11char_traitsIcEE4pptrEv@Base 2.1.0
 _ZNKSt15basic_streambufIcSt11char_traitsIcEE5ebackEv@Base 2.1.0
 _ZNKSt15basic_streambufIcSt11char_traitsIcEE5egptrEv@Base 2.1.0
 _ZNKSt15basic_streambufIcSt11char_traitsIcEE5epptrEv@Base 2.1.0
 _ZNKSt15basic_streambufIcSt11char_traitsIcEE5pbaseEv@Base 2.1.0
 _ZNKSt17_Rb_tree_iteratorISt4pairIKN7blocxx66StringENS1_13SSLTrustStore8UserInfoEEEdeEv@Base 2.1.0
 _ZNKSt17_Rb_tree_iteratorISt4pairIKN7blocxx66StringENS1_13SSLTrustStore8UserInfoEEEeqERKS7_@Base 2.1.0
 _ZNKSt17_Rb_tree_iteratorISt4pairIKN7blocxx66StringES2_EEdeEv@Base 2.1.0
 _ZNKSt17_Rb_tree_iteratorISt4pairIKN7blocxx66StringES2_EEeqERKS5_@Base 2.1.0
 _ZNKSt17_Rb_tree_iteratorISt4pairIKN7blocxx66StringES2_EEneERKS5_@Base 2.1.0
 _ZNKSt17_Rb_tree_iteratorISt4pairIKiiEEdeEv@Base 2.1.0
 _ZNKSt17_Rb_tree_iteratorISt4pairIKiiEEeqERKS3_@Base 2.1.0
 _ZNKSt17_Rb_tree_iteratorISt4pairIKmN7blocxx617GenericRWLockImplImNS2_8RWLocker14ThreadComparerEE10LockerInfoEEEdeEv@Base 2.1.0
 _ZNKSt17_Rb_tree_iteratorISt4pairIKmN7blocxx617GenericRWLockImplImNS2_8RWLocker14ThreadComparerEE10LockerInfoEEEeqERKS9_@Base 2.1.0
 _ZNKSt17_Rb_tree_iteratorISt4pairIKmN7blocxx617GenericRWLockImplImNS2_8RWLocker14ThreadComparerEE10LockerInfoEEEneERKS9_@Base 2.1.0
 _ZNKSt19ostreambuf_iteratorIcSt11char_traitsIcEE6failedEv@Base 2.1.0
 _ZNKSt23_Rb_tree_const_iteratorISt4pairIKN7blocxx66StringENS1_13SSLTrustStore8UserInfoEEE13_M_const_castEv@Base 2.1.0
 _ZNKSt23_Rb_tree_const_iteratorISt4pairIKN7blocxx66StringENS1_13SSLTrustStore8UserInfoEEEdeEv@Base 2.1.0
 _ZNKSt23_Rb_tree_const_iteratorISt4pairIKN7blocxx66StringENS1_13SSLTrustStore8UserInfoEEEeqERKS7_@Base 2.1.0
 _ZNKSt23_Rb_tree_const_iteratorISt4pairIKN7blocxx66StringENS1_13SSLTrustStore8UserInfoEEEneERKS7_@Base 2.1.0
 _ZNKSt23_Rb_tree_const_iteratorISt4pairIKN7blocxx66StringES2_EE13_M_const_castEv@Base 2.1.0
 _ZNKSt23_Rb_tree_const_iteratorISt4pairIKN7blocxx66StringES2_EEdeEv@Base 2.1.0
 _ZNKSt23_Rb_tree_const_iteratorISt4pairIKN7blocxx66StringES2_EEeqERKS5_@Base 2.1.0
 _ZNKSt23_Rb_tree_const_iteratorISt4pairIKN7blocxx66StringES2_EEneERKS5_@Base 2.1.0
 _ZNKSt23_Rb_tree_const_iteratorISt4pairIKiiEE13_M_const_castEv@Base 2.1.0
 _ZNKSt23_Rb_tree_const_iteratorISt4pairIKmN7blocxx617GenericRWLockImplImNS2_8RWLocker14ThreadComparerEE10LockerInfoEEEeqERKS9_@Base 2.1.0
 _ZNKSt23__codecvt_abstract_baseIcc11__mbstate_tE10max_lengthEv@Base 2.1.0
 _ZNKSt23__codecvt_abstract_baseIcc11__mbstate_tE13always_noconvEv@Base 2.1.0
 _ZNKSt23__codecvt_abstract_baseIcc11__mbstate_tE2inERS0_PKcS4_RS4_PcS6_RS6_@Base 2.1.0
 _ZNKSt23__codecvt_abstract_baseIcc11__mbstate_tE3outERS0_PKcS4_RS4_PcS6_RS6_@Base 2.1.0
 _ZNKSt23__codecvt_abstract_baseIcc11__mbstate_tE6lengthERS0_PKcS4_m@Base 2.1.0
 _ZNKSt23__codecvt_abstract_baseIcc11__mbstate_tE7unshiftERS0_PcS3_RS3_@Base 2.1.0
 _ZNKSt23__codecvt_abstract_baseIcc11__mbstate_tE8encodingEv@Base 2.1.0
 _ZNKSt4fposI11__mbstate_tE5stateEv@Base 2.1.0
 _ZNKSt4fposI11__mbstate_tEcvlEv@Base 2.1.0
 _ZNKSt4lessIN7blocxx66StringEEclERKS1_S4_@Base 2.1.0
 _ZNKSt4lessIPKcEclERKS1_S4_@Base 2.1.0
 _ZNKSt4lessIPKwEclERKS1_S4_@Base 2.1.0
 _ZNKSt4lessIiEclERKiS2_@Base 2.1.0
 _ZNKSt5ctypeIcE2isEtc@Base 2.1.0
 _ZNKSt5ctypeIcE5widenEc@Base 2.1.0
 _ZNKSt7__debug3mapIN7blocxx66StringENS1_13SSLTrustStore8UserInfoESt4lessIS2_ESaISt4pairIKS2_S4_EEE7_M_baseEv@Base 2.1.0
 _ZNKSt7__debug3mapIN7blocxx66StringES2_St4lessIS2_ESaISt4pairIKS2_S2_EEE3endEv@Base 2.1.0
 _ZNKSt7__debug3mapIN7blocxx66StringES2_St4lessIS2_ESaISt4pairIKS2_S2_EEE4findERS6_@Base 2.1.0
 _ZNKSt7__debug3mapIN7blocxx66StringES2_St4lessIS2_ESaISt4pairIKS2_S2_EEE5beginEv@Base 2.1.0
 _ZNKSt7__debug3mapIN7blocxx66StringES2_St4lessIS2_ESaISt4pairIKS2_S2_EEE7_M_baseEv@Base 2.1.0
 _ZNKSt7__debug3mapImN7blocxx617GenericRWLockImplImNS1_8RWLocker14ThreadComparerEE10LockerInfoES4_SaISt4pairIKmS6_EEE7_M_baseEv@Base 2.1.0
 _ZNKSt7__debug6vectorI10regmatch_tSaIS1_EE7_M_baseEv@Base 2.1.0
 _ZNKSt7__debug6vectorI10regmatch_tSaIS1_EE8capacityEv@Base 2.1.0
 _ZNKSt7__debug6vectorI10regmatch_tSaIS1_EEixEm@Base 2.1.0
 _ZNKSt7__debug6vectorIN7blocxx618IntrusiveReferenceINS1_11LogAppenderEEESaIS4_EE7_M_baseEv@Base 2.1.0
 _ZNKSt7__debug6vectorIN7blocxx618IntrusiveReferenceINS1_11LogAppenderEEESaIS4_EE8capacityEv@Base 2.1.0
 _ZNKSt7__debug6vectorIN7blocxx618IntrusiveReferenceINS1_11LogAppenderEEESaIS4_EEixEm@Base 2.1.0
 _ZNKSt7__debug6vectorIN7blocxx618IntrusiveReferenceINS1_26LogMessagePatternFormatter9ConverterEEESaIS5_EE3endEv@Base 2.1.0
 _ZNKSt7__debug6vectorIN7blocxx618IntrusiveReferenceINS1_26LogMessagePatternFormatter9ConverterEEESaIS5_EE5beginEv@Base 2.1.0
 _ZNKSt7__debug6vectorIN7blocxx618IntrusiveReferenceINS1_26LogMessagePatternFormatter9ConverterEEESaIS5_EE7_M_baseEv@Base 2.1.0
 _ZNKSt7__debug6vectorIN7blocxx618IntrusiveReferenceINS1_26LogMessagePatternFormatter9ConverterEEESaIS5_EE8capacityEv@Base 2.1.0
 _ZNKSt7__debug6vectorIN7blocxx618IntrusiveReferenceINS1_6ThreadEEESaIS4_EE7_M_baseEv@Base 2.1.0
 _ZNKSt7__debug6vectorIN7blocxx618IntrusiveReferenceINS1_6ThreadEEESaIS4_EE8capacityEv@Base 2.1.0
 _ZNKSt7__debug6vectorIN7blocxx618IntrusiveReferenceINS1_7ProcessEEESaIS4_EE8capacityEv@Base 2.1.0
 _ZNKSt7__debug6vectorIN7blocxx66Char16ESaIS2_EE7_M_baseEv@Base 2.1.0
 _ZNKSt7__debug6vectorIN7blocxx66Char16ESaIS2_EEixEm@Base 2.1.0
 _ZNKSt7__debug6vectorIN7blocxx66Select12SelectObjectESaIS3_EE8capacityEv@Base 2.1.0
 _ZNKSt7__debug6vectorIN7blocxx66StringESaIS2_EE3endEv@Base 2.1.0
 _ZNKSt7__debug6vectorIN7blocxx66StringESaIS2_EE5beginEv@Base 2.1.0
 _ZNKSt7__debug6vectorIN7blocxx66StringESaIS2_EE7_M_baseEv@Base 2.1.0
 _ZNKSt7__debug6vectorIN7blocxx66StringESaIS2_EE8capacityEv@Base 2.1.0
 _ZNKSt7__debug6vectorIN7blocxx66StringESaIS2_EEixEm@Base 2.1.0
 _ZNKSt7__debug6vectorIN7blocxx69PerlRegEx7match_tESaIS3_EE7_M_baseEv@Base 2.1.0
 _ZNKSt7__debug6vectorIN7blocxx69PerlRegEx7match_tESaIS3_EE8capacityEv@Base 2.1.0
 _ZNKSt7__debug6vectorIN7blocxx69PerlRegEx7match_tESaIS3_EEixEm@Base 2.1.0
 _ZNKSt7__debug6vectorIN7blocxx69ReferenceINS1_22DelayedFormatInternals26DelayedFormatReferenceBaseEEESaIS5_EE7_M_baseEv@Base 2.1.0
 _ZNKSt7__debug6vectorIN7blocxx69ReferenceINS1_22DelayedFormatInternals26DelayedFormatReferenceBaseEEESaIS5_EEixEm@Base 2.1.0
 _ZNKSt7__debug6vectorIPKcSaIS2_EE8capacityEv@Base 2.1.0
 _ZNKSt7__debug6vectorISt4pairIN7blocxx66StringENS2_17EFileStatusReturnEESaIS5_EE3endEv@Base 2.1.0
 _ZNKSt7__debug6vectorISt4pairIN7blocxx66StringENS2_17EFileStatusReturnEESaIS5_EE5beginEv@Base 2.1.0
 _ZNKSt7__debug6vectorISt4pairIN7blocxx66StringENS2_17EFileStatusReturnEESaIS5_EE7_M_baseEv@Base 2.1.0
 _ZNKSt7__debug6vectorISt4pairIN7blocxx66StringENS2_17EFileStatusReturnEESaIS5_EE8capacityEv@Base 2.1.0
 _ZNKSt7__debug6vectorISt4pairIN7blocxx66StringES3_ESaIS4_EE3endEv@Base 2.1.0
 _ZNKSt7__debug6vectorISt4pairIN7blocxx66StringES3_ESaIS4_EE5beginEv@Base 2.1.0
 _ZNKSt7__debug6vectorISt4pairIN7blocxx66StringES3_ESaIS4_EE7_M_baseEv@Base 2.1.0
 _ZNKSt7__debug6vectorISt4pairIiN7blocxx612SelectEngine4DataEESaIS5_EE7_M_baseEv@Base 2.1.0
 _ZNKSt7__debug6vectorISt4pairIiN7blocxx612SelectEngine4DataEESaIS5_EE8capacityEv@Base 2.1.0
 _ZNKSt7__debug6vectorISt4pairIiN7blocxx65ArrayINS2_6StringEEEESaIS6_EE3endEv@Base 2.1.0
 _ZNKSt7__debug6vectorISt4pairIiN7blocxx65ArrayINS2_6StringEEEESaIS6_EE5beginEv@Base 2.1.0
 _ZNKSt7__debug6vectorISt4pairIiN7blocxx65ArrayINS2_6StringEEEESaIS6_EE7_M_baseEv@Base 2.1.0
 _ZNKSt7__debug6vectorISt4pairIiN7blocxx65ArrayINS2_6StringEEEESaIS6_EE8capacityEv@Base 2.1.0
 _ZNKSt7__debug6vectorIbSaIbEE7_M_baseEv@Base 2.1.0
 _ZNKSt7__debug6vectorIbSaIbEEixEm@Base 2.1.0
 _ZNKSt7__debug6vectorIcSaIcEE7_M_baseEv@Base 2.1.0
 _ZNKSt7__debug6vectorIcSaIcEE8capacityEv@Base 2.1.0
 _ZNKSt7__debug6vectorIcSaIcEEixEm@Base 2.1.0
 _ZNKSt7__debug6vectorIhSaIhEE7_M_baseEv@Base 2.1.0
 _ZNKSt7__debug6vectorIhSaIhEE8capacityEv@Base 2.1.0
 _ZNKSt7__debug6vectorIiSaIiEE7_M_baseEv@Base 2.1.0
 _ZNKSt7__debug6vectorIiSaIiEE8capacityEv@Base 2.1.0
 _ZNKSt7__debug6vectorIiSaIiEEixEm@Base 2.1.0
 _ZNKSt7__debug6vectorItSaItEE7_M_baseEv@Base 2.1.0
 _ZNKSt7__debug6vectorItSaItEE8capacityEv@Base 2.1.0
 _ZNKSt7__debug6vectorItSaItEEixEm@Base 2.1.0
 _ZNKSt7num_putIcSt19ostreambuf_iteratorIcSt11char_traitsIcEEE3putES3_RSt8ios_basecl@Base 2.1.0
 _ZNKSt7num_putIcSt19ostreambuf_iteratorIcSt11char_traitsIcEEE3putES3_RSt8ios_basecm@Base 2.1.0
 _ZNKSt7num_putIcSt19ostreambuf_iteratorIcSt11char_traitsIcEEE3putES3_RSt8ios_basecx@Base 2.1.0
 _ZNKSt7num_putIcSt19ostreambuf_iteratorIcSt11char_traitsIcEEE3putES3_RSt8ios_basecy@Base 2.1.0
 _ZNKSt8_Rb_treeIN7blocxx66StringESt4pairIKS1_NS0_13SSLTrustStore8UserInfoEESt10_Select1stIS6_ESt4lessIS1_ESaIS6_EE13get_allocatorEv@Base 2.1.0
 _ZNKSt8_Rb_treeIN7blocxx66StringESt4pairIKS1_NS0_13SSLTrustStore8UserInfoEESt10_Select1stIS6_ESt4lessIS1_ESaIS6_EE21_M_get_Node_allocatorEv@Base 2.1.0
 _ZNKSt8_Rb_treeIN7blocxx66StringESt4pairIKS1_NS0_13SSLTrustStore8UserInfoEESt10_Select1stIS6_ESt4lessIS1_ESaIS6_EE3endEv@Base 2.1.0
 _ZNKSt8_Rb_treeIN7blocxx66StringESt4pairIKS1_NS0_13SSLTrustStore8UserInfoEESt10_Select1stIS6_ESt4lessIS1_ESaIS6_EE4sizeEv@Base 2.1.0
 _ZNKSt8_Rb_treeIN7blocxx66StringESt4pairIKS1_NS0_13SSLTrustStore8UserInfoEESt10_Select1stIS6_ESt4lessIS1_ESaIS6_EE5beginEv@Base 2.1.0
 _ZNKSt8_Rb_treeIN7blocxx66StringESt4pairIKS1_NS0_13SSLTrustStore8UserInfoEESt10_Select1stIS6_ESt4lessIS1_ESaIS6_EE7_M_rootEv@Base 2.1.0
 _ZNKSt8_Rb_treeIN7blocxx66StringESt4pairIKS1_NS0_13SSLTrustStore8UserInfoEESt10_Select1stIS6_ESt4lessIS1_ESaIS6_EE8_M_beginEv@Base 2.1.0
 _ZNKSt8_Rb_treeIN7blocxx66StringESt4pairIKS1_NS0_13SSLTrustStore8UserInfoEESt10_Select1stIS6_ESt4lessIS1_ESaIS6_EE8key_compEv@Base 2.1.0
 _ZNKSt8_Rb_treeIN7blocxx66StringESt4pairIKS1_S1_ESt10_Select1stIS4_ESt4lessIS1_ESaIS4_EE13get_allocatorEv@Base 2.1.0
 _ZNKSt8_Rb_treeIN7blocxx66StringESt4pairIKS1_S1_ESt10_Select1stIS4_ESt4lessIS1_ESaIS4_EE14_M_lower_boundEPKSt13_Rb_tree_nodeIS4_ESE_RS3_@Base 2.1.0
 _ZNKSt8_Rb_treeIN7blocxx66StringESt4pairIKS1_S1_ESt10_Select1stIS4_ESt4lessIS1_ESaIS4_EE21_M_get_Node_allocatorEv@Base 2.1.0
 _ZNKSt8_Rb_treeIN7blocxx66StringESt4pairIKS1_S1_ESt10_Select1stIS4_ESt4lessIS1_ESaIS4_EE3endEv@Base 2.1.0
 _ZNKSt8_Rb_treeIN7blocxx66StringESt4pairIKS1_S1_ESt10_Select1stIS4_ESt4lessIS1_ESaIS4_EE4findERS3_@Base 2.1.0
 _ZNKSt8_Rb_treeIN7blocxx66StringESt4pairIKS1_S1_ESt10_Select1stIS4_ESt4lessIS1_ESaIS4_EE4sizeEv@Base 2.1.0
 _ZNKSt8_Rb_treeIN7blocxx66StringESt4pairIKS1_S1_ESt10_Select1stIS4_ESt4lessIS1_ESaIS4_EE5beginEv@Base 2.1.0
 _ZNKSt8_Rb_treeIN7blocxx66StringESt4pairIKS1_S1_ESt10_Select1stIS4_ESt4lessIS1_ESaIS4_EE6_M_endEv@Base 2.1.0
 _ZNKSt8_Rb_treeIN7blocxx66StringESt4pairIKS1_S1_ESt10_Select1stIS4_ESt4lessIS1_ESaIS4_EE7_M_rootEv@Base 2.1.0
 _ZNKSt8_Rb_treeIN7blocxx66StringESt4pairIKS1_S1_ESt10_Select1stIS4_ESt4lessIS1_ESaIS4_EE8_M_beginEv@Base 2.1.0
 _ZNKSt8_Rb_treeIN7blocxx66StringESt4pairIKS1_S1_ESt10_Select1stIS4_ESt4lessIS1_ESaIS4_EE8key_compEv@Base 2.1.0
 _ZNKSt8_Rb_treeIiSt4pairIKiiESt10_Select1stIS2_ESt4lessIiESaIS2_EE13get_allocatorEv@Base 2.1.0
 _ZNKSt8_Rb_treeIiSt4pairIKiiESt10_Select1stIS2_ESt4lessIiESaIS2_EE21_M_get_Node_allocatorEv@Base 2.1.0
 _ZNKSt8_Rb_treeIiSt4pairIKiiESt10_Select1stIS2_ESt4lessIiESaIS2_EE4sizeEv@Base 2.1.0
 _ZNKSt8_Rb_treeIiSt4pairIKiiESt10_Select1stIS2_ESt4lessIiESaIS2_EE8key_compEv@Base 2.1.0
 _ZNKSt8_Rb_treeImSt4pairIKmN7blocxx617GenericRWLockImplImNS2_8RWLocker14ThreadComparerEE10LockerInfoEESt10_Select1stIS8_ES5_SaIS8_EE13get_allocatorEv@Base 2.1.0
 _ZNKSt8_Rb_treeImSt4pairIKmN7blocxx617GenericRWLockImplImNS2_8RWLocker14ThreadComparerEE10LockerInfoEESt10_Select1stIS8_ES5_SaIS8_EE21_M_get_Node_allocatorEv@Base 2.1.0
 _ZNKSt8_Rb_treeImSt4pairIKmN7blocxx617GenericRWLockImplImNS2_8RWLocker14ThreadComparerEE10LockerInfoEESt10_Select1stIS8_ES5_SaIS8_EE3endEv@Base 2.1.0
 _ZNKSt8_Rb_treeImSt4pairIKmN7blocxx617GenericRWLockImplImNS2_8RWLocker14ThreadComparerEE10LockerInfoEESt10_Select1stIS8_ES5_SaIS8_EE5beginEv@Base 2.1.0
 _ZNKSt8ios_base5flagsEv@Base 2.1.0
 _ZNKSt8ios_base5widthEv@Base 2.1.0
 _ZNKSt9__cxx199811_Deque_baseIN7blocxx618IntrusiveReferenceINS1_8RunnableEEESaIS4_EE19_M_get_Tp_allocatorEv@Base 2.1.0
 _ZNKSt9__cxx199811_Deque_baseIN7blocxx618IntrusiveReferenceINS1_8RunnableEEESaIS4_EE20_M_get_map_allocatorEv@Base 2.1.0
 _ZNKSt9__cxx199812_Vector_baseI10regmatch_tSaIS1_EE19_M_get_Tp_allocatorEv@Base 2.1.0
 _ZNKSt9__cxx199812_Vector_baseIN7blocxx618IntrusiveReferenceINS1_11LogAppenderEEESaIS4_EE19_M_get_Tp_allocatorEv@Base 2.1.0
 _ZNKSt9__cxx199812_Vector_baseIN7blocxx618IntrusiveReferenceINS1_26LogMessagePatternFormatter9ConverterEEESaIS5_EE19_M_get_Tp_allocatorEv@Base 2.1.0
 _ZNKSt9__cxx199812_Vector_baseIN7blocxx618IntrusiveReferenceINS1_6ThreadEEESaIS4_EE19_M_get_Tp_allocatorEv@Base 2.1.0
 _ZNKSt9__cxx199812_Vector_baseIN7blocxx618IntrusiveReferenceINS1_7ProcessEEESaIS4_EE19_M_get_Tp_allocatorEv@Base 2.1.0
 _ZNKSt9__cxx199812_Vector_baseIN7blocxx65ArrayIcEESaIS3_EE19_M_get_Tp_allocatorEv@Base 2.1.0
 _ZNKSt9__cxx199812_Vector_baseIN7blocxx66Select12SelectObjectESaIS3_EE19_M_get_Tp_allocatorEv@Base 2.1.0
 _ZNKSt9__cxx199812_Vector_baseIN7blocxx66StringESaIS2_EE19_M_get_Tp_allocatorEv@Base 2.1.0
 _ZNKSt9__cxx199812_Vector_baseIN7blocxx69PerlRegEx7match_tESaIS3_EE19_M_get_Tp_allocatorEv@Base 2.1.0
 _ZNKSt9__cxx199812_Vector_baseIPKcSaIS2_EE19_M_get_Tp_allocatorEv@Base 2.1.0
 _ZNKSt9__cxx199812_Vector_baseISt4pairIN7blocxx66StringENS2_17EFileStatusReturnEESaIS5_EE19_M_get_Tp_allocatorEv@Base 2.1.0
 _ZNKSt9__cxx199812_Vector_baseISt4pairIiN7blocxx612SelectEngine4DataEESaIS5_EE19_M_get_Tp_allocatorEv@Base 2.1.0
 _ZNKSt9__cxx199812_Vector_baseISt4pairIiN7blocxx65ArrayINS2_6StringEEEESaIS6_EE19_M_get_Tp_allocatorEv@Base 2.1.0
 _ZNKSt9__cxx199812_Vector_baseIcSaIcEE19_M_get_Tp_allocatorEv@Base 2.1.0
 _ZNKSt9__cxx199812_Vector_baseIhSaIhEE19_M_get_Tp_allocatorEv@Base 2.1.0
 _ZNKSt9__cxx199812_Vector_baseIiSaIiEE19_M_get_Tp_allocatorEv@Base 2.1.0
 _ZNKSt9__cxx199812_Vector_baseItSaItEE19_M_get_Tp_allocatorEv@Base 2.1.0
 _ZNKSt9__cxx199814_Bit_referencecvbEv@Base 2.1.0
 _ZNKSt9__cxx199815_Deque_iteratorIN7blocxx618IntrusiveReferenceINS1_8RunnableEEERS4_PS4_EdeEv@Base 2.1.0
 _ZNKSt9__cxx199819_Bit_const_iteratordeEv@Base 2.1.0
 _ZNKSt9__cxx19983mapIN7blocxx66StringENS1_13SSLTrustStore8UserInfoESt4lessIS2_ESaISt4pairIKS2_S4_EEE3endEv@Base 2.1.0
 _ZNKSt9__cxx19983mapIN7blocxx66StringENS1_13SSLTrustStore8UserInfoESt4lessIS2_ESaISt4pairIKS2_S4_EEE4sizeEv@Base 2.1.0
 _ZNKSt9__cxx19983mapIN7blocxx66StringENS1_13SSLTrustStore8UserInfoESt4lessIS2_ESaISt4pairIKS2_S4_EEE5beginEv@Base 2.1.0
 _ZNKSt9__cxx19983mapIN7blocxx66StringENS1_13SSLTrustStore8UserInfoESt4lessIS2_ESaISt4pairIKS2_S4_EEE8key_compEv@Base 2.1.0
 _ZNKSt9__cxx19983mapIN7blocxx66StringES2_St4lessIS2_ESaISt4pairIKS2_S2_EEE3endEv@Base 2.1.0
 _ZNKSt9__cxx19983mapIN7blocxx66StringES2_St4lessIS2_ESaISt4pairIKS2_S2_EEE4findERS6_@Base 2.1.0
 _ZNKSt9__cxx19983mapIN7blocxx66StringES2_St4lessIS2_ESaISt4pairIKS2_S2_EEE4sizeEv@Base 2.1.0
 _ZNKSt9__cxx19983mapIN7blocxx66StringES2_St4lessIS2_ESaISt4pairIKS2_S2_EEE5beginEv@Base 2.1.0
 _ZNKSt9__cxx19983mapIN7blocxx66StringES2_St4lessIS2_ESaISt4pairIKS2_S2_EEE8key_compEv@Base 2.1.0
 _ZNKSt9__cxx19983mapIiiSt4lessIiESaISt4pairIKiiEEE8key_compEv@Base 2.1.0
 _ZNKSt9__cxx19983mapImN7blocxx617GenericRWLockImplImNS1_8RWLocker14ThreadComparerEE10LockerInfoES4_SaISt4pairIKmS6_EEE3endEv@Base 2.1.0
 _ZNKSt9__cxx19983mapImN7blocxx617GenericRWLockImplImNS1_8RWLocker14ThreadComparerEE10LockerInfoES4_SaISt4pairIKmS6_EEE5beginEv@Base 2.1.0
 _ZNKSt9__cxx19985dequeIN7blocxx618IntrusiveReferenceINS1_8RunnableEEESaIS4_EE4sizeEv@Base 2.1.0
 _ZNKSt9__cxx19985dequeIN7blocxx618IntrusiveReferenceINS1_8RunnableEEESaIS4_EE5emptyEv@Base 2.1.0
 _ZNKSt9__cxx19986vectorI10regmatch_tSaIS1_EE12_M_check_lenEmPKc@Base 2.1.0
 _ZNKSt9__cxx19986vectorI10regmatch_tSaIS1_EE3endEv@Base 2.1.0
 _ZNKSt9__cxx19986vectorI10regmatch_tSaIS1_EE4sizeEv@Base 2.1.0
 _ZNKSt9__cxx19986vectorI10regmatch_tSaIS1_EE5beginEv@Base 2.1.0
 _ZNKSt9__cxx19986vectorI10regmatch_tSaIS1_EE5emptyEv@Base 2.1.0
 _ZNKSt9__cxx19986vectorI10regmatch_tSaIS1_EE8capacityEv@Base 2.1.0
 _ZNKSt9__cxx19986vectorI10regmatch_tSaIS1_EE8max_sizeEv@Base 2.1.0
 _ZNKSt9__cxx19986vectorI10regmatch_tSaIS1_EEixEm@Base 2.1.0
 _ZNKSt9__cxx19986vectorIN7blocxx618IntrusiveReferenceINS1_11LogAppenderEEESaIS4_EE12_M_check_lenEmPKc@Base 2.1.0
 _ZNKSt9__cxx19986vectorIN7blocxx618IntrusiveReferenceINS1_11LogAppenderEEESaIS4_EE3endEv@Base 2.1.0
 _ZNKSt9__cxx19986vectorIN7blocxx618IntrusiveReferenceINS1_11LogAppenderEEESaIS4_EE4sizeEv@Base 2.1.0
 _ZNKSt9__cxx19986vectorIN7blocxx618IntrusiveReferenceINS1_11LogAppenderEEESaIS4_EE5beginEv@Base 2.1.0
 _ZNKSt9__cxx19986vectorIN7blocxx618IntrusiveReferenceINS1_11LogAppenderEEESaIS4_EE8capacityEv@Base 2.1.0
 _ZNKSt9__cxx19986vectorIN7blocxx618IntrusiveReferenceINS1_11LogAppenderEEESaIS4_EE8max_sizeEv@Base 2.1.0
 _ZNKSt9__cxx19986vectorIN7blocxx618IntrusiveReferenceINS1_11LogAppenderEEESaIS4_EEixEm@Base 2.1.0
 _ZNKSt9__cxx19986vectorIN7blocxx618IntrusiveReferenceINS1_26LogMessagePatternFormatter9ConverterEEESaIS5_EE12_M_check_lenEmPKc@Base 2.1.0
 _ZNKSt9__cxx19986vectorIN7blocxx618IntrusiveReferenceINS1_26LogMessagePatternFormatter9ConverterEEESaIS5_EE3endEv@Base 2.1.0
 _ZNKSt9__cxx19986vectorIN7blocxx618IntrusiveReferenceINS1_26LogMessagePatternFormatter9ConverterEEESaIS5_EE4sizeEv@Base 2.1.0
 _ZNKSt9__cxx19986vectorIN7blocxx618IntrusiveReferenceINS1_26LogMessagePatternFormatter9ConverterEEESaIS5_EE5beginEv@Base 2.1.0
 _ZNKSt9__cxx19986vectorIN7blocxx618IntrusiveReferenceINS1_26LogMessagePatternFormatter9ConverterEEESaIS5_EE8capacityEv@Base 2.1.0
 _ZNKSt9__cxx19986vectorIN7blocxx618IntrusiveReferenceINS1_26LogMessagePatternFormatter9ConverterEEESaIS5_EE8max_sizeEv@Base 2.1.0
 _ZNKSt9__cxx19986vectorIN7blocxx618IntrusiveReferenceINS1_6ThreadEEESaIS4_EE12_M_check_lenEmPKc@Base 2.1.0
 _ZNKSt9__cxx19986vectorIN7blocxx618IntrusiveReferenceINS1_6ThreadEEESaIS4_EE3endEv@Base 2.1.0
 _ZNKSt9__cxx19986vectorIN7blocxx618IntrusiveReferenceINS1_6ThreadEEESaIS4_EE4sizeEv@Base 2.1.0
 _ZNKSt9__cxx19986vectorIN7blocxx618IntrusiveReferenceINS1_6ThreadEEESaIS4_EE5beginEv@Base 2.1.0
 _ZNKSt9__cxx19986vectorIN7blocxx618IntrusiveReferenceINS1_6ThreadEEESaIS4_EE5emptyEv@Base 2.1.0
 _ZNKSt9__cxx19986vectorIN7blocxx618IntrusiveReferenceINS1_6ThreadEEESaIS4_EE8capacityEv@Base 2.1.0
 _ZNKSt9__cxx19986vectorIN7blocxx618IntrusiveReferenceINS1_6ThreadEEESaIS4_EE8max_sizeEv@Base 2.1.0
 _ZNKSt9__cxx19986vectorIN7blocxx618IntrusiveReferenceINS1_7ProcessEEESaIS4_EE12_M_check_lenEmPKc@Base 2.1.0
 _ZNKSt9__cxx19986vectorIN7blocxx618IntrusiveReferenceINS1_7ProcessEEESaIS4_EE3endEv@Base 2.1.0
 _ZNKSt9__cxx19986vectorIN7blocxx618IntrusiveReferenceINS1_7ProcessEEESaIS4_EE4sizeEv@Base 2.1.0
 _ZNKSt9__cxx19986vectorIN7blocxx618IntrusiveReferenceINS1_7ProcessEEESaIS4_EE5beginEv@Base 2.1.0
 _ZNKSt9__cxx19986vectorIN7blocxx618IntrusiveReferenceINS1_7ProcessEEESaIS4_EE8capacityEv@Base 2.1.0
 _ZNKSt9__cxx19986vectorIN7blocxx618IntrusiveReferenceINS1_7ProcessEEESaIS4_EE8max_sizeEv@Base 2.1.0
 _ZNKSt9__cxx19986vectorIN7blocxx65ArrayIcEESaIS3_EE3endEv@Base 2.1.0
 _ZNKSt9__cxx19986vectorIN7blocxx65ArrayIcEESaIS3_EE4sizeEv@Base 2.1.0
 _ZNKSt9__cxx19986vectorIN7blocxx65ArrayIcEESaIS3_EE5beginEv@Base 2.1.0
 _ZNKSt9__cxx19986vectorIN7blocxx66Char16ESaIS2_EE4sizeEv@Base 2.1.0
 _ZNKSt9__cxx19986vectorIN7blocxx66Char16ESaIS2_EEixEm@Base 2.1.0
 _ZNKSt9__cxx19986vectorIN7blocxx66Select12SelectObjectESaIS3_EE12_M_check_lenEmPKc@Base 2.1.0
 _ZNKSt9__cxx19986vectorIN7blocxx66Select12SelectObjectESaIS3_EE3endEv@Base 2.1.0
 _ZNKSt9__cxx19986vectorIN7blocxx66Select12SelectObjectESaIS3_EE4sizeEv@Base 2.1.0
 _ZNKSt9__cxx19986vectorIN7blocxx66Select12SelectObjectESaIS3_EE5beginEv@Base 2.1.0
 _ZNKSt9__cxx19986vectorIN7blocxx66Select12SelectObjectESaIS3_EE5emptyEv@Base 2.1.0
 _ZNKSt9__cxx19986vectorIN7blocxx66Select12SelectObjectESaIS3_EE8capacityEv@Base 2.1.0
 _ZNKSt9__cxx19986vectorIN7blocxx66Select12SelectObjectESaIS3_EE8max_sizeEv@Base 2.1.0
 _ZNKSt9__cxx19986vectorIN7blocxx66StringESaIS2_EE12_M_check_lenEmPKc@Base 2.1.0
 _ZNKSt9__cxx19986vectorIN7blocxx66StringESaIS2_EE3endEv@Base 2.1.0
 _ZNKSt9__cxx19986vectorIN7blocxx66StringESaIS2_EE4sizeEv@Base 2.1.0
 _ZNKSt9__cxx19986vectorIN7blocxx66StringESaIS2_EE5beginEv@Base 2.1.0
 _ZNKSt9__cxx19986vectorIN7blocxx66StringESaIS2_EE5emptyEv@Base 2.1.0
 _ZNKSt9__cxx19986vectorIN7blocxx66StringESaIS2_EE8capacityEv@Base 2.1.0
 _ZNKSt9__cxx19986vectorIN7blocxx66StringESaIS2_EE8max_sizeEv@Base 2.1.0
 _ZNKSt9__cxx19986vectorIN7blocxx66StringESaIS2_EEixEm@Base 2.1.0
 _ZNKSt9__cxx19986vectorIN7blocxx69PerlRegEx7match_tESaIS3_EE12_M_check_lenEmPKc@Base 2.1.0
 _ZNKSt9__cxx19986vectorIN7blocxx69PerlRegEx7match_tESaIS3_EE3endEv@Base 2.1.0
 _ZNKSt9__cxx19986vectorIN7blocxx69PerlRegEx7match_tESaIS3_EE4sizeEv@Base 2.1.0
 _ZNKSt9__cxx19986vectorIN7blocxx69PerlRegEx7match_tESaIS3_EE5beginEv@Base 2.1.0
 _ZNKSt9__cxx19986vectorIN7blocxx69PerlRegEx7match_tESaIS3_EE5emptyEv@Base 2.1.0
 _ZNKSt9__cxx19986vectorIN7blocxx69PerlRegEx7match_tESaIS3_EE8capacityEv@Base 2.1.0
 _ZNKSt9__cxx19986vectorIN7blocxx69PerlRegEx7match_tESaIS3_EE8max_sizeEv@Base 2.1.0
 _ZNKSt9__cxx19986vectorIN7blocxx69PerlRegEx7match_tESaIS3_EEixEm@Base 2.1.0
 _ZNKSt9__cxx19986vectorIN7blocxx69ReferenceINS1_22DelayedFormatInternals26DelayedFormatReferenceBaseEEESaIS5_EE4sizeEv@Base 2.1.0
 _ZNKSt9__cxx19986vectorIN7blocxx69ReferenceINS1_22DelayedFormatInternals26DelayedFormatReferenceBaseEEESaIS5_EEixEm@Base 2.1.0
 _ZNKSt9__cxx19986vectorIPKcSaIS2_EE12_M_check_lenEmS2_@Base 2.1.0
 _ZNKSt9__cxx19986vectorIPKcSaIS2_EE3endEv@Base 2.1.0
 _ZNKSt9__cxx19986vectorIPKcSaIS2_EE4sizeEv@Base 2.1.0
 _ZNKSt9__cxx19986vectorIPKcSaIS2_EE5beginEv@Base 2.1.0
 _ZNKSt9__cxx19986vectorIPKcSaIS2_EE8capacityEv@Base 2.1.0
 _ZNKSt9__cxx19986vectorIPKcSaIS2_EE8max_sizeEv@Base 2.1.0
 _ZNKSt9__cxx19986vectorISt4pairIN7blocxx66StringENS2_17EFileStatusReturnEESaIS5_EE12_M_check_lenEmPKc@Base 2.1.0
 _ZNKSt9__cxx19986vectorISt4pairIN7blocxx66StringENS2_17EFileStatusReturnEESaIS5_EE3endEv@Base 2.1.0
 _ZNKSt9__cxx19986vectorISt4pairIN7blocxx66StringENS2_17EFileStatusReturnEESaIS5_EE4sizeEv@Base 2.1.0
 _ZNKSt9__cxx19986vectorISt4pairIN7blocxx66StringENS2_17EFileStatusReturnEESaIS5_EE5beginEv@Base 2.1.0
 _ZNKSt9__cxx19986vectorISt4pairIN7blocxx66StringENS2_17EFileStatusReturnEESaIS5_EE8capacityEv@Base 2.1.0
 _ZNKSt9__cxx19986vectorISt4pairIN7blocxx66StringENS2_17EFileStatusReturnEESaIS5_EE8max_sizeEv@Base 2.1.0
 _ZNKSt9__cxx19986vectorISt4pairIN7blocxx66StringES3_ESaIS4_EE3endEv@Base 2.1.0
 _ZNKSt9__cxx19986vectorISt4pairIN7blocxx66StringES3_ESaIS4_EE5beginEv@Base 2.1.0
 _ZNKSt9__cxx19986vectorISt4pairIiN7blocxx612SelectEngine4DataEESaIS5_EE12_M_check_lenEmPKc@Base 2.1.0
 _ZNKSt9__cxx19986vectorISt4pairIiN7blocxx612SelectEngine4DataEESaIS5_EE3endEv@Base 2.1.0
 _ZNKSt9__cxx19986vectorISt4pairIiN7blocxx612SelectEngine4DataEESaIS5_EE4sizeEv@Base 2.1.0
 _ZNKSt9__cxx19986vectorISt4pairIiN7blocxx612SelectEngine4DataEESaIS5_EE5beginEv@Base 2.1.0
 _ZNKSt9__cxx19986vectorISt4pairIiN7blocxx612SelectEngine4DataEESaIS5_EE8capacityEv@Base 2.1.0
 _ZNKSt9__cxx19986vectorISt4pairIiN7blocxx612SelectEngine4DataEESaIS5_EE8max_sizeEv@Base 2.1.0
 _ZNKSt9__cxx19986vectorISt4pairIiN7blocxx65ArrayINS2_6StringEEEESaIS6_EE12_M_check_lenEmPKc@Base 2.1.0
 _ZNKSt9__cxx19986vectorISt4pairIiN7blocxx65ArrayINS2_6StringEEEESaIS6_EE3endEv@Base 2.1.0
 _ZNKSt9__cxx19986vectorISt4pairIiN7blocxx65ArrayINS2_6StringEEEESaIS6_EE4sizeEv@Base 2.1.0
 _ZNKSt9__cxx19986vectorISt4pairIiN7blocxx65ArrayINS2_6StringEEEESaIS6_EE5beginEv@Base 2.1.0
 _ZNKSt9__cxx19986vectorISt4pairIiN7blocxx65ArrayINS2_6StringEEEESaIS6_EE8capacityEv@Base 2.1.0
 _ZNKSt9__cxx19986vectorISt4pairIiN7blocxx65ArrayINS2_6StringEEEESaIS6_EE8max_sizeEv@Base 2.1.0
 _ZNKSt9__cxx19986vectorIbSaIbEE3endEv@Base 2.1.0
 _ZNKSt9__cxx19986vectorIbSaIbEE4sizeEv@Base 2.1.0
 _ZNKSt9__cxx19986vectorIbSaIbEE5beginEv@Base 2.1.0
 _ZNKSt9__cxx19986vectorIbSaIbEEixEm@Base 2.1.0
 _ZNKSt9__cxx19986vectorIcSaIcEE12_M_check_lenEmPKc@Base 2.1.0
 _ZNKSt9__cxx19986vectorIcSaIcEE3endEv@Base 2.1.0
 _ZNKSt9__cxx19986vectorIcSaIcEE4sizeEv@Base 2.1.0
 _ZNKSt9__cxx19986vectorIcSaIcEE5beginEv@Base 2.1.0
 _ZNKSt9__cxx19986vectorIcSaIcEE5emptyEv@Base 2.1.0
 _ZNKSt9__cxx19986vectorIcSaIcEE8capacityEv@Base 2.1.0
 _ZNKSt9__cxx19986vectorIcSaIcEE8max_sizeEv@Base 2.1.0
 _ZNKSt9__cxx19986vectorIcSaIcEEixEm@Base 2.1.0
 _ZNKSt9__cxx19986vectorIhSaIhEE12_M_check_lenEmPKc@Base 2.1.0
 _ZNKSt9__cxx19986vectorIhSaIhEE3endEv@Base 2.1.0
 _ZNKSt9__cxx19986vectorIhSaIhEE4sizeEv@Base 2.1.0
 _ZNKSt9__cxx19986vectorIhSaIhEE5beginEv@Base 2.1.0
 _ZNKSt9__cxx19986vectorIhSaIhEE8capacityEv@Base 2.1.0
 _ZNKSt9__cxx19986vectorIhSaIhEE8max_sizeEv@Base 2.1.0
 _ZNKSt9__cxx19986vectorIiSaIiEE12_M_check_lenEmPKc@Base 2.1.0
 _ZNKSt9__cxx19986vectorIiSaIiEE3endEv@Base 2.1.0
 _ZNKSt9__cxx19986vectorIiSaIiEE4sizeEv@Base 2.1.0
 _ZNKSt9__cxx19986vectorIiSaIiEE5beginEv@Base 2.1.0
 _ZNKSt9__cxx19986vectorIiSaIiEE8capacityEv@Base 2.1.0
 _ZNKSt9__cxx19986vectorIiSaIiEE8max_sizeEv@Base 2.1.0
 _ZNKSt9__cxx19986vectorIiSaIiEEixEm@Base 2.1.0
 _ZNKSt9__cxx19986vectorItSaItEE12_M_check_lenEmPKc@Base 2.1.0
 _ZNKSt9__cxx19986vectorItSaItEE3endEv@Base 2.1.0
 _ZNKSt9__cxx19986vectorItSaItEE4sizeEv@Base 2.1.0
 _ZNKSt9__cxx19986vectorItSaItEE5beginEv@Base 2.1.0
 _ZNKSt9__cxx19986vectorItSaItEE5emptyEv@Base 2.1.0
 _ZNKSt9__cxx19986vectorItSaItEE8capacityEv@Base 2.1.0
 _ZNKSt9__cxx19986vectorItSaItEE8max_sizeEv@Base 2.1.0
 _ZNKSt9__cxx19986vectorItSaItEEixEm@Base 2.1.0
 _ZNKSt9basic_iosIcSt11char_traitsIcEE10exceptionsEv@Base 2.1.0
 _ZNKSt9basic_iosIcSt11char_traitsIcEE3tieEv@Base 2.1.0
 _ZNKSt9basic_iosIcSt11char_traitsIcEE4failEv@Base 2.1.0
 _ZNKSt9basic_iosIcSt11char_traitsIcEE4fillEv@Base 2.1.0
 _ZNKSt9basic_iosIcSt11char_traitsIcEE4goodEv@Base 2.1.0
 _ZNKSt9basic_iosIcSt11char_traitsIcEE5rdbufEv@Base 2.1.0
 _ZNKSt9basic_iosIcSt11char_traitsIcEE5widenEc@Base 2.1.0
 _ZNKSt9basic_iosIcSt11char_traitsIcEE7rdstateEv@Base 2.1.0
 _ZNKSt9basic_iosIcSt11char_traitsIcEEcvPvEv@Base 2.1.0
 _ZNKSt9basic_iosIcSt11char_traitsIcEEntEv@Base 2.1.0
 _ZNSaI10regmatch_tEC1ERKS0_@Base 2.1.0
 _ZNSaI10regmatch_tEC1Ev@Base 2.1.0
 _ZNSaI10regmatch_tEC2ERKS0_@Base 2.1.0
 _ZNSaI10regmatch_tEC2Ev@Base 2.1.0
 _ZNSaI10regmatch_tED1Ev@Base 2.1.0
 _ZNSaI10regmatch_tED2Ev@Base 2.1.0
 _ZNSaIN7blocxx618IntrusiveReferenceINS_11LogAppenderEEEEC1ERKS3_@Base 2.1.0
 _ZNSaIN7blocxx618IntrusiveReferenceINS_11LogAppenderEEEEC1Ev@Base 2.1.0
 _ZNSaIN7blocxx618IntrusiveReferenceINS_11LogAppenderEEEEC2ERKS3_@Base 2.1.0
 _ZNSaIN7blocxx618IntrusiveReferenceINS_11LogAppenderEEEEC2Ev@Base 2.1.0
 _ZNSaIN7blocxx618IntrusiveReferenceINS_11LogAppenderEEEED1Ev@Base 2.1.0
 _ZNSaIN7blocxx618IntrusiveReferenceINS_11LogAppenderEEEED2Ev@Base 2.1.0
 _ZNSaIN7blocxx618IntrusiveReferenceINS_26LogMessagePatternFormatter9ConverterEEEEC1ERKS4_@Base 2.1.0
 _ZNSaIN7blocxx618IntrusiveReferenceINS_26LogMessagePatternFormatter9ConverterEEEEC1Ev@Base 2.1.0
 _ZNSaIN7blocxx618IntrusiveReferenceINS_26LogMessagePatternFormatter9ConverterEEEEC2ERKS4_@Base 2.1.0
 _ZNSaIN7blocxx618IntrusiveReferenceINS_26LogMessagePatternFormatter9ConverterEEEEC2Ev@Base 2.1.0
 _ZNSaIN7blocxx618IntrusiveReferenceINS_26LogMessagePatternFormatter9ConverterEEEED1Ev@Base 2.1.0
 _ZNSaIN7blocxx618IntrusiveReferenceINS_26LogMessagePatternFormatter9ConverterEEEED2Ev@Base 2.1.0
 _ZNSaIN7blocxx618IntrusiveReferenceINS_6ThreadEEEEC1ERKS3_@Base 2.1.0
 _ZNSaIN7blocxx618IntrusiveReferenceINS_6ThreadEEEEC1Ev@Base 2.1.0
 _ZNSaIN7blocxx618IntrusiveReferenceINS_6ThreadEEEEC2ERKS3_@Base 2.1.0
 _ZNSaIN7blocxx618IntrusiveReferenceINS_6ThreadEEEEC2Ev@Base 2.1.0
 _ZNSaIN7blocxx618IntrusiveReferenceINS_6ThreadEEEED1Ev@Base 2.1.0
 _ZNSaIN7blocxx618IntrusiveReferenceINS_6ThreadEEEED2Ev@Base 2.1.0
 _ZNSaIN7blocxx618IntrusiveReferenceINS_7ProcessEEEEC1ERKS3_@Base 2.1.0
 _ZNSaIN7blocxx618IntrusiveReferenceINS_7ProcessEEEEC1Ev@Base 2.1.0
 _ZNSaIN7blocxx618IntrusiveReferenceINS_7ProcessEEEEC2ERKS3_@Base 2.1.0
 _ZNSaIN7blocxx618IntrusiveReferenceINS_7ProcessEEEEC2Ev@Base 2.1.0
 _ZNSaIN7blocxx618IntrusiveReferenceINS_7ProcessEEEED1Ev@Base 2.1.0
 _ZNSaIN7blocxx618IntrusiveReferenceINS_7ProcessEEEED2Ev@Base 2.1.0
 _ZNSaIN7blocxx618IntrusiveReferenceINS_8RunnableEEEEC1ERKS3_@Base 2.1.0
 _ZNSaIN7blocxx618IntrusiveReferenceINS_8RunnableEEEEC1Ev@Base 2.1.0
 _ZNSaIN7blocxx618IntrusiveReferenceINS_8RunnableEEEEC2ERKS3_@Base 2.1.0
 _ZNSaIN7blocxx618IntrusiveReferenceINS_8RunnableEEEEC2Ev@Base 2.1.0
 _ZNSaIN7blocxx618IntrusiveReferenceINS_8RunnableEEEED1Ev@Base 2.1.0
 _ZNSaIN7blocxx618IntrusiveReferenceINS_8RunnableEEEED2Ev@Base 2.1.0
 _ZNSaIN7blocxx65ArrayIcEEEC1ERKS2_@Base 2.1.0
 _ZNSaIN7blocxx65ArrayIcEEEC1Ev@Base 2.1.0
 _ZNSaIN7blocxx65ArrayIcEEEC2ERKS2_@Base 2.1.0
 _ZNSaIN7blocxx65ArrayIcEEEC2Ev@Base 2.1.0
 _ZNSaIN7blocxx65ArrayIcEEED1Ev@Base 2.1.0
 _ZNSaIN7blocxx65ArrayIcEEED2Ev@Base 2.1.0
 _ZNSaIN7blocxx66Select12SelectObjectEEC1ERKS2_@Base 2.1.0
 _ZNSaIN7blocxx66Select12SelectObjectEEC1Ev@Base 2.1.0
 _ZNSaIN7blocxx66Select12SelectObjectEEC2ERKS2_@Base 2.1.0
 _ZNSaIN7blocxx66Select12SelectObjectEEC2Ev@Base 2.1.0
 _ZNSaIN7blocxx66Select12SelectObjectEED1Ev@Base 2.1.0
 _ZNSaIN7blocxx66Select12SelectObjectEED2Ev@Base 2.1.0
 _ZNSaIN7blocxx66StringEEC1ERKS1_@Base 2.1.0
 _ZNSaIN7blocxx66StringEEC1Ev@Base 2.1.0
 _ZNSaIN7blocxx66StringEEC2ERKS1_@Base 2.1.0
 _ZNSaIN7blocxx66StringEEC2Ev@Base 2.1.0
 _ZNSaIN7blocxx66StringEED1Ev@Base 2.1.0
 _ZNSaIN7blocxx66StringEED2Ev@Base 2.1.0
 _ZNSaIN7blocxx69PerlRegEx7match_tEEC1ERKS2_@Base 2.1.0
 _ZNSaIN7blocxx69PerlRegEx7match_tEEC1Ev@Base 2.1.0
 _ZNSaIN7blocxx69PerlRegEx7match_tEEC2ERKS2_@Base 2.1.0
 _ZNSaIN7blocxx69PerlRegEx7match_tEEC2Ev@Base 2.1.0
 _ZNSaIN7blocxx69PerlRegEx7match_tEED1Ev@Base 2.1.0
 _ZNSaIN7blocxx69PerlRegEx7match_tEED2Ev@Base 2.1.0
 _ZNSaIN7blocxx69ReferenceINS_22DelayedFormatInternals26DelayedFormatReferenceBaseEEEEC1ERKS4_@Base 2.1.0
 _ZNSaIN7blocxx69ReferenceINS_22DelayedFormatInternals26DelayedFormatReferenceBaseEEEEC1Ev@Base 2.1.0
 _ZNSaIN7blocxx69ReferenceINS_22DelayedFormatInternals26DelayedFormatReferenceBaseEEEEC2ERKS4_@Base 2.1.0
 _ZNSaIN7blocxx69ReferenceINS_22DelayedFormatInternals26DelayedFormatReferenceBaseEEEEC2Ev@Base 2.1.0
 _ZNSaIN7blocxx69ReferenceINS_22DelayedFormatInternals26DelayedFormatReferenceBaseEEEED1Ev@Base 2.1.0
 _ZNSaIN7blocxx69ReferenceINS_22DelayedFormatInternals26DelayedFormatReferenceBaseEEEED2Ev@Base 2.1.0
 _ZNSaIPKcEC1ERKS1_@Base 2.1.0
 _ZNSaIPKcEC1Ev@Base 2.1.0
 _ZNSaIPKcEC2ERKS1_@Base 2.1.0
 _ZNSaIPKcEC2Ev@Base 2.1.0
 _ZNSaIPKcED1Ev@Base 2.1.0
 _ZNSaIPKcED2Ev@Base 2.1.0
 _ZNSaIPN7blocxx618IntrusiveReferenceINS_8RunnableEEEEC1IS2_EERKSaIT_E@Base 2.1.0
 _ZNSaIPN7blocxx618IntrusiveReferenceINS_8RunnableEEEEC2IS2_EERKSaIT_E@Base 2.1.0
 _ZNSaIPN7blocxx618IntrusiveReferenceINS_8RunnableEEEED1Ev@Base 2.1.0
 _ZNSaIPN7blocxx618IntrusiveReferenceINS_8RunnableEEEED2Ev@Base 2.1.0
 _ZNSaISt13_Rb_tree_nodeISt4pairIKN7blocxx66StringENS1_13SSLTrustStore8UserInfoEEEEC1ERKS8_@Base 2.1.0
 _ZNSaISt13_Rb_tree_nodeISt4pairIKN7blocxx66StringENS1_13SSLTrustStore8UserInfoEEEEC1IS6_EERKSaIT_E@Base 2.1.0
 _ZNSaISt13_Rb_tree_nodeISt4pairIKN7blocxx66StringENS1_13SSLTrustStore8UserInfoEEEEC2ERKS8_@Base 2.1.0
 _ZNSaISt13_Rb_tree_nodeISt4pairIKN7blocxx66StringENS1_13SSLTrustStore8UserInfoEEEEC2IS6_EERKSaIT_E@Base 2.1.0
 _ZNSaISt13_Rb_tree_nodeISt4pairIKN7blocxx66StringENS1_13SSLTrustStore8UserInfoEEEED1Ev@Base 2.1.0
 _ZNSaISt13_Rb_tree_nodeISt4pairIKN7blocxx66StringENS1_13SSLTrustStore8UserInfoEEEED2Ev@Base 2.1.0
 _ZNSaISt13_Rb_tree_nodeISt4pairIKN7blocxx66StringES2_EEEC1ERKS6_@Base 2.1.0
 _ZNSaISt13_Rb_tree_nodeISt4pairIKN7blocxx66StringES2_EEEC1IS4_EERKSaIT_E@Base 2.1.0
 _ZNSaISt13_Rb_tree_nodeISt4pairIKN7blocxx66StringES2_EEEC2ERKS6_@Base 2.1.0
 _ZNSaISt13_Rb_tree_nodeISt4pairIKN7blocxx66StringES2_EEEC2IS4_EERKSaIT_E@Base 2.1.0
 _ZNSaISt13_Rb_tree_nodeISt4pairIKN7blocxx66StringES2_EEED1Ev@Base 2.1.0
 _ZNSaISt13_Rb_tree_nodeISt4pairIKN7blocxx66StringES2_EEED2Ev@Base 2.1.0
 _ZNSaISt13_Rb_tree_nodeISt4pairIKiiEEEC1ERKS4_@Base 2.1.0
 _ZNSaISt13_Rb_tree_nodeISt4pairIKiiEEEC1IS2_EERKSaIT_E@Base 2.1.0
 _ZNSaISt13_Rb_tree_nodeISt4pairIKiiEEEC2ERKS4_@Base 2.1.0
 _ZNSaISt13_Rb_tree_nodeISt4pairIKiiEEEC2IS2_EERKSaIT_E@Base 2.1.0
 _ZNSaISt13_Rb_tree_nodeISt4pairIKiiEEED1Ev@Base 2.1.0
 _ZNSaISt13_Rb_tree_nodeISt4pairIKiiEEED2Ev@Base 2.1.0
 _ZNSaISt13_Rb_tree_nodeISt4pairIKmN7blocxx617GenericRWLockImplImNS2_8RWLocker14ThreadComparerEE10LockerInfoEEEEC1ERKSA_@Base 2.1.0
 _ZNSaISt13_Rb_tree_nodeISt4pairIKmN7blocxx617GenericRWLockImplImNS2_8RWLocker14ThreadComparerEE10LockerInfoEEEEC1IS8_EERKSaIT_E@Base 2.1.0
 _ZNSaISt13_Rb_tree_nodeISt4pairIKmN7blocxx617GenericRWLockImplImNS2_8RWLocker14ThreadComparerEE10LockerInfoEEEEC2ERKSA_@Base 2.1.0
 _ZNSaISt13_Rb_tree_nodeISt4pairIKmN7blocxx617GenericRWLockImplImNS2_8RWLocker14ThreadComparerEE10LockerInfoEEEEC2IS8_EERKSaIT_E@Base 2.1.0
 _ZNSaISt13_Rb_tree_nodeISt4pairIKmN7blocxx617GenericRWLockImplImNS2_8RWLocker14ThreadComparerEE10LockerInfoEEEED1Ev@Base 2.1.0
 _ZNSaISt13_Rb_tree_nodeISt4pairIKmN7blocxx617GenericRWLockImplImNS2_8RWLocker14ThreadComparerEE10LockerInfoEEEED2Ev@Base 2.1.0
 _ZNSaISt4pairIKN7blocxx66StringENS0_13SSLTrustStore8UserInfoEEEC1Ev@Base 2.1.0
 _ZNSaISt4pairIKN7blocxx66StringENS0_13SSLTrustStore8UserInfoEEEC1ISt13_Rb_tree_nodeIS5_EEERKSaIT_E@Base 2.1.0
 _ZNSaISt4pairIKN7blocxx66StringENS0_13SSLTrustStore8UserInfoEEEC2Ev@Base 2.1.0
 _ZNSaISt4pairIKN7blocxx66StringENS0_13SSLTrustStore8UserInfoEEEC2ISt13_Rb_tree_nodeIS5_EEERKSaIT_E@Base 2.1.0
 _ZNSaISt4pairIKN7blocxx66StringENS0_13SSLTrustStore8UserInfoEEED1Ev@Base 2.1.0
 _ZNSaISt4pairIKN7blocxx66StringENS0_13SSLTrustStore8UserInfoEEED2Ev@Base 2.1.0
 _ZNSaISt4pairIKN7blocxx66StringES1_EEC1Ev@Base 2.1.0
 _ZNSaISt4pairIKN7blocxx66StringES1_EEC1ISt13_Rb_tree_nodeIS3_EEERKSaIT_E@Base 2.1.0
 _ZNSaISt4pairIKN7blocxx66StringES1_EEC2Ev@Base 2.1.0
 _ZNSaISt4pairIKN7blocxx66StringES1_EEC2ISt13_Rb_tree_nodeIS3_EEERKSaIT_E@Base 2.1.0
 _ZNSaISt4pairIKN7blocxx66StringES1_EED1Ev@Base 2.1.0
 _ZNSaISt4pairIKN7blocxx66StringES1_EED2Ev@Base 2.1.0
 _ZNSaISt4pairIKiiEEC1Ev@Base 2.1.0
 _ZNSaISt4pairIKiiEEC1ISt13_Rb_tree_nodeIS1_EEERKSaIT_E@Base 2.1.0
 _ZNSaISt4pairIKiiEEC2Ev@Base 2.1.0
 _ZNSaISt4pairIKiiEEC2ISt13_Rb_tree_nodeIS1_EEERKSaIT_E@Base 2.1.0
 _ZNSaISt4pairIKiiEED1Ev@Base 2.1.0
 _ZNSaISt4pairIKiiEED2Ev@Base 2.1.0
 _ZNSaISt4pairIKmN7blocxx617GenericRWLockImplImNS1_8RWLocker14ThreadComparerEE10LockerInfoEEEC1Ev@Base 2.1.0
 _ZNSaISt4pairIKmN7blocxx617GenericRWLockImplImNS1_8RWLocker14ThreadComparerEE10LockerInfoEEEC1ISt13_Rb_tree_nodeIS7_EEERKSaIT_E@Base 2.1.0
 _ZNSaISt4pairIKmN7blocxx617GenericRWLockImplImNS1_8RWLocker14ThreadComparerEE10LockerInfoEEEC2Ev@Base 2.1.0
 _ZNSaISt4pairIKmN7blocxx617GenericRWLockImplImNS1_8RWLocker14ThreadComparerEE10LockerInfoEEEC2ISt13_Rb_tree_nodeIS7_EEERKSaIT_E@Base 2.1.0
 _ZNSaISt4pairIKmN7blocxx617GenericRWLockImplImNS1_8RWLocker14ThreadComparerEE10LockerInfoEEED1Ev@Base 2.1.0
 _ZNSaISt4pairIKmN7blocxx617GenericRWLockImplImNS1_8RWLocker14ThreadComparerEE10LockerInfoEEED2Ev@Base 2.1.0
 _ZNSaISt4pairIN7blocxx66StringENS0_17EFileStatusReturnEEEC1ERKS4_@Base 2.1.0
 _ZNSaISt4pairIN7blocxx66StringENS0_17EFileStatusReturnEEEC1Ev@Base 2.1.0
 _ZNSaISt4pairIN7blocxx66StringENS0_17EFileStatusReturnEEEC2ERKS4_@Base 2.1.0
 _ZNSaISt4pairIN7blocxx66StringENS0_17EFileStatusReturnEEEC2Ev@Base 2.1.0
 _ZNSaISt4pairIN7blocxx66StringENS0_17EFileStatusReturnEEED1Ev@Base 2.1.0
 _ZNSaISt4pairIN7blocxx66StringENS0_17EFileStatusReturnEEED2Ev@Base 2.1.0
 _ZNSaISt4pairIiN7blocxx612SelectEngine4DataEEEC1ERKS4_@Base 2.1.0
 _ZNSaISt4pairIiN7blocxx612SelectEngine4DataEEEC2ERKS4_@Base 2.1.0
 _ZNSaISt4pairIiN7blocxx612SelectEngine4DataEEED1Ev@Base 2.1.0
 _ZNSaISt4pairIiN7blocxx612SelectEngine4DataEEED2Ev@Base 2.1.0
 _ZNSaISt4pairIiN7blocxx65ArrayINS0_6StringEEEEEC1ERKS5_@Base 2.1.0
 _ZNSaISt4pairIiN7blocxx65ArrayINS0_6StringEEEEEC1Ev@Base 2.1.0
 _ZNSaISt4pairIiN7blocxx65ArrayINS0_6StringEEEEEC2ERKS5_@Base 2.1.0
 _ZNSaISt4pairIiN7blocxx65ArrayINS0_6StringEEEEEC2Ev@Base 2.1.0
 _ZNSaISt4pairIiN7blocxx65ArrayINS0_6StringEEEEED1Ev@Base 2.1.0
 _ZNSaISt4pairIiN7blocxx65ArrayINS0_6StringEEEEED2Ev@Base 2.1.0
 _ZNSaIbEC1Ev@Base 2.1.0
 _ZNSaIbEC2Ev@Base 2.1.0
 _ZNSaIbED1Ev@Base 2.1.0
 _ZNSaIbED2Ev@Base 2.1.0
 _ZNSaIcEC1ERKS_@Base 2.1.0
 _ZNSaIcEC1Ev@Base 2.1.0
 _ZNSaIcEC1IwEERKSaIT_E@Base 2.1.0
 _ZNSaIcEC2ERKS_@Base 2.1.0
 _ZNSaIcEC2Ev@Base 2.1.0
 _ZNSaIcEC2IwEERKSaIT_E@Base 2.1.0
 _ZNSaIcED1Ev@Base 2.1.0
 _ZNSaIcED2Ev@Base 2.1.0
 _ZNSaIhEC1ERKS_@Base 2.1.0
 _ZNSaIhEC1Ev@Base 2.1.0
 _ZNSaIhEC2ERKS_@Base 2.1.0
 _ZNSaIhEC2Ev@Base 2.1.0
 _ZNSaIhED1Ev@Base 2.1.0
 _ZNSaIhED2Ev@Base 2.1.0
 _ZNSaIiEC1ERKS_@Base 2.1.0
 _ZNSaIiEC2ERKS_@Base 2.1.0
 _ZNSaIiED1Ev@Base 2.1.0
 _ZNSaIiED2Ev@Base 2.1.0
 _ZNSaImEC1ERKS_@Base 2.1.0
 _ZNSaImEC1IbEERKSaIT_E@Base 2.1.0
 _ZNSaImEC2ERKS_@Base 2.1.0
 _ZNSaImEC2IbEERKSaIT_E@Base 2.1.0
 _ZNSaImED1Ev@Base 2.1.0
 _ZNSaImED2Ev@Base 2.1.0
 _ZNSaItEC1ERKS_@Base 2.1.0
 _ZNSaItEC1Ev@Base 2.1.0
 _ZNSaItEC2ERKS_@Base 2.1.0
 _ZNSaItEC2Ev@Base 2.1.0
 _ZNSaItED1Ev@Base 2.1.0
 _ZNSaItED2Ev@Base 2.1.0
 _ZNSaIwEC1ERKS_@Base 2.1.0
 _ZNSaIwEC1Ev@Base 2.1.0
 _ZNSaIwEC2ERKS_@Base 2.1.0
 _ZNSaIwEC2Ev@Base 2.1.0
 _ZNSaIwED1Ev@Base 2.1.0
 _ZNSaIwED2Ev@Base 2.1.0
 _ZNSbIwSt11char_traitsIwESaIwEE12_Alloc_hiderC1EPwRKS1_@Base 2.1.0
 _ZNSbIwSt11char_traitsIwESaIwEE12_Alloc_hiderC2EPwRKS1_@Base 2.1.0
 _ZNSbIwSt11char_traitsIwESaIwEE12_Alloc_hiderD1Ev@Base 2.1.0
 _ZNSbIwSt11char_traitsIwESaIwEE12_Alloc_hiderD2Ev@Base 2.1.0
 _ZNSbIwSt11char_traitsIwESaIwEE12_S_empty_repEv@Base 2.1.0
 _ZNSbIwSt11char_traitsIwESaIwEE4_Rep10_M_destroyERKS1_@Base 2.1.0
 _ZNSbIwSt11char_traitsIwESaIwEE4_Rep10_M_disposeERKS1_@Base 2.1.0
 _ZNSbIwSt11char_traitsIwESaIwEE4_Rep10_M_refcopyEv@Base 2.1.0
 _ZNSbIwSt11char_traitsIwESaIwEE4_Rep10_M_refdataEv@Base 2.1.0
 _ZNSbIwSt11char_traitsIwESaIwEE4_Rep11_S_terminalE@Base 2.1.0
 _ZNSbIwSt11char_traitsIwESaIwEE4_Rep12_S_empty_repEv@Base 2.1.0
 _ZNSbIwSt11char_traitsIwESaIwEE4_Rep15_M_set_sharableEv@Base 2.1.0
 _ZNSbIwSt11char_traitsIwESaIwEE4_Rep20_S_empty_rep_storageE@Base 2.1.0
 _ZNSbIwSt11char_traitsIwESaIwEE4_Rep26_M_set_length_and_sharableEm@Base 2.1.0
 _ZNSbIwSt11char_traitsIwESaIwEE4_Rep7_M_grabERKS1_S5_@Base 2.1.0
 _ZNSbIwSt11char_traitsIwESaIwEE4_Rep8_M_cloneERKS1_m@Base 2.1.0
 _ZNSbIwSt11char_traitsIwESaIwEE4_Rep9_S_createEmmRKS1_@Base 2.1.0
 _ZNSbIwSt11char_traitsIwESaIwEE6appendEPKw@Base 2.1.0
 _ZNSbIwSt11char_traitsIwESaIwEE6appendEPKwm@Base 2.1.0
 _ZNSbIwSt11char_traitsIwESaIwEE7_M_copyEPwPKwm@Base 2.1.0
 _ZNSbIwSt11char_traitsIwESaIwEE7_M_dataEPw@Base 2.1.0
 _ZNSbIwSt11char_traitsIwESaIwEE7reserveEm@Base 2.1.0
 _ZNSbIwSt11char_traitsIwESaIwEEC1ERKS2_@Base 2.1.0
 _ZNSbIwSt11char_traitsIwESaIwEEC1Ev@Base 2.1.0
 _ZNSbIwSt11char_traitsIwESaIwEEC2ERKS2_@Base 2.1.0
 _ZNSbIwSt11char_traitsIwESaIwEEC2Ev@Base 2.1.0
 _ZNSbIwSt11char_traitsIwESaIwEED1Ev@Base 2.1.0
 _ZNSbIwSt11char_traitsIwESaIwEED2Ev@Base 2.1.0
 _ZNSbIwSt11char_traitsIwESaIwEEpLEPKw@Base 2.1.0
 _ZNSdC1EPSt15basic_streambufIcSt11char_traitsIcEE@Base 2.1.0
 _ZNSdC2EPSt15basic_streambufIcSt11char_traitsIcEE@Base 2.1.0
 _ZNSdD0Ev@Base 2.1.0
 _ZNSdD1Ev@Base 2.1.0
 _ZNSdD2Ev@Base 2.1.0
 _ZNSi4readEPcl@Base 2.1.0
 _ZNSi6sentryC1ERSib@Base 2.1.0
 _ZNSi6sentryC2ERSib@Base 2.1.0
 _ZNSiC1EPSt15basic_streambufIcSt11char_traitsIcEE@Base 2.1.0
 _ZNSiC2EPSt15basic_streambufIcSt11char_traitsIcEE@Base 2.1.0
 _ZNSiC2Ev@Base 2.1.0
 _ZNSiD0Ev@Base 2.1.0
 _ZNSiD1Ev@Base 2.1.0
 _ZNSiD2Ev@Base 2.1.0
 _ZNSo3putEc@Base 2.1.0
 _ZNSo5flushEv@Base 2.1.0
 _ZNSo5tellpEv@Base 2.1.0
 _ZNSo5writeEPKcl@Base 2.1.0
 _ZNSo6sentryC1ERSo@Base 2.1.0
 _ZNSo6sentryC2ERSo@Base 2.1.0
 _ZNSo6sentryD1Ev@Base 2.1.0
 _ZNSo6sentryD2Ev@Base 2.1.0
 _ZNSo8_M_writeEPKcl@Base 2.1.0
 _ZNSo9_M_insertIlEERSoT_@Base 2.1.0
 _ZNSo9_M_insertImEERSoT_@Base 2.1.0
 _ZNSo9_M_insertIxEERSoT_@Base 2.1.0
 _ZNSo9_M_insertIyEERSoT_@Base 2.1.0
 _ZNSoC1EPSt15basic_streambufIcSt11char_traitsIcEE@Base 2.1.0
 _ZNSoC2EPSt15basic_streambufIcSt11char_traitsIcEE@Base 2.1.0
 _ZNSoC2Ev@Base 2.1.0
 _ZNSoD0Ev@Base 2.1.0
 _ZNSoD1Ev@Base 2.1.0
 _ZNSoD2Ev@Base 2.1.0
 _ZNSolsEPFRSoS_E@Base 2.1.0
 _ZNSolsEPFRSt8ios_baseS0_E@Base 2.1.0
 _ZNSolsEPSt15basic_streambufIcSt11char_traitsIcEE@Base 2.1.0
 _ZNSolsEi@Base 2.1.0
 _ZNSolsEj@Base 2.1.0
 _ZNSolsEl@Base 2.1.0
 _ZNSolsEm@Base 2.1.0
 _ZNSolsEs@Base 2.1.0
 _ZNSolsEt@Base 2.1.0
 _ZNSolsEx@Base 2.1.0
 _ZNSolsEy@Base 2.1.0
 _ZNSs12_Alloc_hiderC1EPcRKSaIcE@Base 2.1.0
 _ZNSs12_Alloc_hiderC2EPcRKSaIcE@Base 2.1.0
 _ZNSs12_Alloc_hiderD1Ev@Base 2.1.0
 _ZNSs12_Alloc_hiderD2Ev@Base 2.1.0
 _ZNSs12_S_empty_repEv@Base 2.1.0
 _ZNSs4_Rep10_M_destroyERKSaIcE@Base 2.1.0
 _ZNSs4_Rep10_M_disposeERKSaIcE@Base 2.1.0
 _ZNSs4_Rep10_M_refcopyEv@Base 2.1.0
 _ZNSs4_Rep10_M_refdataEv@Base 2.1.0
 _ZNSs4_Rep11_S_terminalE@Base 2.1.0
 _ZNSs4_Rep12_S_empty_repEv@Base 2.1.0
 _ZNSs4_Rep15_M_set_sharableEv@Base 2.1.0
 _ZNSs4_Rep20_S_empty_rep_storageE@Base 2.1.0
 _ZNSs4_Rep26_M_set_length_and_sharableEm@Base 2.1.0
 _ZNSs4_Rep7_M_grabERKSaIcES2_@Base 2.1.0
 _ZNSs4_Rep8_M_cloneERKSaIcEm@Base 2.1.0
 _ZNSs4_Rep9_S_createEmmRKSaIcE@Base 2.1.0
 _ZNSs6appendEPKc@Base 2.1.0
 _ZNSs6appendEPKcm@Base 2.1.0
 _ZNSs7_M_copyEPcPKcm@Base 2.1.0
 _ZNSs7_M_dataEPc@Base 2.1.0
 _ZNSs7reserveEm@Base 2.1.0
 _ZNSsC1ERKSs@Base 2.1.0
 _ZNSsC1Ev@Base 2.1.0
 _ZNSsC2ERKSs@Base 2.1.0
 _ZNSsC2Ev@Base 2.1.0
 _ZNSsD1Ev@Base 2.1.0
 _ZNSsD2Ev@Base 2.1.0
 _ZNSspLEPKc@Base 2.1.0
 _ZNSt10_Iter_baseIN11__gnu_debug14_Safe_iteratorIN9__gnu_cxx17__normal_iteratorIPKN7blocxx66StringENSt9__cxx19986vectorIS5_SaIS5_EEEEENSt7__debug6vectorIS5_SA_EEEELb1EE7_S_baseESG_@Base 2.1.0
 _ZNSt10_Iter_baseIN11__gnu_debug14_Safe_iteratorIN9__gnu_cxx17__normal_iteratorIPN7blocxx66StringENSt9__cxx19986vectorIS5_SaIS5_EEEEENSt7__debug6vectorIS5_S9_EEEELb0EE7_S_baseESF_@Base 2.1.0
 _ZNSt10_Iter_baseIN9__gnu_cxx17__normal_iteratorIPK10regmatch_tNSt9__cxx19986vectorIS2_SaIS2_EEEEELb0EE7_S_baseES9_@Base 2.1.0
 _ZNSt10_Iter_baseIN9__gnu_cxx17__normal_iteratorIPK10regmatch_tNSt9__cxx19986vectorIS2_SaIS2_EEEEELb1EE7_S_baseES9_@Base 2.1.0
 _ZNSt10_Iter_baseIN9__gnu_cxx17__normal_iteratorIPKN7blocxx69PerlRegEx7match_tENSt9__cxx19986vectorIS4_SaIS4_EEEEELb0EE7_S_baseESB_@Base 2.1.0
 _ZNSt10_Iter_baseIN9__gnu_cxx17__normal_iteratorIPKN7blocxx69PerlRegEx7match_tENSt9__cxx19986vectorIS4_SaIS4_EEEEELb1EE7_S_baseESB_@Base 2.1.0
 _ZNSt10_Iter_baseIN9__gnu_cxx17__normal_iteratorIPKPKcNSt9__cxx19986vectorIS3_SaIS3_EEEEELb0EE7_S_baseESA_@Base 2.1.0
 _ZNSt10_Iter_baseIN9__gnu_cxx17__normal_iteratorIPKPKcNSt9__cxx19986vectorIS3_SaIS3_EEEEELb1EE7_S_baseESA_@Base 2.1.0
 _ZNSt10_Iter_baseIN9__gnu_cxx17__normal_iteratorIPKcNSt9__cxx19986vectorIcSaIcEEEEELb0EE7_S_baseES8_@Base 2.1.0
 _ZNSt10_Iter_baseIN9__gnu_cxx17__normal_iteratorIPKcNSt9__cxx19986vectorIcSaIcEEEEELb1EE7_S_baseES8_@Base 2.1.0
 _ZNSt10_Iter_baseIN9__gnu_cxx17__normal_iteratorIPKiNSt9__cxx19986vectorIiSaIiEEEEELb0EE7_S_baseES8_@Base 2.1.0
 _ZNSt10_Iter_baseIN9__gnu_cxx17__normal_iteratorIPKiNSt9__cxx19986vectorIiSaIiEEEEELb1EE7_S_baseES8_@Base 2.1.0
 _ZNSt10_Iter_baseIN9__gnu_cxx17__normal_iteratorIPKtNSt9__cxx19986vectorItSaItEEEEELb0EE7_S_baseES8_@Base 2.1.0
 _ZNSt10_Iter_baseIN9__gnu_cxx17__normal_iteratorIPKtNSt9__cxx19986vectorItSaItEEEEELb1EE7_S_baseES8_@Base 2.1.0
 _ZNSt10_Iter_baseIN9__gnu_cxx17__normal_iteratorIPN7blocxx618IntrusiveReferenceINS2_6ThreadEEENSt9__cxx19986vectorIS5_SaIS5_EEEEELb0EE7_S_baseESB_@Base 2.1.0
 _ZNSt10_Iter_baseIN9__gnu_cxx17__normal_iteratorIPN7blocxx618IntrusiveReferenceINS2_6ThreadEEENSt9__cxx19986vectorIS5_SaIS5_EEEEELb1EE7_S_baseESB_@Base 2.1.0
 _ZNSt10_Iter_baseIN9__gnu_cxx17__normal_iteratorIPN7blocxx66StringENSt9__cxx19986vectorIS3_SaIS3_EEEEELb0EE7_S_baseES9_@Base 2.1.0
 _ZNSt10_Iter_baseIN9__gnu_cxx17__normal_iteratorIPN7blocxx66StringENSt9__cxx19986vectorIS3_SaIS3_EEEEELb1EE7_S_baseES9_@Base 2.1.0
 _ZNSt10_Iter_baseIN9__gnu_cxx17__normal_iteratorIPSt4pairIiN7blocxx612SelectEngine4DataEENSt9__cxx19986vectorIS6_SaIS6_EEEEELb0EE7_S_baseESC_@Base 2.1.0
 _ZNSt10_Iter_baseIN9__gnu_cxx17__normal_iteratorIPSt4pairIiN7blocxx612SelectEngine4DataEENSt9__cxx19986vectorIS6_SaIS6_EEEEELb1EE7_S_baseESC_@Base 2.1.0
 _ZNSt10_Iter_baseIN9__gnu_cxx17__normal_iteratorIPcNSt9__cxx19986vectorIcSaIcEEEEELb0EE7_S_baseES7_@Base 2.1.0
 _ZNSt10_Iter_baseIN9__gnu_cxx17__normal_iteratorIPcNSt9__cxx19986vectorIcSaIcEEEEELb1EE7_S_baseES7_@Base 2.1.0
 _ZNSt10_Iter_baseIN9__gnu_cxx17__normal_iteratorIPhNSt9__cxx19986vectorIhSaIhEEEEELb1EE7_S_baseES7_@Base 2.1.0
 _ZNSt10_Iter_baseIP10regmatch_tLb0EE7_S_baseES1_@Base 2.1.0
 _ZNSt10_Iter_baseIPKcLb0EE7_S_baseES1_@Base 2.1.0
 _ZNSt10_Iter_baseIPN7blocxx618IntrusiveReferenceINS0_11LogAppenderEEELb0EE7_S_baseES4_@Base 2.1.0
 _ZNSt10_Iter_baseIPN7blocxx618IntrusiveReferenceINS0_26LogMessagePatternFormatter9ConverterEEELb0EE7_S_baseES5_@Base 2.1.0
 _ZNSt10_Iter_baseIPN7blocxx618IntrusiveReferenceINS0_6ThreadEEELb0EE7_S_baseES4_@Base 2.1.0
 _ZNSt10_Iter_baseIPN7blocxx618IntrusiveReferenceINS0_7ProcessEEELb0EE7_S_baseES4_@Base 2.1.0
 _ZNSt10_Iter_baseIPN7blocxx66Select12SelectObjectELb0EE7_S_baseES3_@Base 2.1.0
 _ZNSt10_Iter_baseIPN7blocxx66StringELb0EE7_S_baseES2_@Base 2.1.0
 _ZNSt10_Iter_baseIPN7blocxx69PerlRegEx7match_tELb0EE7_S_baseES3_@Base 2.1.0
 _ZNSt10_Iter_baseIPPKcLb0EE7_S_baseES2_@Base 2.1.0
 _ZNSt10_Iter_baseIPPN7blocxx618IntrusiveReferenceINS0_8RunnableEEELb0EE7_S_baseES5_@Base 2.1.0
 _ZNSt10_Iter_baseIPPcLb0EE7_S_baseES1_@Base 2.1.0
 _ZNSt10_Iter_baseIPSt4pairIN7blocxx66StringENS1_17EFileStatusReturnEELb0EE7_S_baseES5_@Base 2.1.0
 _ZNSt10_Iter_baseIPSt4pairIiN7blocxx612SelectEngine4DataEELb0EE7_S_baseES5_@Base 2.1.0
 _ZNSt10_Iter_baseIPSt4pairIiN7blocxx65ArrayINS1_6StringEEEELb0EE7_S_baseES6_@Base 2.1.0
 _ZNSt10_Iter_baseIPcLb0EE7_S_baseES0_@Base 2.1.0
 _ZNSt10_Iter_baseIPhLb0EE7_S_baseES0_@Base 2.1.0
 _ZNSt10_Iter_baseIPiLb0EE7_S_baseES0_@Base 2.1.0
 _ZNSt10_Iter_baseIPtLb0EE7_S_baseES0_@Base 2.1.0
 _ZNSt11__copy_moveILb0ELb0ESt26random_access_iterator_tagE8__copy_mIPKcPhEET0_T_S7_S6_@Base 2.1.0
 _ZNSt11__copy_moveILb0ELb0ESt26random_access_iterator_tagE8__copy_mIPN7blocxx618IntrusiveReferenceINS3_6ThreadEEES7_EET0_T_S9_S8_@Base 2.1.0
 _ZNSt11__copy_moveILb0ELb0ESt26random_access_iterator_tagE8__copy_mIPN7blocxx66StringES5_EET0_T_S7_S6_@Base 2.1.0
 _ZNSt11__copy_moveILb0ELb0ESt26random_access_iterator_tagE8__copy_mIPSt4pairIiN7blocxx612SelectEngine4DataEES8_EET0_T_SA_S9_@Base 2.1.0
 _ZNSt11__copy_moveILb0ELb1ESt26random_access_iterator_tagE8__copy_mI10regmatch_tEEPT_PKS4_S7_S5_@Base 2.1.0
 _ZNSt11__copy_moveILb0ELb1ESt26random_access_iterator_tagE8__copy_mIN7blocxx69PerlRegEx7match_tEEEPT_PKS6_S9_S7_@Base 2.1.0
 _ZNSt11__copy_moveILb0ELb1ESt26random_access_iterator_tagE8__copy_mIPKcEEPT_PKS5_S8_S6_@Base 2.1.0
 _ZNSt11__copy_moveILb0ELb1ESt26random_access_iterator_tagE8__copy_mIPN7blocxx618IntrusiveReferenceINS3_8RunnableEEEEEPT_PKS8_SB_S9_@Base 2.1.0
 _ZNSt11__copy_moveILb0ELb1ESt26random_access_iterator_tagE8__copy_mIcEEPT_PKS3_S6_S4_@Base 2.1.0
 _ZNSt11__copy_moveILb0ELb1ESt26random_access_iterator_tagE8__copy_mIhEEPT_PKS3_S6_S4_@Base 2.1.0
 _ZNSt11__copy_moveILb0ELb1ESt26random_access_iterator_tagE8__copy_mIiEEPT_PKS3_S6_S4_@Base 2.1.0
 _ZNSt11__copy_moveILb0ELb1ESt26random_access_iterator_tagE8__copy_mItEEPT_PKS3_S6_S4_@Base 2.1.0
 _ZNSt11__iter_swapILb1EE9iter_swapIN11__gnu_debug14_Safe_iteratorIN9__gnu_cxx17__normal_iteratorIPN7blocxx66StringENSt9__cxx19986vectorIS7_SaIS7_EEEEENSt7__debug6vectorIS7_SB_EEEESH_EEvT_T0_@Base 2.1.0
 _ZNSt11char_traitsIcE11eq_int_typeERKiS2_@Base 2.1.0
 _ZNSt11char_traitsIcE11to_int_typeERKc@Base 2.1.0
 _ZNSt11char_traitsIcE12to_char_typeERKi@Base 2.1.0
 _ZNSt11char_traitsIcE3eofEv@Base 2.1.0
 _ZNSt11char_traitsIcE4copyEPcPKcm@Base 2.1.0
 _ZNSt11char_traitsIcE6assignERcRKc@Base 2.1.0
 _ZNSt11char_traitsIcE6lengthEPKc@Base 2.1.0
 _ZNSt11char_traitsIcE7not_eofERKi@Base 2.1.0
 _ZNSt11char_traitsIwE4copyEPwPKwm@Base 2.1.0
 _ZNSt11char_traitsIwE6assignERwRKw@Base 2.1.0
 _ZNSt11char_traitsIwE6lengthEPKw@Base 2.1.0
 _ZNSt12_Destroy_auxILb0EE9__destroyIPN7blocxx618IntrusiveReferenceINS2_11LogAppenderEEEEEvT_S7_@Base 2.1.0
 _ZNSt12_Destroy_auxILb0EE9__destroyIPN7blocxx618IntrusiveReferenceINS2_26LogMessagePatternFormatter9ConverterEEEEEvT_S8_@Base 2.1.0
 _ZNSt12_Destroy_auxILb0EE9__destroyIPN7blocxx618IntrusiveReferenceINS2_6ThreadEEEEEvT_S7_@Base 2.1.0
 _ZNSt12_Destroy_auxILb0EE9__destroyIPN7blocxx618IntrusiveReferenceINS2_7ProcessEEEEEvT_S7_@Base 2.1.0
 _ZNSt12_Destroy_auxILb0EE9__destroyIPN7blocxx618IntrusiveReferenceINS2_8RunnableEEEEEvT_S7_@Base 2.1.0
 _ZNSt12_Destroy_auxILb0EE9__destroyIPN7blocxx65ArrayIcEEEEvT_S6_@Base 2.1.0
 _ZNSt12_Destroy_auxILb0EE9__destroyIPN7blocxx66StringEEEvT_S5_@Base 2.1.0
 _ZNSt12_Destroy_auxILb0EE9__destroyIPN7blocxx69ReferenceINS2_22DelayedFormatInternals26DelayedFormatReferenceBaseEEEEEvT_S8_@Base 2.1.0
 _ZNSt12_Destroy_auxILb0EE9__destroyIPSt4pairIN7blocxx66StringENS3_17EFileStatusReturnEEEEvT_S8_@Base 2.1.0
 _ZNSt12_Destroy_auxILb0EE9__destroyIPSt4pairIiN7blocxx612SelectEngine4DataEEEEvT_S8_@Base 2.1.0
 _ZNSt12_Destroy_auxILb0EE9__destroyIPSt4pairIiN7blocxx65ArrayINS3_6StringEEEEEEvT_S9_@Base 2.1.0
 _ZNSt12_Destroy_auxILb1EE9__destroyIP10regmatch_tEEvT_S4_@Base 2.1.0
 _ZNSt12_Destroy_auxILb1EE9__destroyIPN7blocxx66Select12SelectObjectEEEvT_S6_@Base 2.1.0
 _ZNSt12_Destroy_auxILb1EE9__destroyIPN7blocxx69PerlRegEx7match_tEEEvT_S6_@Base 2.1.0
 _ZNSt12_Destroy_auxILb1EE9__destroyIPPKcEEvT_S5_@Base 2.1.0
 _ZNSt12_Destroy_auxILb1EE9__destroyIPcEEvT_S3_@Base 2.1.0
 _ZNSt12_Destroy_auxILb1EE9__destroyIPhEEvT_S3_@Base 2.1.0
 _ZNSt12_Destroy_auxILb1EE9__destroyIPiEEvT_S3_@Base 2.1.0
 _ZNSt12_Destroy_auxILb1EE9__destroyIPtEEvT_S3_@Base 2.1.0
 _ZNSt12__alloc_swapISaIcELb1EE8_S_do_itERS0_S2_@Base 2.1.0
 _ZNSt13basic_filebufIcSt11char_traitsIcEE13_M_set_bufferEl@Base 2.1.0
 _ZNSt13basic_filebufIcSt11char_traitsIcEE14_M_get_ext_posER11__mbstate_t@Base 2.1.0
 _ZNSt13basic_filebufIcSt11char_traitsIcEE15_M_create_pbackEv@Base 2.1.0
 _ZNSt13basic_filebufIcSt11char_traitsIcEE16_M_destroy_pbackEv@Base 2.1.0
 _ZNSt13basic_filebufIcSt11char_traitsIcEE19_M_terminate_outputEv@Base 2.1.0
 _ZNSt13basic_filebufIcSt11char_traitsIcEE22_M_convert_to_externalEPcl@Base 2.1.0
 _ZNSt13basic_filebufIcSt11char_traitsIcEE26_M_destroy_internal_bufferEv@Base 2.1.0
 _ZNSt13basic_filebufIcSt11char_traitsIcEE27_M_allocate_internal_bufferEv@Base 2.1.0
 _ZNSt13basic_filebufIcSt11char_traitsIcEE4openEPKcSt13_Ios_Openmode@Base 2.1.0
 _ZNSt13basic_filebufIcSt11char_traitsIcEE4syncEv@Base 2.1.0
 _ZNSt13basic_filebufIcSt11char_traitsIcEE5closeEv@Base 2.1.0
 _ZNSt13basic_filebufIcSt11char_traitsIcEE5imbueERKSt6locale@Base 2.1.0
 _ZNSt13basic_filebufIcSt11char_traitsIcEE6setbufEPcl@Base 2.1.0
 _ZNSt13basic_filebufIcSt11char_traitsIcEE6xsgetnEPcl@Base 2.1.0
 _ZNSt13basic_filebufIcSt11char_traitsIcEE6xsputnEPKcl@Base 2.1.0
 _ZNSt13basic_filebufIcSt11char_traitsIcEE7_M_seekElSt12_Ios_Seekdir11__mbstate_t@Base 2.1.0
 _ZNSt13basic_filebufIcSt11char_traitsIcEE7seekoffElSt12_Ios_SeekdirSt13_Ios_Openmode@Base 2.1.0
 _ZNSt13basic_filebufIcSt11char_traitsIcEE7seekposESt4fposI11__mbstate_tESt13_Ios_Openmode@Base 2.1.0
 _ZNSt13basic_filebufIcSt11char_traitsIcEE8overflowEi@Base 2.1.0
 _ZNSt13basic_filebufIcSt11char_traitsIcEE9pbackfailEi@Base 2.1.0
 _ZNSt13basic_filebufIcSt11char_traitsIcEE9showmanycEv@Base 2.1.0
 _ZNSt13basic_filebufIcSt11char_traitsIcEE9underflowEv@Base 2.1.0
 _ZNSt13basic_filebufIcSt11char_traitsIcEEC1Ev@Base 2.1.0
 _ZNSt13basic_filebufIcSt11char_traitsIcEEC2Ev@Base 2.1.0
 _ZNSt13basic_filebufIcSt11char_traitsIcEED0Ev@Base 2.1.0
 _ZNSt13basic_filebufIcSt11char_traitsIcEED1Ev@Base 2.1.0
 _ZNSt13basic_filebufIcSt11char_traitsIcEED2Ev@Base 2.1.0
 _ZNSt14basic_ifstreamIcSt11char_traitsIcEE4openEPKcSt13_Ios_Openmode@Base 2.1.0
 _ZNSt14basic_ifstreamIcSt11char_traitsIcEE5closeEv@Base 2.1.0
 _ZNSt14basic_ifstreamIcSt11char_traitsIcEEC1EPKcSt13_Ios_Openmode@Base 2.1.0
 _ZNSt14basic_ifstreamIcSt11char_traitsIcEED0Ev@Base 2.1.0
 _ZNSt14basic_ifstreamIcSt11char_traitsIcEED1Ev@Base 2.1.0
 _ZNSt14basic_ofstreamIcSt11char_traitsIcEE4openEPKcSt13_Ios_Openmode@Base 2.1.0
 _ZNSt14basic_ofstreamIcSt11char_traitsIcEE5closeEv@Base 2.1.0
 _ZNSt14basic_ofstreamIcSt11char_traitsIcEEC1EPKcSt13_Ios_Openmode@Base 2.1.0
 _ZNSt14basic_ofstreamIcSt11char_traitsIcEEC1Ev@Base 2.1.0
 _ZNSt14basic_ofstreamIcSt11char_traitsIcEED0Ev@Base 2.1.0
 _ZNSt14basic_ofstreamIcSt11char_traitsIcEED1Ev@Base 2.1.0
 _ZNSt14numeric_limitsIiE3maxEv@Base 2.1.0
 _ZNSt14numeric_limitsIiE3minEv@Base 2.1.0
 _ZNSt14numeric_limitsIjE3maxEv@Base 2.1.0
 _ZNSt14numeric_limitsIjE3minEv@Base 2.1.0
 _ZNSt14numeric_limitsIlE3maxEv@Base 2.1.0
 _ZNSt14numeric_limitsIlE3minEv@Base 2.1.0
 _ZNSt15basic_streambufIcSt11char_traitsIcEE10pubseekoffElSt12_Ios_SeekdirSt13_Ios_Openmode@Base 2.1.0
 _ZNSt15basic_streambufIcSt11char_traitsIcEE12__safe_gbumpEl@Base 2.1.0
 _ZNSt15basic_streambufIcSt11char_traitsIcEE12__safe_pbumpEl@Base 2.1.0
 _ZNSt15basic_streambufIcSt11char_traitsIcEE4setgEPcS3_S3_@Base 2.1.0
 _ZNSt15basic_streambufIcSt11char_traitsIcEE4setpEPcS3_@Base 2.1.0
 _ZNSt15basic_streambufIcSt11char_traitsIcEE4syncEv@Base 2.1.0
 _ZNSt15basic_streambufIcSt11char_traitsIcEE5gbumpEi@Base 2.1.0
 _ZNSt15basic_streambufIcSt11char_traitsIcEE5imbueERKSt6locale@Base 2.1.0
 _ZNSt15basic_streambufIcSt11char_traitsIcEE5pbumpEi@Base 2.1.0
 _ZNSt15basic_streambufIcSt11char_traitsIcEE5sgetcEv@Base 2.1.0
 _ZNSt15basic_streambufIcSt11char_traitsIcEE5sgetnEPcl@Base 2.1.0
 _ZNSt15basic_streambufIcSt11char_traitsIcEE5sputcEc@Base 2.1.0
 _ZNSt15basic_streambufIcSt11char_traitsIcEE5sputnEPKcl@Base 2.1.0
 _ZNSt15basic_streambufIcSt11char_traitsIcEE5uflowEv@Base 2.1.0
 _ZNSt15basic_streambufIcSt11char_traitsIcEE6sbumpcEv@Base 2.1.0
 _ZNSt15basic_streambufIcSt11char_traitsIcEE6setbufEPcl@Base 2.1.0
 _ZNSt15basic_streambufIcSt11char_traitsIcEE6snextcEv@Base 2.1.0
 _ZNSt15basic_streambufIcSt11char_traitsIcEE6xsgetnEPcl@Base 2.1.0
 _ZNSt15basic_streambufIcSt11char_traitsIcEE6xsputnEPKcl@Base 2.1.0
 _ZNSt15basic_streambufIcSt11char_traitsIcEE7pubsyncEv@Base 2.1.0
 _ZNSt15basic_streambufIcSt11char_traitsIcEE7seekoffElSt12_Ios_SeekdirSt13_Ios_Openmode@Base 2.1.0
 _ZNSt15basic_streambufIcSt11char_traitsIcEE7seekposESt4fposI11__mbstate_tESt13_Ios_Openmode@Base 2.1.0
 _ZNSt15basic_streambufIcSt11char_traitsIcEE8overflowEi@Base 2.1.0
 _ZNSt15basic_streambufIcSt11char_traitsIcEE9pbackfailEi@Base 2.1.0
 _ZNSt15basic_streambufIcSt11char_traitsIcEE9showmanycEv@Base 2.1.0
 _ZNSt15basic_streambufIcSt11char_traitsIcEE9underflowEv@Base 2.1.0
 _ZNSt15basic_streambufIcSt11char_traitsIcEEC1Ev@Base 2.1.0
 _ZNSt15basic_streambufIcSt11char_traitsIcEEC2Ev@Base 2.1.0
 _ZNSt15basic_streambufIcSt11char_traitsIcEED0Ev@Base 2.1.0
 _ZNSt15basic_streambufIcSt11char_traitsIcEED1Ev@Base 2.1.0
 _ZNSt15basic_streambufIcSt11char_traitsIcEED2Ev@Base 2.1.0
 _ZNSt17_Rb_tree_iteratorISt4pairIKN7blocxx66StringENS1_13SSLTrustStore8UserInfoEEEC1EPSt13_Rb_tree_nodeIS6_E@Base 2.1.0
 _ZNSt17_Rb_tree_iteratorISt4pairIKN7blocxx66StringENS1_13SSLTrustStore8UserInfoEEEC1Ev@Base 2.1.0
 _ZNSt17_Rb_tree_iteratorISt4pairIKN7blocxx66StringENS1_13SSLTrustStore8UserInfoEEEC2EPSt13_Rb_tree_nodeIS6_E@Base 2.1.0
 _ZNSt17_Rb_tree_iteratorISt4pairIKN7blocxx66StringENS1_13SSLTrustStore8UserInfoEEEC2Ev@Base 2.1.0
 _ZNSt17_Rb_tree_iteratorISt4pairIKN7blocxx66StringENS1_13SSLTrustStore8UserInfoEEEmmEv@Base 2.1.0
 _ZNSt17_Rb_tree_iteratorISt4pairIKN7blocxx66StringES2_EEC1EPSt13_Rb_tree_nodeIS4_E@Base 2.1.0
 _ZNSt17_Rb_tree_iteratorISt4pairIKN7blocxx66StringES2_EEC1Ev@Base 2.1.0
 _ZNSt17_Rb_tree_iteratorISt4pairIKN7blocxx66StringES2_EEC2EPSt13_Rb_tree_nodeIS4_E@Base 2.1.0
 _ZNSt17_Rb_tree_iteratorISt4pairIKN7blocxx66StringES2_EEC2Ev@Base 2.1.0
 _ZNSt17_Rb_tree_iteratorISt4pairIKN7blocxx66StringES2_EEmmEv@Base 2.1.0
 _ZNSt17_Rb_tree_iteratorISt4pairIKiiEEC1EPSt13_Rb_tree_nodeIS2_E@Base 2.1.0
 _ZNSt17_Rb_tree_iteratorISt4pairIKiiEEC2EPSt13_Rb_tree_nodeIS2_E@Base 2.1.0
 _ZNSt17_Rb_tree_iteratorISt4pairIKiiEEmmEv@Base 2.1.0
 _ZNSt17_Rb_tree_iteratorISt4pairIKmN7blocxx617GenericRWLockImplImNS2_8RWLocker14ThreadComparerEE10LockerInfoEEEC1EPSt13_Rb_tree_nodeIS8_E@Base 2.1.0
 _ZNSt17_Rb_tree_iteratorISt4pairIKmN7blocxx617GenericRWLockImplImNS2_8RWLocker14ThreadComparerEE10LockerInfoEEEC1Ev@Base 2.1.0
 _ZNSt17_Rb_tree_iteratorISt4pairIKmN7blocxx617GenericRWLockImplImNS2_8RWLocker14ThreadComparerEE10LockerInfoEEEC2EPSt13_Rb_tree_nodeIS8_E@Base 2.1.0
 _ZNSt17_Rb_tree_iteratorISt4pairIKmN7blocxx617GenericRWLockImplImNS2_8RWLocker14ThreadComparerEE10LockerInfoEEEC2Ev@Base 2.1.0
 _ZNSt17_Rb_tree_iteratorISt4pairIKmN7blocxx617GenericRWLockImplImNS2_8RWLocker14ThreadComparerEE10LockerInfoEEEmmEv@Base 2.1.0
 _ZNSt18_Rb_tree_node_base10_S_maximumEPS_@Base 2.1.0
 _ZNSt18_Rb_tree_node_base10_S_minimumEPS_@Base 2.1.0
 _ZNSt19ostreambuf_iteratorIcSt11char_traitsIcEEC1ERSo@Base 2.1.0
 _ZNSt19ostreambuf_iteratorIcSt11char_traitsIcEEC2ERSo@Base 2.1.0
 _ZNSt20__copy_move_backwardILb0ELb0ESt26random_access_iterator_tagE13__copy_move_bIN11__gnu_debug14_Safe_iteratorIN9__gnu_cxx17__normal_iteratorIPN7blocxx66StringENSt9__cxx19986vectorIS8_SaIS8_EEEEENSt7__debug6vectorIS8_SC_EEEESI_EET0_T_SK_SJ_@Base 2.1.0
 _ZNSt20__copy_move_backwardILb0ELb0ESt26random_access_iterator_tagE13__copy_move_bIPN7blocxx618IntrusiveReferenceINS3_11LogAppenderEEES7_EET0_T_S9_S8_@Base 2.1.0
 _ZNSt20__copy_move_backwardILb0ELb0ESt26random_access_iterator_tagE13__copy_move_bIPN7blocxx618IntrusiveReferenceINS3_26LogMessagePatternFormatter9ConverterEEES8_EET0_T_SA_S9_@Base 2.1.0
 _ZNSt20__copy_move_backwardILb0ELb0ESt26random_access_iterator_tagE13__copy_move_bIPN7blocxx618IntrusiveReferenceINS3_6ThreadEEES7_EET0_T_S9_S8_@Base 2.1.0
 _ZNSt20__copy_move_backwardILb0ELb0ESt26random_access_iterator_tagE13__copy_move_bIPN7blocxx618IntrusiveReferenceINS3_7ProcessEEES7_EET0_T_S9_S8_@Base 2.1.0
 _ZNSt20__copy_move_backwardILb0ELb0ESt26random_access_iterator_tagE13__copy_move_bIPN7blocxx66Select12SelectObjectES6_EET0_T_S8_S7_@Base 2.1.0
 _ZNSt20__copy_move_backwardILb0ELb0ESt26random_access_iterator_tagE13__copy_move_bIPN7blocxx66StringES5_EET0_T_S7_S6_@Base 2.1.0
 _ZNSt20__copy_move_backwardILb0ELb0ESt26random_access_iterator_tagE13__copy_move_bIPSt4pairIN7blocxx66StringENS4_17EFileStatusReturnEES8_EET0_T_SA_S9_@Base 2.1.0
 _ZNSt20__copy_move_backwardILb0ELb0ESt26random_access_iterator_tagE13__copy_move_bIPSt4pairIiN7blocxx612SelectEngine4DataEES8_EET0_T_SA_S9_@Base 2.1.0
 _ZNSt20__copy_move_backwardILb0ELb0ESt26random_access_iterator_tagE13__copy_move_bIPSt4pairIiN7blocxx65ArrayINS4_6StringEEEES9_EET0_T_SB_SA_@Base 2.1.0
 _ZNSt20__copy_move_backwardILb0ELb1ESt26random_access_iterator_tagE13__copy_move_bI10regmatch_tEEPT_PKS4_S7_S5_@Base 2.1.0
 _ZNSt20__copy_move_backwardILb0ELb1ESt26random_access_iterator_tagE13__copy_move_bIN7blocxx69PerlRegEx7match_tEEEPT_PKS6_S9_S7_@Base 2.1.0
 _ZNSt20__copy_move_backwardILb0ELb1ESt26random_access_iterator_tagE13__copy_move_bIPKcEEPT_PKS5_S8_S6_@Base 2.1.0
 _ZNSt20__copy_move_backwardILb0ELb1ESt26random_access_iterator_tagE13__copy_move_bIPN7blocxx618IntrusiveReferenceINS3_8RunnableEEEEEPT_PKS8_SB_S9_@Base 2.1.0
 _ZNSt20__copy_move_backwardILb0ELb1ESt26random_access_iterator_tagE13__copy_move_bIcEEPT_PKS3_S6_S4_@Base 2.1.0
 _ZNSt20__copy_move_backwardILb0ELb1ESt26random_access_iterator_tagE13__copy_move_bIhEEPT_PKS3_S6_S4_@Base 2.1.0
 _ZNSt20__copy_move_backwardILb0ELb1ESt26random_access_iterator_tagE13__copy_move_bIiEEPT_PKS3_S6_S4_@Base 2.1.0
 _ZNSt20__copy_move_backwardILb0ELb1ESt26random_access_iterator_tagE13__copy_move_bItEEPT_PKS3_S6_S4_@Base 2.1.0
 _ZNSt20__uninitialized_copyILb0EE13__uninit_copyIN9__gnu_cxx17__normal_iteratorIPKN7blocxx618IntrusiveReferenceINS4_11LogAppenderEEENSt9__cxx19986vectorIS7_SaIS7_EEEEEPS7_EET0_T_SH_SG_@Base 2.1.0
 _ZNSt20__uninitialized_copyILb0EE13__uninit_copyIN9__gnu_cxx17__normal_iteratorIPKN7blocxx618IntrusiveReferenceINS4_26LogMessagePatternFormatter9ConverterEEENSt9__cxx19986vectorIS8_SaIS8_EEEEEPS8_EET0_T_SI_SH_@Base 2.1.0
 _ZNSt20__uninitialized_copyILb0EE13__uninit_copyIN9__gnu_cxx17__normal_iteratorIPKN7blocxx618IntrusiveReferenceINS4_6ThreadEEENSt9__cxx19986vectorIS7_SaIS7_EEEEEPS7_EET0_T_SH_SG_@Base 2.1.0
 _ZNSt20__uninitialized_copyILb0EE13__uninit_copyIN9__gnu_cxx17__normal_iteratorIPKN7blocxx618IntrusiveReferenceINS4_7ProcessEEENSt9__cxx19986vectorIS7_SaIS7_EEEEEPS7_EET0_T_SH_SG_@Base 2.1.0
 _ZNSt20__uninitialized_copyILb0EE13__uninit_copyIN9__gnu_cxx17__normal_iteratorIPKN7blocxx65ArrayIcEENSt9__cxx19986vectorIS6_SaIS6_EEEEEPS6_EET0_T_SG_SF_@Base 2.1.0
 _ZNSt20__uninitialized_copyILb0EE13__uninit_copyIN9__gnu_cxx17__normal_iteratorIPKN7blocxx66Select12SelectObjectENSt9__cxx19986vectorIS6_SaIS6_EEEEEPS6_EET0_T_SG_SF_@Base 2.1.0
 _ZNSt20__uninitialized_copyILb0EE13__uninit_copyIN9__gnu_cxx17__normal_iteratorIPKN7blocxx66StringENSt9__cxx19986vectorIS5_SaIS5_EEEEEPS5_EET0_T_SF_SE_@Base 2.1.0
 _ZNSt20__uninitialized_copyILb0EE13__uninit_copyIN9__gnu_cxx17__normal_iteratorIPKSt4pairIN7blocxx66StringENS5_17EFileStatusReturnEENSt9__cxx19986vectorIS8_SaIS8_EEEEEPS8_EET0_T_SI_SH_@Base 2.1.0
 _ZNSt20__uninitialized_copyILb0EE13__uninit_copyIN9__gnu_cxx17__normal_iteratorIPKSt4pairIiN7blocxx612SelectEngine4DataEENSt9__cxx19986vectorIS8_SaIS8_EEEEEPS8_EET0_T_SI_SH_@Base 2.1.0
 _ZNSt20__uninitialized_copyILb0EE13__uninit_copyIN9__gnu_cxx17__normal_iteratorIPKSt4pairIiN7blocxx65ArrayINS5_6StringEEEENSt9__cxx19986vectorIS9_SaIS9_EEEEEPS9_EET0_T_SJ_SI_@Base 2.1.0
 _ZNSt20__uninitialized_copyILb0EE13__uninit_copyIPN7blocxx618IntrusiveReferenceINS2_11LogAppenderEEES6_EET0_T_S8_S7_@Base 2.1.0
 _ZNSt20__uninitialized_copyILb0EE13__uninit_copyIPN7blocxx618IntrusiveReferenceINS2_26LogMessagePatternFormatter9ConverterEEES7_EET0_T_S9_S8_@Base 2.1.0
 _ZNSt20__uninitialized_copyILb0EE13__uninit_copyIPN7blocxx618IntrusiveReferenceINS2_6ThreadEEES6_EET0_T_S8_S7_@Base 2.1.0
 _ZNSt20__uninitialized_copyILb0EE13__uninit_copyIPN7blocxx618IntrusiveReferenceINS2_7ProcessEEES6_EET0_T_S8_S7_@Base 2.1.0
 _ZNSt20__uninitialized_copyILb0EE13__uninit_copyIPN7blocxx66Select12SelectObjectES5_EET0_T_S7_S6_@Base 2.1.0
 _ZNSt20__uninitialized_copyILb0EE13__uninit_copyIPN7blocxx66StringES4_EET0_T_S6_S5_@Base 2.1.0
 _ZNSt20__uninitialized_copyILb0EE13__uninit_copyIPSt4pairIN7blocxx66StringENS3_17EFileStatusReturnEES7_EET0_T_S9_S8_@Base 2.1.0
 _ZNSt20__uninitialized_copyILb0EE13__uninit_copyIPSt4pairIiN7blocxx612SelectEngine4DataEES7_EET0_T_S9_S8_@Base 2.1.0
 _ZNSt20__uninitialized_copyILb0EE13__uninit_copyIPSt4pairIiN7blocxx65ArrayINS3_6StringEEEES8_EET0_T_SA_S9_@Base 2.1.0
 _ZNSt20__uninitialized_copyILb1EE13__uninit_copyIN9__gnu_cxx17__normal_iteratorIPK10regmatch_tNSt9__cxx19986vectorIS4_SaIS4_EEEEEPS4_EET0_T_SE_SD_@Base 2.1.0
 _ZNSt20__uninitialized_copyILb1EE13__uninit_copyIN9__gnu_cxx17__normal_iteratorIPKN7blocxx69PerlRegEx7match_tENSt9__cxx19986vectorIS6_SaIS6_EEEEEPS6_EET0_T_SG_SF_@Base 2.1.0
 _ZNSt20__uninitialized_copyILb1EE13__uninit_copyIN9__gnu_cxx17__normal_iteratorIPKPKcNSt9__cxx19986vectorIS5_SaIS5_EEEEEPS5_EET0_T_SF_SE_@Base 2.1.0
 _ZNSt20__uninitialized_copyILb1EE13__uninit_copyIN9__gnu_cxx17__normal_iteratorIPKcNSt9__cxx19986vectorIcSaIcEEEEEPcEET0_T_SD_SC_@Base 2.1.0
 _ZNSt20__uninitialized_copyILb1EE13__uninit_copyIN9__gnu_cxx17__normal_iteratorIPKiNSt9__cxx19986vectorIiSaIiEEEEEPiEET0_T_SD_SC_@Base 2.1.0
 _ZNSt20__uninitialized_copyILb1EE13__uninit_copyIN9__gnu_cxx17__normal_iteratorIPKtNSt9__cxx19986vectorItSaItEEEEEPtEET0_T_SD_SC_@Base 2.1.0
 _ZNSt20__uninitialized_copyILb1EE13__uninit_copyIP10regmatch_tS3_EET0_T_S5_S4_@Base 2.1.0
 _ZNSt20__uninitialized_copyILb1EE13__uninit_copyIPKcPcEET0_T_S6_S5_@Base 2.1.0
 _ZNSt20__uninitialized_copyILb1EE13__uninit_copyIPKcPhEET0_T_S6_S5_@Base 2.1.0
 _ZNSt20__uninitialized_copyILb1EE13__uninit_copyIPN7blocxx69PerlRegEx7match_tES5_EET0_T_S7_S6_@Base 2.1.0
 _ZNSt20__uninitialized_copyILb1EE13__uninit_copyIPPKcS4_EET0_T_S6_S5_@Base 2.1.0
 _ZNSt20__uninitialized_copyILb1EE13__uninit_copyIPcS2_EET0_T_S4_S3_@Base 2.1.0
 _ZNSt20__uninitialized_copyILb1EE13__uninit_copyIPhS2_EET0_T_S4_S3_@Base 2.1.0
 _ZNSt20__uninitialized_copyILb1EE13__uninit_copyIPiS2_EET0_T_S4_S3_@Base 2.1.0
 _ZNSt20__uninitialized_copyILb1EE13__uninit_copyIPtS2_EET0_T_S4_S3_@Base 2.1.0
 _ZNSt22__uninitialized_fill_nILb0EE15__uninit_fill_nIPN7blocxx618IntrusiveReferenceINS2_11LogAppenderEEEmS5_EEvT_T0_RKT1_@Base 2.1.0
 _ZNSt22__uninitialized_fill_nILb0EE15__uninit_fill_nIPN7blocxx618IntrusiveReferenceINS2_6ThreadEEEmS5_EEvT_T0_RKT1_@Base 2.1.0
 _ZNSt22__uninitialized_fill_nILb0EE15__uninit_fill_nIPN7blocxx618IntrusiveReferenceINS2_7ProcessEEEmS5_EEvT_T0_RKT1_@Base 2.1.0
 _ZNSt22__uninitialized_fill_nILb0EE15__uninit_fill_nIPN7blocxx65ArrayIcEEmS4_EEvT_T0_RKT1_@Base 2.1.0
 _ZNSt22__uninitialized_fill_nILb1EE15__uninit_fill_nIP10regmatch_tmS2_EEvT_T0_RKT1_@Base 2.1.0
 _ZNSt22__uninitialized_fill_nILb1EE15__uninit_fill_nIPN7blocxx69PerlRegEx7match_tEmS4_EEvT_T0_RKT1_@Base 2.1.0
 _ZNSt22__uninitialized_fill_nILb1EE15__uninit_fill_nIPcmcEEvT_T0_RKT1_@Base 2.1.0
 _ZNSt22__uninitialized_fill_nILb1EE15__uninit_fill_nIPimiEEvT_T0_RKT1_@Base 2.1.0
 _ZNSt23_Rb_tree_const_iteratorISt4pairIKN7blocxx66StringENS1_13SSLTrustStore8UserInfoEEEC1EPKSt13_Rb_tree_nodeIS6_E@Base 2.1.0
 _ZNSt23_Rb_tree_const_iteratorISt4pairIKN7blocxx66StringENS1_13SSLTrustStore8UserInfoEEEC1ERKSt17_Rb_tree_iteratorIS6_E@Base 2.1.0
 _ZNSt23_Rb_tree_const_iteratorISt4pairIKN7blocxx66StringENS1_13SSLTrustStore8UserInfoEEEC1Ev@Base 2.1.0
 _ZNSt23_Rb_tree_const_iteratorISt4pairIKN7blocxx66StringENS1_13SSLTrustStore8UserInfoEEEC2EPKSt13_Rb_tree_nodeIS6_E@Base 2.1.0
 _ZNSt23_Rb_tree_const_iteratorISt4pairIKN7blocxx66StringENS1_13SSLTrustStore8UserInfoEEEC2ERKSt17_Rb_tree_iteratorIS6_E@Base 2.1.0
 _ZNSt23_Rb_tree_const_iteratorISt4pairIKN7blocxx66StringENS1_13SSLTrustStore8UserInfoEEEC2Ev@Base 2.1.0
 _ZNSt23_Rb_tree_const_iteratorISt4pairIKN7blocxx66StringENS1_13SSLTrustStore8UserInfoEEEmmEv@Base 2.1.0
 _ZNSt23_Rb_tree_const_iteratorISt4pairIKN7blocxx66StringENS1_13SSLTrustStore8UserInfoEEEppEv@Base 2.1.0
 _ZNSt23_Rb_tree_const_iteratorISt4pairIKN7blocxx66StringES2_EEC1EPKSt13_Rb_tree_nodeIS4_E@Base 2.1.0
 _ZNSt23_Rb_tree_const_iteratorISt4pairIKN7blocxx66StringES2_EEC1ERKSt17_Rb_tree_iteratorIS4_E@Base 2.1.0
 _ZNSt23_Rb_tree_const_iteratorISt4pairIKN7blocxx66StringES2_EEC1Ev@Base 2.1.0
 _ZNSt23_Rb_tree_const_iteratorISt4pairIKN7blocxx66StringES2_EEC2EPKSt13_Rb_tree_nodeIS4_E@Base 2.1.0
 _ZNSt23_Rb_tree_const_iteratorISt4pairIKN7blocxx66StringES2_EEC2ERKSt17_Rb_tree_iteratorIS4_E@Base 2.1.0
 _ZNSt23_Rb_tree_const_iteratorISt4pairIKN7blocxx66StringES2_EEC2Ev@Base 2.1.0
 _ZNSt23_Rb_tree_const_iteratorISt4pairIKN7blocxx66StringES2_EEmmEv@Base 2.1.0
 _ZNSt23_Rb_tree_const_iteratorISt4pairIKN7blocxx66StringES2_EEppEv@Base 2.1.0
 _ZNSt23_Rb_tree_const_iteratorISt4pairIKiiEEC1ERKSt17_Rb_tree_iteratorIS2_E@Base 2.1.0
 _ZNSt23_Rb_tree_const_iteratorISt4pairIKiiEEC2ERKSt17_Rb_tree_iteratorIS2_E@Base 2.1.0
 _ZNSt23_Rb_tree_const_iteratorISt4pairIKiiEEmmEv@Base 2.1.0
 _ZNSt23_Rb_tree_const_iteratorISt4pairIKiiEEppEv@Base 2.1.0
 _ZNSt23_Rb_tree_const_iteratorISt4pairIKmN7blocxx617GenericRWLockImplImNS2_8RWLocker14ThreadComparerEE10LockerInfoEEEC1EPKSt13_Rb_tree_nodeIS8_E@Base 2.1.0
 _ZNSt23_Rb_tree_const_iteratorISt4pairIKmN7blocxx617GenericRWLockImplImNS2_8RWLocker14ThreadComparerEE10LockerInfoEEEC1ERKSt17_Rb_tree_iteratorIS8_E@Base 2.1.0
 _ZNSt23_Rb_tree_const_iteratorISt4pairIKmN7blocxx617GenericRWLockImplImNS2_8RWLocker14ThreadComparerEE10LockerInfoEEEC2EPKSt13_Rb_tree_nodeIS8_E@Base 2.1.0
 _ZNSt23_Rb_tree_const_iteratorISt4pairIKmN7blocxx617GenericRWLockImplImNS2_8RWLocker14ThreadComparerEE10LockerInfoEEEC2ERKSt17_Rb_tree_iteratorIS8_E@Base 2.1.0
 _ZNSt4fposI11__mbstate_tE5stateES0_@Base 2.1.0
 _ZNSt4fposI11__mbstate_tEC1El@Base 2.1.0
 _ZNSt4fposI11__mbstate_tEC2El@Base 2.1.0
 _ZNSt4pairIKN7blocxx66StringENS0_13SSLTrustStore8UserInfoEEC1ERKS5_@Base 2.1.0
 _ZNSt4pairIKN7blocxx66StringENS0_13SSLTrustStore8UserInfoEEC1ERS2_RKS4_@Base 2.1.0
 _ZNSt4pairIKN7blocxx66StringENS0_13SSLTrustStore8UserInfoEEC1IS1_S4_EERKS_IT_T0_E@Base 2.1.0
 _ZNSt4pairIKN7blocxx66StringENS0_13SSLTrustStore8UserInfoEEC2ERKS5_@Base 2.1.0
 _ZNSt4pairIKN7blocxx66StringENS0_13SSLTrustStore8UserInfoEEC2ERS2_RKS4_@Base 2.1.0
 _ZNSt4pairIKN7blocxx66StringENS0_13SSLTrustStore8UserInfoEEC2IS1_S4_EERKS_IT_T0_E@Base 2.1.0
 _ZNSt4pairIKN7blocxx66StringENS0_13SSLTrustStore8UserInfoEED1Ev@Base 2.1.0
 _ZNSt4pairIKN7blocxx66StringENS0_13SSLTrustStore8UserInfoEED2Ev@Base 2.1.0
 _ZNSt4pairIKN7blocxx66StringES1_EC1ERKS3_@Base 2.1.0
 _ZNSt4pairIKN7blocxx66StringES1_EC1ERS2_S4_@Base 2.1.0
 _ZNSt4pairIKN7blocxx66StringES1_EC2ERKS3_@Base 2.1.0
 _ZNSt4pairIKN7blocxx66StringES1_EC2ERS2_S4_@Base 2.1.0
 _ZNSt4pairIKN7blocxx66StringES1_ED1Ev@Base 2.1.0
 _ZNSt4pairIKN7blocxx66StringES1_ED2Ev@Base 2.1.0
 _ZNSt4pairIKiN7blocxx612SelectEngine4DataEEC1IiS3_EERKS_IT_T0_E@Base 2.1.0
 _ZNSt4pairIKiN7blocxx612SelectEngine4DataEEC2IiS3_EERKS_IT_T0_E@Base 2.1.0
 _ZNSt4pairIKiN7blocxx612SelectEngine4DataEED1Ev@Base 2.1.0
 _ZNSt4pairIKiN7blocxx612SelectEngine4DataEED2Ev@Base 2.1.0
 _ZNSt4pairIKiN7blocxx65ArrayINS1_6StringEEEEC1ERS0_RKS4_@Base 2.1.0
 _ZNSt4pairIKiN7blocxx65ArrayINS1_6StringEEEEC2ERS0_RKS4_@Base 2.1.0
 _ZNSt4pairIKiN7blocxx65ArrayINS1_6StringEEEED1Ev@Base 2.1.0
 _ZNSt4pairIKiN7blocxx65ArrayINS1_6StringEEEED2Ev@Base 2.1.0
 _ZNSt4pairIKiiEC1ERS0_S2_@Base 2.1.0
 _ZNSt4pairIKiiEC2ERS0_S2_@Base 2.1.0
 _ZNSt4pairIKiiED1Ev@Base 2.1.0
 _ZNSt4pairIKiiED2Ev@Base 2.1.0
 _ZNSt4pairIKmN7blocxx617GenericRWLockImplImNS1_8RWLocker14ThreadComparerEE10LockerInfoEEC1ERS0_RKS6_@Base 2.1.0
 _ZNSt4pairIKmN7blocxx617GenericRWLockImplImNS1_8RWLocker14ThreadComparerEE10LockerInfoEEC2ERS0_RKS6_@Base 2.1.0
 _ZNSt4pairIKmN7blocxx617GenericRWLockImplImNS1_8RWLocker14ThreadComparerEE10LockerInfoEED1Ev@Base 2.1.0
 _ZNSt4pairIKmN7blocxx617GenericRWLockImplImNS1_8RWLocker14ThreadComparerEE10LockerInfoEED2Ev@Base 2.1.0
 _ZNSt4pairIN11__gnu_debug14_Safe_iteratorIN9__gnu_cxx17__normal_iteratorIPS_IiN7blocxx612SelectEngine4DataEENSt9__cxx19986vectorIS7_SaIS7_EEEEENSt7__debug6vectorIS7_SB_EEEEbEC1ERKSH_RKb@Base 2.1.0
 _ZNSt4pairIN11__gnu_debug14_Safe_iteratorIN9__gnu_cxx17__normal_iteratorIPS_IiN7blocxx612SelectEngine4DataEENSt9__cxx19986vectorIS7_SaIS7_EEEEENSt7__debug6vectorIS7_SB_EEEEbEC2ERKSH_RKb@Base 2.1.0
 _ZNSt4pairIN11__gnu_debug14_Safe_iteratorIN9__gnu_cxx17__normal_iteratorIPS_IiN7blocxx612SelectEngine4DataEENSt9__cxx19986vectorIS7_SaIS7_EEEEENSt7__debug6vectorIS7_SB_EEEEbED1Ev@Base 2.1.0
 _ZNSt4pairIN11__gnu_debug14_Safe_iteratorIN9__gnu_cxx17__normal_iteratorIPS_IiN7blocxx612SelectEngine4DataEENSt9__cxx19986vectorIS7_SaIS7_EEEEENSt7__debug6vectorIS7_SB_EEEEbED2Ev@Base 2.1.0
 _ZNSt4pairIN11__gnu_debug14_Safe_iteratorISt17_Rb_tree_iteratorIS_IKN7blocxx66StringENS3_13SSLTrustStore8UserInfoEEENSt7__debug3mapIS4_S7_St4lessIS4_ESaIS8_EEEEEbEC1ERKSG_RKb@Base 2.1.0
 _ZNSt4pairIN11__gnu_debug14_Safe_iteratorISt17_Rb_tree_iteratorIS_IKN7blocxx66StringENS3_13SSLTrustStore8UserInfoEEENSt7__debug3mapIS4_S7_St4lessIS4_ESaIS8_EEEEEbEC2ERKSG_RKb@Base 2.1.0
 _ZNSt4pairIN11__gnu_debug14_Safe_iteratorISt17_Rb_tree_iteratorIS_IKN7blocxx66StringENS3_13SSLTrustStore8UserInfoEEENSt7__debug3mapIS4_S7_St4lessIS4_ESaIS8_EEEEEbED1Ev@Base 2.1.0
 _ZNSt4pairIN11__gnu_debug14_Safe_iteratorISt17_Rb_tree_iteratorIS_IKN7blocxx66StringENS3_13SSLTrustStore8UserInfoEEENSt7__debug3mapIS4_S7_St4lessIS4_ESaIS8_EEEEEbED2Ev@Base 2.1.0
 _ZNSt4pairIN11__gnu_debug14_Safe_iteratorISt17_Rb_tree_iteratorIS_IKmN7blocxx617GenericRWLockImplImNS4_8RWLocker14ThreadComparerEE10LockerInfoEEENSt7__debug3mapImS9_S7_SaISA_EEEEEbEC1ERKSG_RKb@Base 2.1.0
 _ZNSt4pairIN11__gnu_debug14_Safe_iteratorISt17_Rb_tree_iteratorIS_IKmN7blocxx617GenericRWLockImplImNS4_8RWLocker14ThreadComparerEE10LockerInfoEEENSt7__debug3mapImS9_S7_SaISA_EEEEEbEC2ERKSG_RKb@Base 2.1.0
 _ZNSt4pairIN11__gnu_debug14_Safe_iteratorISt17_Rb_tree_iteratorIS_IKmN7blocxx617GenericRWLockImplImNS4_8RWLocker14ThreadComparerEE10LockerInfoEEENSt7__debug3mapImS9_S7_SaISA_EEEEEbED1Ev@Base 2.1.0
 _ZNSt4pairIN11__gnu_debug14_Safe_iteratorISt17_Rb_tree_iteratorIS_IKmN7blocxx617GenericRWLockImplImNS4_8RWLocker14ThreadComparerEE10LockerInfoEEENSt7__debug3mapImS9_S7_SaISA_EEEEEbED2Ev@Base 2.1.0
 _ZNSt4pairIN7blocxx610FileSystem4Path9ESecurityENS0_6StringEEC1ERKS3_RKS4_@Base 2.1.0
 _ZNSt4pairIN7blocxx610FileSystem4Path9ESecurityENS0_6StringEEC2ERKS3_RKS4_@Base 2.1.0
 _ZNSt4pairIN7blocxx610FileSystem4Path9ESecurityENS0_6StringEED1Ev@Base 2.1.0
 _ZNSt4pairIN7blocxx610FileSystem4Path9ESecurityENS0_6StringEED2Ev@Base 2.1.0
 _ZNSt4pairIN7blocxx66StringENS0_13SSLTrustStore8UserInfoEEC1ERKS1_RKS3_@Base 2.1.0
 _ZNSt4pairIN7blocxx66StringENS0_13SSLTrustStore8UserInfoEEC2ERKS1_RKS3_@Base 2.1.0
 _ZNSt4pairIN7blocxx66StringENS0_13SSLTrustStore8UserInfoEED1Ev@Base 2.1.0
 _ZNSt4pairIN7blocxx66StringENS0_13SSLTrustStore8UserInfoEED2Ev@Base 2.1.0
 _ZNSt4pairIN7blocxx66StringENS0_17EFileStatusReturnEEC1ERKS1_RKS2_@Base 2.1.0
 _ZNSt4pairIN7blocxx66StringENS0_17EFileStatusReturnEEC1ERKS3_@Base 2.1.0
 _ZNSt4pairIN7blocxx66StringENS0_17EFileStatusReturnEEC2ERKS1_RKS2_@Base 2.1.0
 _ZNSt4pairIN7blocxx66StringENS0_17EFileStatusReturnEEC2ERKS3_@Base 2.1.0
 _ZNSt4pairIN7blocxx66StringENS0_17EFileStatusReturnEED1Ev@Base 2.1.0
 _ZNSt4pairIN7blocxx66StringENS0_17EFileStatusReturnEED2Ev@Base 2.1.0
 _ZNSt4pairIN7blocxx66StringENS0_17EFileStatusReturnEEaSERKS3_@Base 2.1.0
 _ZNSt4pairISt17_Rb_tree_iteratorIS_IKN7blocxx66StringENS1_13SSLTrustStore8UserInfoEEEbEC1ERKS7_RKb@Base 2.1.0
 _ZNSt4pairISt17_Rb_tree_iteratorIS_IKN7blocxx66StringENS1_13SSLTrustStore8UserInfoEEEbEC2ERKS7_RKb@Base 2.1.0
 _ZNSt4pairISt17_Rb_tree_iteratorIS_IKN7blocxx66StringES2_EEbEC1ERKS5_RKb@Base 2.1.0
 _ZNSt4pairISt17_Rb_tree_iteratorIS_IKN7blocxx66StringES2_EEbEC2ERKS5_RKb@Base 2.1.0
 _ZNSt4pairISt17_Rb_tree_iteratorIS_IKiiEEbEC1ERKS3_RKb@Base 2.1.0
 _ZNSt4pairISt17_Rb_tree_iteratorIS_IKiiEEbEC2ERKS3_RKb@Base 2.1.0
 _ZNSt4pairISt17_Rb_tree_iteratorIS_IKmN7blocxx617GenericRWLockImplImNS2_8RWLocker14ThreadComparerEE10LockerInfoEEEbEC1ERKS9_RKb@Base 2.1.0
 _ZNSt4pairISt17_Rb_tree_iteratorIS_IKmN7blocxx617GenericRWLockImplImNS2_8RWLocker14ThreadComparerEE10LockerInfoEEEbEC2ERKS9_RKb@Base 2.1.0
 _ZNSt4pairIiN7blocxx612SelectEngine4DataEEC1ERKS3_@Base 2.1.0
 _ZNSt4pairIiN7blocxx612SelectEngine4DataEEC1ERKiRKS2_@Base 2.1.0
 _ZNSt4pairIiN7blocxx612SelectEngine4DataEEC1IKiS2_EERKS_IT_T0_E@Base 2.1.0
 _ZNSt4pairIiN7blocxx612SelectEngine4DataEEC2ERKS3_@Base 2.1.0
 _ZNSt4pairIiN7blocxx612SelectEngine4DataEEC2ERKiRKS2_@Base 2.1.0
 _ZNSt4pairIiN7blocxx612SelectEngine4DataEEC2IKiS2_EERKS_IT_T0_E@Base 2.1.0
 _ZNSt4pairIiN7blocxx612SelectEngine4DataEED1Ev@Base 2.1.0
 _ZNSt4pairIiN7blocxx612SelectEngine4DataEED2Ev@Base 2.1.0
 _ZNSt4pairIiN7blocxx612SelectEngine4DataEEaSERKS3_@Base 2.1.0
 _ZNSt4pairIiN7blocxx65ArrayINS0_6StringEEEEC1ERKS4_@Base 2.1.0
 _ZNSt4pairIiN7blocxx65ArrayINS0_6StringEEEEC1IKiS3_EERKS_IT_T0_E@Base 2.1.0
 _ZNSt4pairIiN7blocxx65ArrayINS0_6StringEEEEC2ERKS4_@Base 2.1.0
 _ZNSt4pairIiN7blocxx65ArrayINS0_6StringEEEEC2IKiS3_EERKS_IT_T0_E@Base 2.1.0
 _ZNSt4pairIiN7blocxx65ArrayINS0_6StringEEEED1Ev@Base 2.1.0
 _ZNSt4pairIiN7blocxx65ArrayINS0_6StringEEEED2Ev@Base 2.1.0
 _ZNSt4pairIiN7blocxx65ArrayINS0_6StringEEEEaSERKS4_@Base 2.1.0
 _ZNSt4pairIlN11__gnu_debug14_Safe_iteratorIN9__gnu_cxx17__normal_iteratorIPKN7blocxx66StringENSt9__cxx19986vectorIS5_SaIS5_EEEEENSt7__debug6vectorIS5_SA_EEE19_Distance_precisionEEC1ERKlRKSH_@Base 2.1.0
 _ZNSt4pairIlN11__gnu_debug14_Safe_iteratorIN9__gnu_cxx17__normal_iteratorIPKN7blocxx66StringENSt9__cxx19986vectorIS5_SaIS5_EEEEENSt7__debug6vectorIS5_SA_EEE19_Distance_precisionEEC2ERKlRKSH_@Base 2.1.0
 _ZNSt4pairIlN11__gnu_debug14_Safe_iteratorIN9__gnu_cxx17__normal_iteratorIPKS_IN7blocxx66StringES5_ENSt9__cxx19986vectorIS6_SaIS6_EEEEENSt7__debug6vectorIS6_SB_EEE19_Distance_precisionEEC1ERKlRKSI_@Base 2.1.0
 _ZNSt4pairIlN11__gnu_debug14_Safe_iteratorIN9__gnu_cxx17__normal_iteratorIPKS_IN7blocxx66StringES5_ENSt9__cxx19986vectorIS6_SaIS6_EEEEENSt7__debug6vectorIS6_SB_EEE19_Distance_precisionEEC2ERKlRKSI_@Base 2.1.0
 _ZNSt4pairIlN11__gnu_debug14_Safe_iteratorIN9__gnu_cxx17__normal_iteratorIPKS_IiN7blocxx65ArrayINS4_6StringEEEENSt9__cxx19986vectorIS8_SaIS8_EEEEENSt7__debug6vectorIS8_SD_EEE19_Distance_precisionEEC1ERKlRKSK_@Base 2.1.0
 _ZNSt4pairIlN11__gnu_debug14_Safe_iteratorIN9__gnu_cxx17__normal_iteratorIPKS_IiN7blocxx65ArrayINS4_6StringEEEENSt9__cxx19986vectorIS8_SaIS8_EEEEENSt7__debug6vectorIS8_SD_EEE19_Distance_precisionEEC2ERKlRKSK_@Base 2.1.0
 _ZNSt4pairIlN11__gnu_debug14_Safe_iteratorIN9__gnu_cxx17__normal_iteratorIPN7blocxx618IntrusiveReferenceINS4_6ThreadEEENSt9__cxx19986vectorIS7_SaIS7_EEEEENSt7__debug6vectorIS7_SB_EEE19_Distance_precisionEEC1ERKlRKSI_@Base 2.1.0
 _ZNSt4pairIlN11__gnu_debug14_Safe_iteratorIN9__gnu_cxx17__normal_iteratorIPN7blocxx618IntrusiveReferenceINS4_6ThreadEEENSt9__cxx19986vectorIS7_SaIS7_EEEEENSt7__debug6vectorIS7_SB_EEE19_Distance_precisionEEC2ERKlRKSI_@Base 2.1.0
 _ZNSt4pairIlN11__gnu_debug14_Safe_iteratorIN9__gnu_cxx17__normal_iteratorIPN7blocxx66StringENSt9__cxx19986vectorIS5_SaIS5_EEEEENSt7__debug6vectorIS5_S9_EEE19_Distance_precisionEEC1ERKlRKSG_@Base 2.1.0
 _ZNSt4pairIlN11__gnu_debug14_Safe_iteratorIN9__gnu_cxx17__normal_iteratorIPN7blocxx66StringENSt9__cxx19986vectorIS5_SaIS5_EEEEENSt7__debug6vectorIS5_S9_EEE19_Distance_precisionEEC2ERKlRKSG_@Base 2.1.0
 _ZNSt4pairIlN11__gnu_debug14_Safe_iteratorIN9__gnu_cxx17__normal_iteratorIPS_IiN7blocxx612SelectEngine4DataEENSt9__cxx19986vectorIS7_SaIS7_EEEEENSt7__debug6vectorIS7_SB_EEE19_Distance_precisionEEC1ERKlRKSI_@Base 2.1.0
 _ZNSt4pairIlN11__gnu_debug14_Safe_iteratorIN9__gnu_cxx17__normal_iteratorIPS_IiN7blocxx612SelectEngine4DataEENSt9__cxx19986vectorIS7_SaIS7_EEEEENSt7__debug6vectorIS7_SB_EEE19_Distance_precisionEEC2ERKlRKSI_@Base 2.1.0
 _ZNSt4pairIlN11__gnu_debug14_Safe_iteratorIN9__gnu_cxx17__normal_iteratorIPS_IiN7blocxx65ArrayINS4_6StringEEEENSt9__cxx19986vectorIS8_SaIS8_EEEEENSt7__debug6vectorIS8_SC_EEE19_Distance_precisionEEC1ERKlRKSJ_@Base 2.1.0
 _ZNSt4pairIlN11__gnu_debug14_Safe_iteratorIN9__gnu_cxx17__normal_iteratorIPS_IiN7blocxx65ArrayINS4_6StringEEEENSt9__cxx19986vectorIS8_SaIS8_EEEEENSt7__debug6vectorIS8_SC_EEE19_Distance_precisionEEC2ERKlRKSJ_@Base 2.1.0
 _ZNSt4pairIlN11__gnu_debug14_Safe_iteratorIN9__gnu_cxx17__normal_iteratorIPcNSt9__cxx19986vectorIcSaIcEEEEENSt7__debug6vectorIcS7_EEE19_Distance_precisionEEC1ERKlRKSE_@Base 2.1.0
 _ZNSt4pairIlN11__gnu_debug14_Safe_iteratorIN9__gnu_cxx17__normal_iteratorIPcNSt9__cxx19986vectorIcSaIcEEEEENSt7__debug6vectorIcS7_EEE19_Distance_precisionEEC2ERKlRKSE_@Base 2.1.0
 _ZNSt6locale2idC1Ev@Base 2.1.0
 _ZNSt6locale2idC2Ev@Base 2.1.0
 _ZNSt7__debug3mapIN7blocxx66StringENS1_13SSLTrustStore8UserInfoESt4lessIS2_ESaISt4pairIKS2_S4_EEE3endEv@Base 2.1.0
 _ZNSt7__debug3mapIN7blocxx66StringENS1_13SSLTrustStore8UserInfoESt4lessIS2_ESaISt4pairIKS2_S4_EEE4findERS8_@Base 2.1.0
 _ZNSt7__debug3mapIN7blocxx66StringENS1_13SSLTrustStore8UserInfoESt4lessIS2_ESaISt4pairIKS2_S4_EEE5beginEv@Base 2.1.0
 _ZNSt7__debug3mapIN7blocxx66StringENS1_13SSLTrustStore8UserInfoESt4lessIS2_ESaISt4pairIKS2_S4_EEE6insertERKS9_@Base 2.1.0
 _ZNSt7__debug3mapIN7blocxx66StringENS1_13SSLTrustStore8UserInfoESt4lessIS2_ESaISt4pairIKS2_S4_EEEC1ERKS6_RKSA_@Base 2.1.0
 _ZNSt7__debug3mapIN7blocxx66StringENS1_13SSLTrustStore8UserInfoESt4lessIS2_ESaISt4pairIKS2_S4_EEEC1ERKSB_@Base 2.1.0
 _ZNSt7__debug3mapIN7blocxx66StringENS1_13SSLTrustStore8UserInfoESt4lessIS2_ESaISt4pairIKS2_S4_EEEC2ERKS6_RKSA_@Base 2.1.0
 _ZNSt7__debug3mapIN7blocxx66StringENS1_13SSLTrustStore8UserInfoESt4lessIS2_ESaISt4pairIKS2_S4_EEEC2ERKSB_@Base 2.1.0
 _ZNSt7__debug3mapIN7blocxx66StringENS1_13SSLTrustStore8UserInfoESt4lessIS2_ESaISt4pairIKS2_S4_EEED1Ev@Base 2.1.0
 _ZNSt7__debug3mapIN7blocxx66StringENS1_13SSLTrustStore8UserInfoESt4lessIS2_ESaISt4pairIKS2_S4_EEED2Ev@Base 2.1.0
 _ZNSt7__debug3mapIN7blocxx66StringES2_St4lessIS2_ESaISt4pairIKS2_S2_EEE17_M_invalidate_allEv@Base 2.1.0
 _ZNSt7__debug3mapIN7blocxx66StringES2_St4lessIS2_ESaISt4pairIKS2_S2_EEE3endEv@Base 2.1.0
 _ZNSt7__debug3mapIN7blocxx66StringES2_St4lessIS2_ESaISt4pairIKS2_S2_EEE4findERS6_@Base 2.1.0
 _ZNSt7__debug3mapIN7blocxx66StringES2_St4lessIS2_ESaISt4pairIKS2_S2_EEE5clearEv@Base 2.1.0
 _ZNSt7__debug3mapIN7blocxx66StringES2_St4lessIS2_ESaISt4pairIKS2_S2_EEE5eraseEN11__gnu_debug14_Safe_iteratorISt17_Rb_tree_iteratorIS7_ES9_EE@Base 2.1.0
 _ZNSt7__debug3mapIN7blocxx66StringES2_St4lessIS2_ESaISt4pairIKS2_S2_EEE7_M_baseEv@Base 2.1.0
 _ZNSt7__debug3mapIN7blocxx66StringES2_St4lessIS2_ESaISt4pairIKS2_S2_EEEC1ERKS4_RKS8_@Base 2.1.0
 _ZNSt7__debug3mapIN7blocxx66StringES2_St4lessIS2_ESaISt4pairIKS2_S2_EEEC1ERKS9_@Base 2.1.0
 _ZNSt7__debug3mapIN7blocxx66StringES2_St4lessIS2_ESaISt4pairIKS2_S2_EEEC2ERKS4_RKS8_@Base 2.1.0
 _ZNSt7__debug3mapIN7blocxx66StringES2_St4lessIS2_ESaISt4pairIKS2_S2_EEEC2ERKS9_@Base 2.1.0
 _ZNSt7__debug3mapIN7blocxx66StringES2_St4lessIS2_ESaISt4pairIKS2_S2_EEED1Ev@Base 2.1.0
 _ZNSt7__debug3mapIN7blocxx66StringES2_St4lessIS2_ESaISt4pairIKS2_S2_EEED2Ev@Base 2.1.0
 _ZNSt7__debug3mapIiiSt4lessIiESaISt4pairIKiiEEEC1ERKS2_RKS6_@Base 2.1.0
 _ZNSt7__debug3mapIiiSt4lessIiESaISt4pairIKiiEEEC2ERKS2_RKS6_@Base 2.1.0
 _ZNSt7__debug3mapIiiSt4lessIiESaISt4pairIKiiEEED1Ev@Base 2.1.0
 _ZNSt7__debug3mapIiiSt4lessIiESaISt4pairIKiiEEED2Ev@Base 2.1.0
 _ZNSt7__debug3mapImN7blocxx617GenericRWLockImplImNS1_8RWLocker14ThreadComparerEE10LockerInfoES4_SaISt4pairIKmS6_EEE3endEv@Base 2.1.0
 _ZNSt7__debug3mapImN7blocxx617GenericRWLockImplImNS1_8RWLocker14ThreadComparerEE10LockerInfoES4_SaISt4pairIKmS6_EEE4findERS8_@Base 2.1.0
 _ZNSt7__debug3mapImN7blocxx617GenericRWLockImplImNS1_8RWLocker14ThreadComparerEE10LockerInfoES4_SaISt4pairIKmS6_EEE5eraseEN11__gnu_debug14_Safe_iteratorISt17_Rb_tree_iteratorIS9_ESB_EE@Base 2.1.0
 _ZNSt7__debug3mapImN7blocxx617GenericRWLockImplImNS1_8RWLocker14ThreadComparerEE10LockerInfoES4_SaISt4pairIKmS6_EEE6insertERKS9_@Base 2.1.0
 _ZNSt7__debug3mapImN7blocxx617GenericRWLockImplImNS1_8RWLocker14ThreadComparerEE10LockerInfoES4_SaISt4pairIKmS6_EEEC1ERKS4_RKSA_@Base 2.1.0
 _ZNSt7__debug3mapImN7blocxx617GenericRWLockImplImNS1_8RWLocker14ThreadComparerEE10LockerInfoES4_SaISt4pairIKmS6_EEEC2ERKS4_RKSA_@Base 2.1.0
 _ZNSt7__debug3mapImN7blocxx617GenericRWLockImplImNS1_8RWLocker14ThreadComparerEE10LockerInfoES4_SaISt4pairIKmS6_EEED1Ev@Base 2.1.0
 _ZNSt7__debug3mapImN7blocxx617GenericRWLockImplImNS1_8RWLocker14ThreadComparerEE10LockerInfoES4_SaISt4pairIKmS6_EEED2Ev@Base 2.1.0
 _ZNSt7__debug5dequeIN7blocxx618IntrusiveReferenceINS1_8RunnableEEESaIS4_EE5frontEv@Base 2.1.0
 _ZNSt7__debug5dequeIN7blocxx618IntrusiveReferenceINS1_8RunnableEEESaIS4_EE9pop_frontEv@Base 2.1.0
 _ZNSt7__debug5dequeIN7blocxx618IntrusiveReferenceINS1_8RunnableEEESaIS4_EE9push_backERKS4_@Base 2.1.0
 _ZNSt7__debug5dequeIN7blocxx618IntrusiveReferenceINS1_8RunnableEEESaIS4_EEC1ERKS5_@Base 2.1.0
 _ZNSt7__debug5dequeIN7blocxx618IntrusiveReferenceINS1_8RunnableEEESaIS4_EEC2ERKS5_@Base 2.1.0
 _ZNSt7__debug5dequeIN7blocxx618IntrusiveReferenceINS1_8RunnableEEESaIS4_EED1Ev@Base 2.1.0
 _ZNSt7__debug5dequeIN7blocxx618IntrusiveReferenceINS1_8RunnableEEESaIS4_EED2Ev@Base 2.1.0
 _ZNSt7__debug6vectorI10regmatch_tSaIS1_EE23_M_invalidate_after_nthEl@Base 2.1.0
 _ZNSt7__debug6vectorI10regmatch_tSaIS1_EE24_M_requires_reallocationEm@Base 2.1.0
 _ZNSt7__debug6vectorI10regmatch_tSaIS1_EE29_M_update_guaranteed_capacityEv@Base 2.1.0
 _ZNSt7__debug6vectorI10regmatch_tSaIS1_EE3endEv@Base 2.1.0
 _ZNSt7__debug6vectorI10regmatch_tSaIS1_EE5beginEv@Base 2.1.0
 _ZNSt7__debug6vectorI10regmatch_tSaIS1_EE5clearEv@Base 2.1.0
 _ZNSt7__debug6vectorI10regmatch_tSaIS1_EE6resizeEmS1_@Base 2.1.0
 _ZNSt7__debug6vectorI10regmatch_tSaIS1_EE7_M_baseEv@Base 2.1.0
 _ZNSt7__debug6vectorI10regmatch_tSaIS1_EEC1ERKS2_@Base 2.1.0
 _ZNSt7__debug6vectorI10regmatch_tSaIS1_EEC1ERKS3_@Base 2.1.0
 _ZNSt7__debug6vectorI10regmatch_tSaIS1_EEC2ERKS2_@Base 2.1.0
 _ZNSt7__debug6vectorI10regmatch_tSaIS1_EEC2ERKS3_@Base 2.1.0
 _ZNSt7__debug6vectorI10regmatch_tSaIS1_EED1Ev@Base 2.1.0
 _ZNSt7__debug6vectorI10regmatch_tSaIS1_EED2Ev@Base 2.1.0
 _ZNSt7__debug6vectorI10regmatch_tSaIS1_EEixEm@Base 2.1.0
 _ZNSt7__debug6vectorIN7blocxx618IntrusiveReferenceINS1_11LogAppenderEEESaIS4_EE24_M_requires_reallocationEm@Base 2.1.0
 _ZNSt7__debug6vectorIN7blocxx618IntrusiveReferenceINS1_11LogAppenderEEESaIS4_EE29_M_update_guaranteed_capacityEv@Base 2.1.0
 _ZNSt7__debug6vectorIN7blocxx618IntrusiveReferenceINS1_11LogAppenderEEESaIS4_EE9push_backERKS4_@Base 2.1.0
 _ZNSt7__debug6vectorIN7blocxx618IntrusiveReferenceINS1_11LogAppenderEEESaIS4_EEC1ERKS6_@Base 2.1.0
 _ZNSt7__debug6vectorIN7blocxx618IntrusiveReferenceINS1_11LogAppenderEEESaIS4_EEC1EmRKS4_RKS5_@Base 2.1.0
 _ZNSt7__debug6vectorIN7blocxx618IntrusiveReferenceINS1_11LogAppenderEEESaIS4_EEC2ERKS6_@Base 2.1.0
 _ZNSt7__debug6vectorIN7blocxx618IntrusiveReferenceINS1_11LogAppenderEEESaIS4_EEC2EmRKS4_RKS5_@Base 2.1.0
 _ZNSt7__debug6vectorIN7blocxx618IntrusiveReferenceINS1_11LogAppenderEEESaIS4_EED1Ev@Base 2.1.0
 _ZNSt7__debug6vectorIN7blocxx618IntrusiveReferenceINS1_11LogAppenderEEESaIS4_EED2Ev@Base 2.1.0
 _ZNSt7__debug6vectorIN7blocxx618IntrusiveReferenceINS1_26LogMessagePatternFormatter9ConverterEEESaIS5_EE24_M_requires_reallocationEm@Base 2.1.0
 _ZNSt7__debug6vectorIN7blocxx618IntrusiveReferenceINS1_26LogMessagePatternFormatter9ConverterEEESaIS5_EE29_M_update_guaranteed_capacityEv@Base 2.1.0
 _ZNSt7__debug6vectorIN7blocxx618IntrusiveReferenceINS1_26LogMessagePatternFormatter9ConverterEEESaIS5_EE9push_backERKS5_@Base 2.1.0
 _ZNSt7__debug6vectorIN7blocxx618IntrusiveReferenceINS1_26LogMessagePatternFormatter9ConverterEEESaIS5_EEC1ERKS6_@Base 2.1.0
 _ZNSt7__debug6vectorIN7blocxx618IntrusiveReferenceINS1_26LogMessagePatternFormatter9ConverterEEESaIS5_EEC1ERKS7_@Base 2.1.0
