libblocxx.so.8 libblocxx8 #MINVER#
 _ZGVNSt7num_getIcSt19istreambuf_iteratorIcSt11char_traitsIcEEE2idE@Base 2.3.0~svn544
 _ZGVNSt7num_putIcSt19ostreambuf_iteratorIcSt11char_traitsIcEEE2idE@Base 2.3.0~svn544
 _ZGVNSt8numpunctIcE2idE@Base 2.3.0~svn544
 _ZN11__gnu_debug13_Not_equal_toISt23_Rb_tree_const_iteratorISt4pairIKN7blocxx86StringES4_EEEC1ERKS7_@Base 2.3.0~svn544
 _ZN11__gnu_debug13_Not_equal_toISt23_Rb_tree_const_iteratorISt4pairIKN7blocxx86StringES4_EEEC2ERKS7_@Base 2.3.0~svn544
 _ZN11__gnu_debug13__valid_rangeIN9__gnu_cxx17__normal_iteratorIPK10regmatch_tNSt9__cxx19986vectorIS3_SaIS3_EEEEEEEbRKT_SD_@Base 2.3.0~svn544
 _ZN11__gnu_debug13__valid_rangeIN9__gnu_cxx17__normal_iteratorIPKN7blocxx818IntrusiveReferenceINS3_16ParserOptionImplEEENSt9__cxx19986vectorIS6_SaIS6_EEEEENSt7__debug6vectorIS6_SB_EEEEbRKNS_14_Safe_iteratorIT_T0_EESM_@Base 2.3.0~svn544
 _ZN11__gnu_debug13__valid_rangeIN9__gnu_cxx17__normal_iteratorIPKN7blocxx86StringENSt9__cxx19986vectorIS4_SaIS4_EEEEENSt7__debug6vectorIS4_S9_EEEEbRKNS_14_Safe_iteratorIT_T0_EESK_@Base 2.3.0~svn544
 _ZN11__gnu_debug13__valid_rangeIN9__gnu_cxx17__normal_iteratorIPKN7blocxx89PerlRegEx7match_tENSt9__cxx19986vectorIS5_SaIS5_EEEEEEEbRKT_SF_@Base 2.3.0~svn544
 _ZN11__gnu_debug13__valid_rangeIN9__gnu_cxx17__normal_iteratorIPKPKcNSt9__cxx19986vectorIS4_SaIS4_EEEEEEEbRKT_SE_@Base 2.3.0~svn544
 _ZN11__gnu_debug13__valid_rangeIN9__gnu_cxx17__normal_iteratorIPKSt4pairIN7blocxx86StringES5_ENSt9__cxx19986vectorIS6_SaIS6_EEEEENSt7__debug6vectorIS6_SB_EEEEbRKNS_14_Safe_iteratorIT_T0_EESM_@Base 2.3.0~svn544
 _ZN11__gnu_debug13__valid_rangeIN9__gnu_cxx17__normal_iteratorIPKSt4pairIiN7blocxx85ArrayINS4_6StringEEEENSt9__cxx19986vectorIS8_SaIS8_EEEEENSt7__debug6vectorIS8_SD_EEEEbRKNS_14_Safe_iteratorIT_T0_EESO_@Base 2.3.0~svn544
 _ZN11__gnu_debug13__valid_rangeIN9__gnu_cxx17__normal_iteratorIPKcNSt9__cxx19986vectorIcSaIcEEEEEEEbRKT_SC_@Base 2.3.0~svn544
 _ZN11__gnu_debug13__valid_rangeIN9__gnu_cxx17__normal_iteratorIPKiNSt9__cxx19986vectorIiSaIiEEEEEEEbRKT_SC_@Base 2.3.0~svn544
 _ZN11__gnu_debug13__valid_rangeIN9__gnu_cxx17__normal_iteratorIPKtNSt9__cxx19986vectorItSaItEEEEEEEbRKT_SC_@Base 2.3.0~svn544
 _ZN11__gnu_debug13__valid_rangeIN9__gnu_cxx17__normal_iteratorIPN7blocxx818IntrusiveReferenceINS3_16ParserOptionImplEEENSt9__cxx19986vectorIS6_SaIS6_EEEEENSt7__debug6vectorIS6_SA_EEEEbRKNS_14_Safe_iteratorIT_T0_EESL_@Base 2.3.0~svn544
 _ZN11__gnu_debug13__valid_rangeIN9__gnu_cxx17__normal_iteratorIPN7blocxx818IntrusiveReferenceINS3_6ThreadEEENSt9__cxx19986vectorIS6_SaIS6_EEEEEEEbRKT_SF_@Base 2.3.0~svn544
 _ZN11__gnu_debug13__valid_rangeIN9__gnu_cxx17__normal_iteratorIPN7blocxx86StringENSt9__cxx19986vectorIS4_SaIS4_EEEEEEEbRKT_SD_@Base 2.3.0~svn544
 _ZN11__gnu_debug13__valid_rangeIN9__gnu_cxx17__normal_iteratorIPN7blocxx86StringENSt9__cxx19986vectorIS4_SaIS4_EEEEENSt7__debug6vectorIS4_S8_EEEEbRKNS_14_Safe_iteratorIT_T0_EESJ_@Base 2.3.0~svn544
 _ZN11__gnu_debug13__valid_rangeIN9__gnu_cxx17__normal_iteratorIPSt4pairIiN7blocxx812SelectEngine4DataEENSt9__cxx19986vectorIS7_SaIS7_EEEEEEEbRKT_SG_@Base 2.3.0~svn544
 _ZN11__gnu_debug13__valid_rangeIN9__gnu_cxx17__normal_iteratorIPSt4pairIiN7blocxx812SelectEngine4DataEENSt9__cxx19986vectorIS7_SaIS7_EEEEENSt7__debug6vectorIS7_SB_EEEEbRKNS_14_Safe_iteratorIT_T0_EESM_@Base 2.3.0~svn544
 _ZN11__gnu_debug13__valid_rangeIN9__gnu_cxx17__normal_iteratorIPSt4pairIiN7blocxx85ArrayINS4_6StringEEEENSt9__cxx19986vectorIS8_SaIS8_EEEEENSt7__debug6vectorIS8_SC_EEEEbRKNS_14_Safe_iteratorIT_T0_EESN_@Base 2.3.0~svn544
 _ZN11__gnu_debug13__valid_rangeIN9__gnu_cxx17__normal_iteratorIPcNSt9__cxx19986vectorIcSaIcEEEEEEEbRKT_SB_@Base 2.3.0~svn544
 _ZN11__gnu_debug13__valid_rangeIN9__gnu_cxx17__normal_iteratorIPcNSt9__cxx19986vectorIcSaIcEEEEENSt7__debug6vectorIcS6_EEEEbRKNS_14_Safe_iteratorIT_T0_EESH_@Base 2.3.0~svn544
 _ZN11__gnu_debug13__valid_rangeIPKcEEbRKT_S5_@Base 2.3.0~svn544
 _ZN11__gnu_debug13__valid_rangeIPN7blocxx818IntrusiveReferenceINS1_11LogAppenderEEEEEbRKT_S8_@Base 2.3.0~svn544
 _ZN11__gnu_debug13__valid_rangeIPN7blocxx818IntrusiveReferenceINS1_16ParserOptionImplEEEEEbRKT_S8_@Base 2.3.0~svn544
 _ZN11__gnu_debug13__valid_rangeIPN7blocxx818IntrusiveReferenceINS1_26LogMessagePatternFormatter9ConverterEEEEEbRKT_S9_@Base 2.3.0~svn544
 _ZN11__gnu_debug13__valid_rangeIPN7blocxx818IntrusiveReferenceINS1_6ThreadEEEEEbRKT_S8_@Base 2.3.0~svn544
 _ZN11__gnu_debug13__valid_rangeIPN7blocxx818IntrusiveReferenceINS1_7ProcessEEEEEbRKT_S8_@Base 2.3.0~svn544
 _ZN11__gnu_debug13__valid_rangeIPN7blocxx86Select12SelectObjectEEEbRKT_S7_@Base 2.3.0~svn544
 _ZN11__gnu_debug13__valid_rangeIPN7blocxx86StringEEEbRKT_S6_@Base 2.3.0~svn544
 _ZN11__gnu_debug13__valid_rangeIPPKcEEbRKT_S6_@Base 2.3.0~svn544
 _ZN11__gnu_debug13__valid_rangeIPPN7blocxx818IntrusiveReferenceINS1_8RunnableEEEEEbRKT_S9_@Base 2.3.0~svn544
 _ZN11__gnu_debug13__valid_rangeIPPcEEbRKT_S5_@Base 2.3.0~svn544
 _ZN11__gnu_debug13__valid_rangeIPSt4pairIN7blocxx86StringENS2_17EFileStatusReturnEEEEbRKT_S9_@Base 2.3.0~svn544
 _ZN11__gnu_debug13__valid_rangeIPSt4pairIiN7blocxx812SelectEngine4DataEEEEbRKT_S9_@Base 2.3.0~svn544
 _ZN11__gnu_debug13__valid_rangeIPSt4pairIiN7blocxx85ArrayINS2_6StringEEEEEEbRKT_SA_@Base 2.3.0~svn544
 _ZN11__gnu_debug13__valid_rangeIPcEEbRKT_S4_@Base 2.3.0~svn544
 _ZN11__gnu_debug13__valid_rangeIPhEEbRKT_S4_@Base 2.3.0~svn544
 _ZN11__gnu_debug13__valid_rangeIPiEEbRKT_S4_@Base 2.3.0~svn544
 _ZN11__gnu_debug13__valid_rangeIPtEEbRKT_S4_@Base 2.3.0~svn544
 _ZN11__gnu_debug13__valid_rangeISt13move_iteratorIP10regmatch_tEEEbRKT_S7_@Base 2.3.0~svn544
 _ZN11__gnu_debug13__valid_rangeISt13move_iteratorIPN7blocxx89PerlRegEx7match_tEEEEbRKT_S9_@Base 2.3.0~svn544
 _ZN11__gnu_debug13__valid_rangeISt13move_iteratorIPPKcEEEbRKT_S8_@Base 2.3.0~svn544
 _ZN11__gnu_debug13__valid_rangeISt13move_iteratorIPcEEEbRKT_S6_@Base 2.3.0~svn544
 _ZN11__gnu_debug13__valid_rangeISt13move_iteratorIPhEEEbRKT_S6_@Base 2.3.0~svn544
 _ZN11__gnu_debug13__valid_rangeISt13move_iteratorIPiEEEbRKT_S6_@Base 2.3.0~svn544
 _ZN11__gnu_debug13__valid_rangeISt13move_iteratorIPtEEEbRKT_S6_@Base 2.3.0~svn544
 _ZN11__gnu_debug14_Safe_iteratorIN9__gnu_cxx17__normal_iteratorIP10regmatch_tNSt9__cxx19986vectorIS3_SaIS3_EEEEENSt7__debug6vectorIS3_S7_EEEC1ERKS9_PKSC_@Base 2.3.0~svn544
 _ZN11__gnu_debug14_Safe_iteratorIN9__gnu_cxx17__normal_iteratorIP10regmatch_tNSt9__cxx19986vectorIS3_SaIS3_EEEEENSt7__debug6vectorIS3_S7_EEEC2ERKS9_PKSC_@Base 2.3.0~svn544
 _ZN11__gnu_debug14_Safe_iteratorIN9__gnu_cxx17__normal_iteratorIP10regmatch_tNSt9__cxx19986vectorIS3_SaIS3_EEEEENSt7__debug6vectorIS3_S7_EEED1Ev@Base 2.3.0~svn544
 _ZN11__gnu_debug14_Safe_iteratorIN9__gnu_cxx17__normal_iteratorIP10regmatch_tNSt9__cxx19986vectorIS3_SaIS3_EEEEENSt7__debug6vectorIS3_S7_EEED2Ev@Base 2.3.0~svn544
 _ZN11__gnu_debug14_Safe_iteratorIN9__gnu_cxx17__normal_iteratorIPK10regmatch_tNSt9__cxx19986vectorIS3_SaIS3_EEEEENSt7__debug6vectorIS3_S8_EEEC1INS2_IPS3_S9_EEEERKNS0_IT_NS1_11__enable_ifIXsrSt10__are_sameISI_SH_E7__valueESD_E6__typeEEE@Base 2.3.0~svn544
 _ZN11__gnu_debug14_Safe_iteratorIN9__gnu_cxx17__normal_iteratorIPK10regmatch_tNSt9__cxx19986vectorIS3_SaIS3_EEEEENSt7__debug6vectorIS3_S8_EEEC2INS2_IPS3_S9_EEEERKNS0_IT_NS1_11__enable_ifIXsrSt10__are_sameISI_SH_E7__valueESD_E6__typeEEE@Base 2.3.0~svn544
 _ZN11__gnu_debug14_Safe_iteratorIN9__gnu_cxx17__normal_iteratorIPK10regmatch_tNSt9__cxx19986vectorIS3_SaIS3_EEEEENSt7__debug6vectorIS3_S8_EEED1Ev@Base 2.3.0~svn544
 _ZN11__gnu_debug14_Safe_iteratorIN9__gnu_cxx17__normal_iteratorIPK10regmatch_tNSt9__cxx19986vectorIS3_SaIS3_EEEEENSt7__debug6vectorIS3_S8_EEED2Ev@Base 2.3.0~svn544
 _ZN11__gnu_debug14_Safe_iteratorIN9__gnu_cxx17__normal_iteratorIPK10regmatch_tNSt9__cxx19986vectorIS3_SaIS3_EEEEENSt7__debug6vectorIS3_S8_EEEppEv@Base 2.3.0~svn544
 _ZN11__gnu_debug14_Safe_iteratorIN9__gnu_cxx17__normal_iteratorIPKN7blocxx818IntrusiveReferenceINS3_16ParserOptionImplEEENSt9__cxx19986vectorIS6_SaIS6_EEEEENSt7__debug6vectorIS6_SB_EEE15_M_get_distanceISD_SD_EESt4pairIlNSH_19_Distance_precisionEERKT_RKT0_@Base 2.3.0~svn544
 _ZN11__gnu_debug14_Safe_iteratorIN9__gnu_cxx17__normal_iteratorIPKN7blocxx818IntrusiveReferenceINS3_16ParserOptionImplEEENSt9__cxx19986vectorIS6_SaIS6_EEEEENSt7__debug6vectorIS6_SB_EEE15_M_get_distanceISD_SD_EESt4pairIlNSH_19_Distance_precisionEERKT_RKT0_St26random_access_iterator_tag@Base 2.3.0~svn544
 _ZN11__gnu_debug14_Safe_iteratorIN9__gnu_cxx17__normal_iteratorIPKN7blocxx818IntrusiveReferenceINS3_16ParserOptionImplEEENSt9__cxx19986vectorIS6_SaIS6_EEEEENSt7__debug6vectorIS6_SB_EEE9_M_attachEPNS_19_Safe_sequence_baseE@Base 2.3.0~svn544
 _ZN11__gnu_debug14_Safe_iteratorIN9__gnu_cxx17__normal_iteratorIPKN7blocxx818IntrusiveReferenceINS3_16ParserOptionImplEEENSt9__cxx19986vectorIS6_SaIS6_EEEEENSt7__debug6vectorIS6_SB_EEEC1ERKSD_PKSG_@Base 2.3.0~svn544
 _ZN11__gnu_debug14_Safe_iteratorIN9__gnu_cxx17__normal_iteratorIPKN7blocxx818IntrusiveReferenceINS3_16ParserOptionImplEEENSt9__cxx19986vectorIS6_SaIS6_EEEEENSt7__debug6vectorIS6_SB_EEEC1ERKSH_@Base 2.3.0~svn544
 _ZN11__gnu_debug14_Safe_iteratorIN9__gnu_cxx17__normal_iteratorIPKN7blocxx818IntrusiveReferenceINS3_16ParserOptionImplEEENSt9__cxx19986vectorIS6_SaIS6_EEEEENSt7__debug6vectorIS6_SB_EEEC1INS2_IPS6_SC_EEEERKNS0_IT_NS1_11__enable_ifIXsrSt10__are_sameISL_SK_E7__valueESG_E6__typeEEE@Base 2.3.0~svn544
 _ZN11__gnu_debug14_Safe_iteratorIN9__gnu_cxx17__normal_iteratorIPKN7blocxx818IntrusiveReferenceINS3_16ParserOptionImplEEENSt9__cxx19986vectorIS6_SaIS6_EEEEENSt7__debug6vectorIS6_SB_EEEC2ERKSD_PKSG_@Base 2.3.0~svn544
 _ZN11__gnu_debug14_Safe_iteratorIN9__gnu_cxx17__normal_iteratorIPKN7blocxx818IntrusiveReferenceINS3_16ParserOptionImplEEENSt9__cxx19986vectorIS6_SaIS6_EEEEENSt7__debug6vectorIS6_SB_EEEC2ERKSH_@Base 2.3.0~svn544
 _ZN11__gnu_debug14_Safe_iteratorIN9__gnu_cxx17__normal_iteratorIPKN7blocxx818IntrusiveReferenceINS3_16ParserOptionImplEEENSt9__cxx19986vectorIS6_SaIS6_EEEEENSt7__debug6vectorIS6_SB_EEEC2INS2_IPS6_SC_EEEERKNS0_IT_NS1_11__enable_ifIXsrSt10__are_sameISL_SK_E7__valueESG_E6__typeEEE@Base 2.3.0~svn544
 _ZN11__gnu_debug14_Safe_iteratorIN9__gnu_cxx17__normal_iteratorIPKN7blocxx818IntrusiveReferenceINS3_16ParserOptionImplEEENSt9__cxx19986vectorIS6_SaIS6_EEEEENSt7__debug6vectorIS6_SB_EEED1Ev@Base 2.3.0~svn544
 _ZN11__gnu_debug14_Safe_iteratorIN9__gnu_cxx17__normal_iteratorIPKN7blocxx818IntrusiveReferenceINS3_16ParserOptionImplEEENSt9__cxx19986vectorIS6_SaIS6_EEEEENSt7__debug6vectorIS6_SB_EEED2Ev@Base 2.3.0~svn544
 _ZN11__gnu_debug14_Safe_iteratorIN9__gnu_cxx17__normal_iteratorIPKN7blocxx818IntrusiveReferenceINS3_16ParserOptionImplEEENSt9__cxx19986vectorIS6_SaIS6_EEEEENSt7__debug6vectorIS6_SB_EEEaSERKSH_@Base 2.3.0~svn544
 _ZN11__gnu_debug14_Safe_iteratorIN9__gnu_cxx17__normal_iteratorIPKN7blocxx818IntrusiveReferenceINS3_16ParserOptionImplEEENSt9__cxx19986vectorIS6_SaIS6_EEEEENSt7__debug6vectorIS6_SB_EEEppEv@Base 2.3.0~svn544
 _ZN11__gnu_debug14_Safe_iteratorIN9__gnu_cxx17__normal_iteratorIPKN7blocxx818IntrusiveReferenceINS3_26LogMessagePatternFormatter9ConverterEEENSt9__cxx19986vectorIS7_SaIS7_EEEEENSt7__debug6vectorIS7_SC_EEEC1ERKSE_PKSH_@Base 2.3.0~svn544
 _ZN11__gnu_debug14_Safe_iteratorIN9__gnu_cxx17__normal_iteratorIPKN7blocxx818IntrusiveReferenceINS3_26LogMessagePatternFormatter9ConverterEEENSt9__cxx19986vectorIS7_SaIS7_EEEEENSt7__debug6vectorIS7_SC_EEEC2ERKSE_PKSH_@Base 2.3.0~svn544
 _ZN11__gnu_debug14_Safe_iteratorIN9__gnu_cxx17__normal_iteratorIPKN7blocxx818IntrusiveReferenceINS3_26LogMessagePatternFormatter9ConverterEEENSt9__cxx19986vectorIS7_SaIS7_EEEEENSt7__debug6vectorIS7_SC_EEED1Ev@Base 2.3.0~svn544
 _ZN11__gnu_debug14_Safe_iteratorIN9__gnu_cxx17__normal_iteratorIPKN7blocxx818IntrusiveReferenceINS3_26LogMessagePatternFormatter9ConverterEEENSt9__cxx19986vectorIS7_SaIS7_EEEEENSt7__debug6vectorIS7_SC_EEED2Ev@Base 2.3.0~svn544
 _ZN11__gnu_debug14_Safe_iteratorIN9__gnu_cxx17__normal_iteratorIPKN7blocxx818IntrusiveReferenceINS3_26LogMessagePatternFormatter9ConverterEEENSt9__cxx19986vectorIS7_SaIS7_EEEEENSt7__debug6vectorIS7_SC_EEEppEv@Base 2.3.0~svn544
 _ZN11__gnu_debug14_Safe_iteratorIN9__gnu_cxx17__normal_iteratorIPKN7blocxx86StringENSt9__cxx19986vectorIS4_SaIS4_EEEEENSt7__debug6vectorIS4_S9_EEE15_M_get_distanceISB_SB_EESt4pairIlNSF_19_Distance_precisionEERKT_RKT0_@Base 2.3.0~svn544
 _ZN11__gnu_debug14_Safe_iteratorIN9__gnu_cxx17__normal_iteratorIPKN7blocxx86StringENSt9__cxx19986vectorIS4_SaIS4_EEEEENSt7__debug6vectorIS4_S9_EEE15_M_get_distanceISB_SB_EESt4pairIlNSF_19_Distance_precisionEERKT_RKT0_St26random_access_iterator_tag@Base 2.3.0~svn544
 _ZN11__gnu_debug14_Safe_iteratorIN9__gnu_cxx17__normal_iteratorIPKN7blocxx86StringENSt9__cxx19986vectorIS4_SaIS4_EEEEENSt7__debug6vectorIS4_S9_EEE9_M_attachEPNS_19_Safe_sequence_baseE@Base 2.3.0~svn544
 _ZN11__gnu_debug14_Safe_iteratorIN9__gnu_cxx17__normal_iteratorIPKN7blocxx86StringENSt9__cxx19986vectorIS4_SaIS4_EEEEENSt7__debug6vectorIS4_S9_EEEC1ERKSB_PKSE_@Base 2.3.0~svn544
 _ZN11__gnu_debug14_Safe_iteratorIN9__gnu_cxx17__normal_iteratorIPKN7blocxx86StringENSt9__cxx19986vectorIS4_SaIS4_EEEEENSt7__debug6vectorIS4_S9_EEEC1ERKSF_@Base 2.3.0~svn544
 _ZN11__gnu_debug14_Safe_iteratorIN9__gnu_cxx17__normal_iteratorIPKN7blocxx86StringENSt9__cxx19986vectorIS4_SaIS4_EEEEENSt7__debug6vectorIS4_S9_EEEC1Ev@Base 2.3.0~svn544
 _ZN11__gnu_debug14_Safe_iteratorIN9__gnu_cxx17__normal_iteratorIPKN7blocxx86StringENSt9__cxx19986vectorIS4_SaIS4_EEEEENSt7__debug6vectorIS4_S9_EEEC1INS2_IPS4_SA_EEEERKNS0_IT_NS1_11__enable_ifIXsrSt10__are_sameISJ_SI_E7__valueESE_E6__typeEEE@Base 2.3.0~svn544
 _ZN11__gnu_debug14_Safe_iteratorIN9__gnu_cxx17__normal_iteratorIPKN7blocxx86StringENSt9__cxx19986vectorIS4_SaIS4_EEEEENSt7__debug6vectorIS4_S9_EEEC2ERKSB_PKSE_@Base 2.3.0~svn544
 _ZN11__gnu_debug14_Safe_iteratorIN9__gnu_cxx17__normal_iteratorIPKN7blocxx86StringENSt9__cxx19986vectorIS4_SaIS4_EEEEENSt7__debug6vectorIS4_S9_EEEC2ERKSF_@Base 2.3.0~svn544
 _ZN11__gnu_debug14_Safe_iteratorIN9__gnu_cxx17__normal_iteratorIPKN7blocxx86StringENSt9__cxx19986vectorIS4_SaIS4_EEEEENSt7__debug6vectorIS4_S9_EEEC2Ev@Base 2.3.0~svn544
 _ZN11__gnu_debug14_Safe_iteratorIN9__gnu_cxx17__normal_iteratorIPKN7blocxx86StringENSt9__cxx19986vectorIS4_SaIS4_EEEEENSt7__debug6vectorIS4_S9_EEEC2INS2_IPS4_SA_EEEERKNS0_IT_NS1_11__enable_ifIXsrSt10__are_sameISJ_SI_E7__valueESE_E6__typeEEE@Base 2.3.0~svn544
 _ZN11__gnu_debug14_Safe_iteratorIN9__gnu_cxx17__normal_iteratorIPKN7blocxx86StringENSt9__cxx19986vectorIS4_SaIS4_EEEEENSt7__debug6vectorIS4_S9_EEED1Ev@Base 2.3.0~svn544
 _ZN11__gnu_debug14_Safe_iteratorIN9__gnu_cxx17__normal_iteratorIPKN7blocxx86StringENSt9__cxx19986vectorIS4_SaIS4_EEEEENSt7__debug6vectorIS4_S9_EEED2Ev@Base 2.3.0~svn544
 _ZN11__gnu_debug14_Safe_iteratorIN9__gnu_cxx17__normal_iteratorIPKN7blocxx86StringENSt9__cxx19986vectorIS4_SaIS4_EEEEENSt7__debug6vectorIS4_S9_EEEaSERKSF_@Base 2.3.0~svn544
 _ZN11__gnu_debug14_Safe_iteratorIN9__gnu_cxx17__normal_iteratorIPKN7blocxx86StringENSt9__cxx19986vectorIS4_SaIS4_EEEEENSt7__debug6vectorIS4_S9_EEEpLERKl@Base 2.3.0~svn544
 _ZN11__gnu_debug14_Safe_iteratorIN9__gnu_cxx17__normal_iteratorIPKN7blocxx86StringENSt9__cxx19986vectorIS4_SaIS4_EEEEENSt7__debug6vectorIS4_S9_EEEppEv@Base 2.3.0~svn544
 _ZN11__gnu_debug14_Safe_iteratorIN9__gnu_cxx17__normal_iteratorIPKN7blocxx89PerlRegEx7match_tENSt9__cxx19986vectorIS5_SaIS5_EEEEENSt7__debug6vectorIS5_SA_EEEC1INS2_IPS5_SB_EEEERKNS0_IT_NS1_11__enable_ifIXsrSt10__are_sameISK_SJ_E7__valueESF_E6__typeEEE@Base 2.3.0~svn544
 _ZN11__gnu_debug14_Safe_iteratorIN9__gnu_cxx17__normal_iteratorIPKN7blocxx89PerlRegEx7match_tENSt9__cxx19986vectorIS5_SaIS5_EEEEENSt7__debug6vectorIS5_SA_EEEC2INS2_IPS5_SB_EEEERKNS0_IT_NS1_11__enable_ifIXsrSt10__are_sameISK_SJ_E7__valueESF_E6__typeEEE@Base 2.3.0~svn544
 _ZN11__gnu_debug14_Safe_iteratorIN9__gnu_cxx17__normal_iteratorIPKN7blocxx89PerlRegEx7match_tENSt9__cxx19986vectorIS5_SaIS5_EEEEENSt7__debug6vectorIS5_SA_EEED1Ev@Base 2.3.0~svn544
 _ZN11__gnu_debug14_Safe_iteratorIN9__gnu_cxx17__normal_iteratorIPKN7blocxx89PerlRegEx7match_tENSt9__cxx19986vectorIS5_SaIS5_EEEEENSt7__debug6vectorIS5_SA_EEED2Ev@Base 2.3.0~svn544
 _ZN11__gnu_debug14_Safe_iteratorIN9__gnu_cxx17__normal_iteratorIPKN7blocxx89PerlRegEx7match_tENSt9__cxx19986vectorIS5_SaIS5_EEEEENSt7__debug6vectorIS5_SA_EEEppEv@Base 2.3.0~svn544
 _ZN11__gnu_debug14_Safe_iteratorIN9__gnu_cxx17__normal_iteratorIPKSt4pairIN7blocxx86StringENS4_17EFileStatusReturnEENSt9__cxx19986vectorIS7_SaIS7_EEEEENSt7__debug6vectorIS7_SC_EEEC1ERKSE_PKSH_@Base 2.3.0~svn544
 _ZN11__gnu_debug14_Safe_iteratorIN9__gnu_cxx17__normal_iteratorIPKSt4pairIN7blocxx86StringENS4_17EFileStatusReturnEENSt9__cxx19986vectorIS7_SaIS7_EEEEENSt7__debug6vectorIS7_SC_EEEC2ERKSE_PKSH_@Base 2.3.0~svn544
 _ZN11__gnu_debug14_Safe_iteratorIN9__gnu_cxx17__normal_iteratorIPKSt4pairIN7blocxx86StringENS4_17EFileStatusReturnEENSt9__cxx19986vectorIS7_SaIS7_EEEEENSt7__debug6vectorIS7_SC_EEED1Ev@Base 2.3.0~svn544
 _ZN11__gnu_debug14_Safe_iteratorIN9__gnu_cxx17__normal_iteratorIPKSt4pairIN7blocxx86StringENS4_17EFileStatusReturnEENSt9__cxx19986vectorIS7_SaIS7_EEEEENSt7__debug6vectorIS7_SC_EEED2Ev@Base 2.3.0~svn544
 _ZN11__gnu_debug14_Safe_iteratorIN9__gnu_cxx17__normal_iteratorIPKSt4pairIN7blocxx86StringENS4_17EFileStatusReturnEENSt9__cxx19986vectorIS7_SaIS7_EEEEENSt7__debug6vectorIS7_SC_EEEppEv@Base 2.3.0~svn544
 _ZN11__gnu_debug14_Safe_iteratorIN9__gnu_cxx17__normal_iteratorIPKSt4pairIN7blocxx86StringES5_ENSt9__cxx19986vectorIS6_SaIS6_EEEEENSt7__debug6vectorIS6_SB_EEE15_M_get_distanceISD_SD_EES3_IlNSH_19_Distance_precisionEERKT_RKT0_@Base 2.3.0~svn544
 _ZN11__gnu_debug14_Safe_iteratorIN9__gnu_cxx17__normal_iteratorIPKSt4pairIN7blocxx86StringES5_ENSt9__cxx19986vectorIS6_SaIS6_EEEEENSt7__debug6vectorIS6_SB_EEE15_M_get_distanceISD_SD_EES3_IlNSH_19_Distance_precisionEERKT_RKT0_St26random_access_iterator_tag@Base 2.3.0~svn544
 _ZN11__gnu_debug14_Safe_iteratorIN9__gnu_cxx17__normal_iteratorIPKSt4pairIN7blocxx86StringES5_ENSt9__cxx19986vectorIS6_SaIS6_EEEEENSt7__debug6vectorIS6_SB_EEE9_M_attachEPNS_19_Safe_sequence_baseE@Base 2.3.0~svn544
 _ZN11__gnu_debug14_Safe_iteratorIN9__gnu_cxx17__normal_iteratorIPKSt4pairIN7blocxx86StringES5_ENSt9__cxx19986vectorIS6_SaIS6_EEEEENSt7__debug6vectorIS6_SB_EEEC1ERKSD_PKSG_@Base 2.3.0~svn544
 _ZN11__gnu_debug14_Safe_iteratorIN9__gnu_cxx17__normal_iteratorIPKSt4pairIN7blocxx86StringES5_ENSt9__cxx19986vectorIS6_SaIS6_EEEEENSt7__debug6vectorIS6_SB_EEEC1ERKSH_@Base 2.3.0~svn544
 _ZN11__gnu_debug14_Safe_iteratorIN9__gnu_cxx17__normal_iteratorIPKSt4pairIN7blocxx86StringES5_ENSt9__cxx19986vectorIS6_SaIS6_EEEEENSt7__debug6vectorIS6_SB_EEEC2ERKSD_PKSG_@Base 2.3.0~svn544
 _ZN11__gnu_debug14_Safe_iteratorIN9__gnu_cxx17__normal_iteratorIPKSt4pairIN7blocxx86StringES5_ENSt9__cxx19986vectorIS6_SaIS6_EEEEENSt7__debug6vectorIS6_SB_EEEC2ERKSH_@Base 2.3.0~svn544
 _ZN11__gnu_debug14_Safe_iteratorIN9__gnu_cxx17__normal_iteratorIPKSt4pairIN7blocxx86StringES5_ENSt9__cxx19986vectorIS6_SaIS6_EEEEENSt7__debug6vectorIS6_SB_EEED1Ev@Base 2.3.0~svn544
 _ZN11__gnu_debug14_Safe_iteratorIN9__gnu_cxx17__normal_iteratorIPKSt4pairIN7blocxx86StringES5_ENSt9__cxx19986vectorIS6_SaIS6_EEEEENSt7__debug6vectorIS6_SB_EEED2Ev@Base 2.3.0~svn544
 _ZN11__gnu_debug14_Safe_iteratorIN9__gnu_cxx17__normal_iteratorIPKSt4pairIN7blocxx86StringES5_ENSt9__cxx19986vectorIS6_SaIS6_EEEEENSt7__debug6vectorIS6_SB_EEEaSERKSH_@Base 2.3.0~svn544
 _ZN11__gnu_debug14_Safe_iteratorIN9__gnu_cxx17__normal_iteratorIPKSt4pairIN7blocxx86StringES5_ENSt9__cxx19986vectorIS6_SaIS6_EEEEENSt7__debug6vectorIS6_SB_EEEpLERKl@Base 2.3.0~svn544
 _ZN11__gnu_debug14_Safe_iteratorIN9__gnu_cxx17__normal_iteratorIPKSt4pairIN7blocxx86StringES5_ENSt9__cxx19986vectorIS6_SaIS6_EEEEENSt7__debug6vectorIS6_SB_EEEppEv@Base 2.3.0~svn544
 _ZN11__gnu_debug14_Safe_iteratorIN9__gnu_cxx17__normal_iteratorIPKSt4pairIiN7blocxx812SelectEngine4DataEENSt9__cxx19986vectorIS7_SaIS7_EEEEENSt7__debug6vectorIS7_SC_EEEC1INS2_IPS7_SD_EEEERKNS0_IT_NS1_11__enable_ifIXsrSt10__are_sameISM_SL_E7__valueESH_E6__typeEEE@Base 2.3.0~svn544
 _ZN11__gnu_debug14_Safe_iteratorIN9__gnu_cxx17__normal_iteratorIPKSt4pairIiN7blocxx812SelectEngine4DataEENSt9__cxx19986vectorIS7_SaIS7_EEEEENSt7__debug6vectorIS7_SC_EEEC2INS2_IPS7_SD_EEEERKNS0_IT_NS1_11__enable_ifIXsrSt10__are_sameISM_SL_E7__valueESH_E6__typeEEE@Base 2.3.0~svn544
 _ZN11__gnu_debug14_Safe_iteratorIN9__gnu_cxx17__normal_iteratorIPKSt4pairIiN7blocxx812SelectEngine4DataEENSt9__cxx19986vectorIS7_SaIS7_EEEEENSt7__debug6vectorIS7_SC_EEED1Ev@Base 2.3.0~svn544
 _ZN11__gnu_debug14_Safe_iteratorIN9__gnu_cxx17__normal_iteratorIPKSt4pairIiN7blocxx812SelectEngine4DataEENSt9__cxx19986vectorIS7_SaIS7_EEEEENSt7__debug6vectorIS7_SC_EEED2Ev@Base 2.3.0~svn544
 _ZN11__gnu_debug14_Safe_iteratorIN9__gnu_cxx17__normal_iteratorIPKSt4pairIiN7blocxx812SelectEngine4DataEENSt9__cxx19986vectorIS7_SaIS7_EEEEENSt7__debug6vectorIS7_SC_EEEppEv@Base 2.3.0~svn544
 _ZN11__gnu_debug14_Safe_iteratorIN9__gnu_cxx17__normal_iteratorIPKSt4pairIiN7blocxx85ArrayINS4_6StringEEEENSt9__cxx19986vectorIS8_SaIS8_EEEEENSt7__debug6vectorIS8_SD_EEE15_M_get_distanceISF_SF_EES3_IlNSJ_19_Distance_precisionEERKT_RKT0_@Base 2.3.0~svn544
 _ZN11__gnu_debug14_Safe_iteratorIN9__gnu_cxx17__normal_iteratorIPKSt4pairIiN7blocxx85ArrayINS4_6StringEEEENSt9__cxx19986vectorIS8_SaIS8_EEEEENSt7__debug6vectorIS8_SD_EEE15_M_get_distanceISF_SF_EES3_IlNSJ_19_Distance_precisionEERKT_RKT0_St26random_access_iterator_tag@Base 2.3.0~svn544
 _ZN11__gnu_debug14_Safe_iteratorIN9__gnu_cxx17__normal_iteratorIPKSt4pairIiN7blocxx85ArrayINS4_6StringEEEENSt9__cxx19986vectorIS8_SaIS8_EEEEENSt7__debug6vectorIS8_SD_EEE9_M_attachEPNS_19_Safe_sequence_baseE@Base 2.3.0~svn544
 _ZN11__gnu_debug14_Safe_iteratorIN9__gnu_cxx17__normal_iteratorIPKSt4pairIiN7blocxx85ArrayINS4_6StringEEEENSt9__cxx19986vectorIS8_SaIS8_EEEEENSt7__debug6vectorIS8_SD_EEEC1ERKSF_PKSI_@Base 2.3.0~svn544
 _ZN11__gnu_debug14_Safe_iteratorIN9__gnu_cxx17__normal_iteratorIPKSt4pairIiN7blocxx85ArrayINS4_6StringEEEENSt9__cxx19986vectorIS8_SaIS8_EEEEENSt7__debug6vectorIS8_SD_EEEC1ERKSJ_@Base 2.3.0~svn544
 _ZN11__gnu_debug14_Safe_iteratorIN9__gnu_cxx17__normal_iteratorIPKSt4pairIiN7blocxx85ArrayINS4_6StringEEEENSt9__cxx19986vectorIS8_SaIS8_EEEEENSt7__debug6vectorIS8_SD_EEEC2ERKSF_PKSI_@Base 2.3.0~svn544
 _ZN11__gnu_debug14_Safe_iteratorIN9__gnu_cxx17__normal_iteratorIPKSt4pairIiN7blocxx85ArrayINS4_6StringEEEENSt9__cxx19986vectorIS8_SaIS8_EEEEENSt7__debug6vectorIS8_SD_EEEC2ERKSJ_@Base 2.3.0~svn544
 _ZN11__gnu_debug14_Safe_iteratorIN9__gnu_cxx17__normal_iteratorIPKSt4pairIiN7blocxx85ArrayINS4_6StringEEEENSt9__cxx19986vectorIS8_SaIS8_EEEEENSt7__debug6vectorIS8_SD_EEED1Ev@Base 2.3.0~svn544
 _ZN11__gnu_debug14_Safe_iteratorIN9__gnu_cxx17__normal_iteratorIPKSt4pairIiN7blocxx85ArrayINS4_6StringEEEENSt9__cxx19986vectorIS8_SaIS8_EEEEENSt7__debug6vectorIS8_SD_EEED2Ev@Base 2.3.0~svn544
 _ZN11__gnu_debug14_Safe_iteratorIN9__gnu_cxx17__normal_iteratorIPKSt4pairIiN7blocxx85ArrayINS4_6StringEEEENSt9__cxx19986vectorIS8_SaIS8_EEEEENSt7__debug6vectorIS8_SD_EEEaSERKSJ_@Base 2.3.0~svn544
 _ZN11__gnu_debug14_Safe_iteratorIN9__gnu_cxx17__normal_iteratorIPKSt4pairIiN7blocxx85ArrayINS4_6StringEEEENSt9__cxx19986vectorIS8_SaIS8_EEEEENSt7__debug6vectorIS8_SD_EEEpLERKl@Base 2.3.0~svn544
 _ZN11__gnu_debug14_Safe_iteratorIN9__gnu_cxx17__normal_iteratorIPKSt4pairIiN7blocxx85ArrayINS4_6StringEEEENSt9__cxx19986vectorIS8_SaIS8_EEEEENSt7__debug6vectorIS8_SD_EEEppEv@Base 2.3.0~svn544
 _ZN11__gnu_debug14_Safe_iteratorIN9__gnu_cxx17__normal_iteratorIPN7blocxx818IntrusiveReferenceINS3_16ParserOptionImplEEENSt9__cxx19986vectorIS6_SaIS6_EEEEENSt7__debug6vectorIS6_SA_EEE15_M_get_distanceISC_SC_EESt4pairIlNSG_19_Distance_precisionEERKT_RKT0_@Base 2.3.0~svn544
 _ZN11__gnu_debug14_Safe_iteratorIN9__gnu_cxx17__normal_iteratorIPN7blocxx818IntrusiveReferenceINS3_16ParserOptionImplEEENSt9__cxx19986vectorIS6_SaIS6_EEEEENSt7__debug6vectorIS6_SA_EEE15_M_get_distanceISC_SC_EESt4pairIlNSG_19_Distance_precisionEERKT_RKT0_St26random_access_iterator_tag@Base 2.3.0~svn544
 _ZN11__gnu_debug14_Safe_iteratorIN9__gnu_cxx17__normal_iteratorIPN7blocxx818IntrusiveReferenceINS3_16ParserOptionImplEEENSt9__cxx19986vectorIS6_SaIS6_EEEEENSt7__debug6vectorIS6_SA_EEEC1ERKSC_PKSF_@Base 2.3.0~svn544
 _ZN11__gnu_debug14_Safe_iteratorIN9__gnu_cxx17__normal_iteratorIPN7blocxx818IntrusiveReferenceINS3_16ParserOptionImplEEENSt9__cxx19986vectorIS6_SaIS6_EEEEENSt7__debug6vectorIS6_SA_EEEC1ERKSG_@Base 2.3.0~svn544
 _ZN11__gnu_debug14_Safe_iteratorIN9__gnu_cxx17__normal_iteratorIPN7blocxx818IntrusiveReferenceINS3_16ParserOptionImplEEENSt9__cxx19986vectorIS6_SaIS6_EEEEENSt7__debug6vectorIS6_SA_EEEC2ERKSC_PKSF_@Base 2.3.0~svn544
 _ZN11__gnu_debug14_Safe_iteratorIN9__gnu_cxx17__normal_iteratorIPN7blocxx818IntrusiveReferenceINS3_16ParserOptionImplEEENSt9__cxx19986vectorIS6_SaIS6_EEEEENSt7__debug6vectorIS6_SA_EEEC2ERKSG_@Base 2.3.0~svn544
 _ZN11__gnu_debug14_Safe_iteratorIN9__gnu_cxx17__normal_iteratorIPN7blocxx818IntrusiveReferenceINS3_16ParserOptionImplEEENSt9__cxx19986vectorIS6_SaIS6_EEEEENSt7__debug6vectorIS6_SA_EEED1Ev@Base 2.3.0~svn544
 _ZN11__gnu_debug14_Safe_iteratorIN9__gnu_cxx17__normal_iteratorIPN7blocxx818IntrusiveReferenceINS3_16ParserOptionImplEEENSt9__cxx19986vectorIS6_SaIS6_EEEEENSt7__debug6vectorIS6_SA_EEED2Ev@Base 2.3.0~svn544
 _ZN11__gnu_debug14_Safe_iteratorIN9__gnu_cxx17__normal_iteratorIPN7blocxx818IntrusiveReferenceINS3_16ParserOptionImplEEENSt9__cxx19986vectorIS6_SaIS6_EEEEENSt7__debug6vectorIS6_SA_EEEppEv@Base 2.3.0~svn544
 _ZN11__gnu_debug14_Safe_iteratorIN9__gnu_cxx17__normal_iteratorIPN7blocxx818IntrusiveReferenceINS3_6ThreadEEENSt9__cxx19986vectorIS6_SaIS6_EEEEENSt7__debug6vectorIS6_SA_EEE15_M_get_distanceINS2_IPKS6_SB_EESC_EESt4pairIlNSG_19_Distance_precisionEERKT_RKT0_@Base 2.3.0~svn544
 _ZN11__gnu_debug14_Safe_iteratorIN9__gnu_cxx17__normal_iteratorIPN7blocxx818IntrusiveReferenceINS3_6ThreadEEENSt9__cxx19986vectorIS6_SaIS6_EEEEENSt7__debug6vectorIS6_SA_EEE15_M_get_distanceINS2_IPKS6_SB_EESC_EESt4pairIlNSG_19_Distance_precisionEERKT_RKT0_St26random_access_iterator_tag@Base 2.3.0~svn544
 _ZN11__gnu_debug14_Safe_iteratorIN9__gnu_cxx17__normal_iteratorIPN7blocxx818IntrusiveReferenceINS3_6ThreadEEENSt9__cxx19986vectorIS6_SaIS6_EEEEENSt7__debug6vectorIS6_SA_EEE15_M_get_distanceISC_NS2_IPKS6_SB_EEEESt4pairIlNSG_19_Distance_precisionEERKT_RKT0_@Base 2.3.0~svn544
 _ZN11__gnu_debug14_Safe_iteratorIN9__gnu_cxx17__normal_iteratorIPN7blocxx818IntrusiveReferenceINS3_6ThreadEEENSt9__cxx19986vectorIS6_SaIS6_EEEEENSt7__debug6vectorIS6_SA_EEE15_M_get_distanceISC_NS2_IPKS6_SB_EEEESt4pairIlNSG_19_Distance_precisionEERKT_RKT0_St26random_access_iterator_tag@Base 2.3.0~svn544
 _ZN11__gnu_debug14_Safe_iteratorIN9__gnu_cxx17__normal_iteratorIPN7blocxx818IntrusiveReferenceINS3_6ThreadEEENSt9__cxx19986vectorIS6_SaIS6_EEEEENSt7__debug6vectorIS6_SA_EEEC1ERKSC_PKSF_@Base 2.3.0~svn544
 _ZN11__gnu_debug14_Safe_iteratorIN9__gnu_cxx17__normal_iteratorIPN7blocxx818IntrusiveReferenceINS3_6ThreadEEENSt9__cxx19986vectorIS6_SaIS6_EEEEENSt7__debug6vectorIS6_SA_EEEC1ERKSG_@Base 2.3.0~svn544
 _ZN11__gnu_debug14_Safe_iteratorIN9__gnu_cxx17__normal_iteratorIPN7blocxx818IntrusiveReferenceINS3_6ThreadEEENSt9__cxx19986vectorIS6_SaIS6_EEEEENSt7__debug6vectorIS6_SA_EEEC2ERKSC_PKSF_@Base 2.3.0~svn544
 _ZN11__gnu_debug14_Safe_iteratorIN9__gnu_cxx17__normal_iteratorIPN7blocxx818IntrusiveReferenceINS3_6ThreadEEENSt9__cxx19986vectorIS6_SaIS6_EEEEENSt7__debug6vectorIS6_SA_EEEC2ERKSG_@Base 2.3.0~svn544
 _ZN11__gnu_debug14_Safe_iteratorIN9__gnu_cxx17__normal_iteratorIPN7blocxx818IntrusiveReferenceINS3_6ThreadEEENSt9__cxx19986vectorIS6_SaIS6_EEEEENSt7__debug6vectorIS6_SA_EEED1Ev@Base 2.3.0~svn544
 _ZN11__gnu_debug14_Safe_iteratorIN9__gnu_cxx17__normal_iteratorIPN7blocxx818IntrusiveReferenceINS3_6ThreadEEENSt9__cxx19986vectorIS6_SaIS6_EEEEENSt7__debug6vectorIS6_SA_EEED2Ev@Base 2.3.0~svn544
 _ZN11__gnu_debug14_Safe_iteratorIN9__gnu_cxx17__normal_iteratorIPN7blocxx818IntrusiveReferenceINS3_6ThreadEEENSt9__cxx19986vectorIS6_SaIS6_EEEEENSt7__debug6vectorIS6_SA_EEEpLERKl@Base 2.3.0~svn544
 _ZN11__gnu_debug14_Safe_iteratorIN9__gnu_cxx17__normal_iteratorIPN7blocxx86StringENSt9__cxx19986vectorIS4_SaIS4_EEEEENSt7__debug6vectorIS4_S8_EEE15_M_get_distanceINS2_IPKS4_S9_EESA_EESt4pairIlNSE_19_Distance_precisionEERKT_RKT0_@Base 2.3.0~svn544
 _ZN11__gnu_debug14_Safe_iteratorIN9__gnu_cxx17__normal_iteratorIPN7blocxx86StringENSt9__cxx19986vectorIS4_SaIS4_EEEEENSt7__debug6vectorIS4_S8_EEE15_M_get_distanceINS2_IPKS4_S9_EESA_EESt4pairIlNSE_19_Distance_precisionEERKT_RKT0_St26random_access_iterator_tag@Base 2.3.0~svn544
 _ZN11__gnu_debug14_Safe_iteratorIN9__gnu_cxx17__normal_iteratorIPN7blocxx86StringENSt9__cxx19986vectorIS4_SaIS4_EEEEENSt7__debug6vectorIS4_S8_EEE15_M_get_distanceISA_NS2_IPKS4_S9_EEEESt4pairIlNSE_19_Distance_precisionEERKT_RKT0_@Base 2.3.0~svn544
 _ZN11__gnu_debug14_Safe_iteratorIN9__gnu_cxx17__normal_iteratorIPN7blocxx86StringENSt9__cxx19986vectorIS4_SaIS4_EEEEENSt7__debug6vectorIS4_S8_EEE15_M_get_distanceISA_NS2_IPKS4_S9_EEEESt4pairIlNSE_19_Distance_precisionEERKT_RKT0_St26random_access_iterator_tag@Base 2.3.0~svn544
 _ZN11__gnu_debug14_Safe_iteratorIN9__gnu_cxx17__normal_iteratorIPN7blocxx86StringENSt9__cxx19986vectorIS4_SaIS4_EEEEENSt7__debug6vectorIS4_S8_EEE15_M_get_distanceISA_SA_EESt4pairIlNSE_19_Distance_precisionEERKT_RKT0_@Base 2.3.0~svn544
 _ZN11__gnu_debug14_Safe_iteratorIN9__gnu_cxx17__normal_iteratorIPN7blocxx86StringENSt9__cxx19986vectorIS4_SaIS4_EEEEENSt7__debug6vectorIS4_S8_EEE15_M_get_distanceISA_SA_EESt4pairIlNSE_19_Distance_precisionEERKT_RKT0_St26random_access_iterator_tag@Base 2.3.0~svn544
 _ZN11__gnu_debug14_Safe_iteratorIN9__gnu_cxx17__normal_iteratorIPN7blocxx86StringENSt9__cxx19986vectorIS4_SaIS4_EEEEENSt7__debug6vectorIS4_S8_EEE9_M_attachEPNS_19_Safe_sequence_baseE@Base 2.3.0~svn544
 _ZN11__gnu_debug14_Safe_iteratorIN9__gnu_cxx17__normal_iteratorIPN7blocxx86StringENSt9__cxx19986vectorIS4_SaIS4_EEEEENSt7__debug6vectorIS4_S8_EEEC1ERKSA_PKSD_@Base 2.3.0~svn544
 _ZN11__gnu_debug14_Safe_iteratorIN9__gnu_cxx17__normal_iteratorIPN7blocxx86StringENSt9__cxx19986vectorIS4_SaIS4_EEEEENSt7__debug6vectorIS4_S8_EEEC1ERKSE_@Base 2.3.0~svn544
 _ZN11__gnu_debug14_Safe_iteratorIN9__gnu_cxx17__normal_iteratorIPN7blocxx86StringENSt9__cxx19986vectorIS4_SaIS4_EEEEENSt7__debug6vectorIS4_S8_EEEC2ERKSA_PKSD_@Base 2.3.0~svn544
 _ZN11__gnu_debug14_Safe_iteratorIN9__gnu_cxx17__normal_iteratorIPN7blocxx86StringENSt9__cxx19986vectorIS4_SaIS4_EEEEENSt7__debug6vectorIS4_S8_EEEC2ERKSE_@Base 2.3.0~svn544
 _ZN11__gnu_debug14_Safe_iteratorIN9__gnu_cxx17__normal_iteratorIPN7blocxx86StringENSt9__cxx19986vectorIS4_SaIS4_EEEEENSt7__debug6vectorIS4_S8_EEED1Ev@Base 2.3.0~svn544
 _ZN11__gnu_debug14_Safe_iteratorIN9__gnu_cxx17__normal_iteratorIPN7blocxx86StringENSt9__cxx19986vectorIS4_SaIS4_EEEEENSt7__debug6vectorIS4_S8_EEED2Ev@Base 2.3.0~svn544
 _ZN11__gnu_debug14_Safe_iteratorIN9__gnu_cxx17__normal_iteratorIPN7blocxx86StringENSt9__cxx19986vectorIS4_SaIS4_EEEEENSt7__debug6vectorIS4_S8_EEEaSERKSE_@Base 2.3.0~svn544
 _ZN11__gnu_debug14_Safe_iteratorIN9__gnu_cxx17__normal_iteratorIPN7blocxx86StringENSt9__cxx19986vectorIS4_SaIS4_EEEEENSt7__debug6vectorIS4_S8_EEEmIERKl@Base 2.3.0~svn544
 _ZN11__gnu_debug14_Safe_iteratorIN9__gnu_cxx17__normal_iteratorIPN7blocxx86StringENSt9__cxx19986vectorIS4_SaIS4_EEEEENSt7__debug6vectorIS4_S8_EEEmmEv@Base 2.3.0~svn544
 _ZN11__gnu_debug14_Safe_iteratorIN9__gnu_cxx17__normal_iteratorIPN7blocxx86StringENSt9__cxx19986vectorIS4_SaIS4_EEEEENSt7__debug6vectorIS4_S8_EEEpLERKl@Base 2.3.0~svn544
 _ZN11__gnu_debug14_Safe_iteratorIN9__gnu_cxx17__normal_iteratorIPN7blocxx86StringENSt9__cxx19986vectorIS4_SaIS4_EEEEENSt7__debug6vectorIS4_S8_EEEppEv@Base 2.3.0~svn544
 _ZN11__gnu_debug14_Safe_iteratorIN9__gnu_cxx17__normal_iteratorIPN7blocxx89PerlRegEx7match_tENSt9__cxx19986vectorIS5_SaIS5_EEEEENSt7__debug6vectorIS5_S9_EEEC1ERKSB_PKSE_@Base 2.3.0~svn544
 _ZN11__gnu_debug14_Safe_iteratorIN9__gnu_cxx17__normal_iteratorIPN7blocxx89PerlRegEx7match_tENSt9__cxx19986vectorIS5_SaIS5_EEEEENSt7__debug6vectorIS5_S9_EEEC2ERKSB_PKSE_@Base 2.3.0~svn544
 _ZN11__gnu_debug14_Safe_iteratorIN9__gnu_cxx17__normal_iteratorIPN7blocxx89PerlRegEx7match_tENSt9__cxx19986vectorIS5_SaIS5_EEEEENSt7__debug6vectorIS5_S9_EEED1Ev@Base 2.3.0~svn544
 _ZN11__gnu_debug14_Safe_iteratorIN9__gnu_cxx17__normal_iteratorIPN7blocxx89PerlRegEx7match_tENSt9__cxx19986vectorIS5_SaIS5_EEEEENSt7__debug6vectorIS5_S9_EEED2Ev@Base 2.3.0~svn544
 _ZN11__gnu_debug14_Safe_iteratorIN9__gnu_cxx17__normal_iteratorIPSt4pairIiN7blocxx812SelectEngine4DataEENSt9__cxx19986vectorIS7_SaIS7_EEEEENSt7__debug6vectorIS7_SB_EEE15_M_get_distanceINS2_IPKS7_SC_EESD_EES3_IlNSH_19_Distance_precisionEERKT_RKT0_@Base 2.3.0~svn544
 _ZN11__gnu_debug14_Safe_iteratorIN9__gnu_cxx17__normal_iteratorIPSt4pairIiN7blocxx812SelectEngine4DataEENSt9__cxx19986vectorIS7_SaIS7_EEEEENSt7__debug6vectorIS7_SB_EEE15_M_get_distanceINS2_IPKS7_SC_EESD_EES3_IlNSH_19_Distance_precisionEERKT_RKT0_St26random_access_iterator_tag@Base 2.3.0~svn544
 _ZN11__gnu_debug14_Safe_iteratorIN9__gnu_cxx17__normal_iteratorIPSt4pairIiN7blocxx812SelectEngine4DataEENSt9__cxx19986vectorIS7_SaIS7_EEEEENSt7__debug6vectorIS7_SB_EEE15_M_get_distanceISD_NS2_IPKS7_SC_EEEES3_IlNSH_19_Distance_precisionEERKT_RKT0_@Base 2.3.0~svn544
 _ZN11__gnu_debug14_Safe_iteratorIN9__gnu_cxx17__normal_iteratorIPSt4pairIiN7blocxx812SelectEngine4DataEENSt9__cxx19986vectorIS7_SaIS7_EEEEENSt7__debug6vectorIS7_SB_EEE15_M_get_distanceISD_NS2_IPKS7_SC_EEEES3_IlNSH_19_Distance_precisionEERKT_RKT0_St26random_access_iterator_tag@Base 2.3.0~svn544
 _ZN11__gnu_debug14_Safe_iteratorIN9__gnu_cxx17__normal_iteratorIPSt4pairIiN7blocxx812SelectEngine4DataEENSt9__cxx19986vectorIS7_SaIS7_EEEEENSt7__debug6vectorIS7_SB_EEE15_M_get_distanceISD_SD_EES3_IlNSH_19_Distance_precisionEERKT_RKT0_@Base 2.3.0~svn544
 _ZN11__gnu_debug14_Safe_iteratorIN9__gnu_cxx17__normal_iteratorIPSt4pairIiN7blocxx812SelectEngine4DataEENSt9__cxx19986vectorIS7_SaIS7_EEEEENSt7__debug6vectorIS7_SB_EEE15_M_get_distanceISD_SD_EES3_IlNSH_19_Distance_precisionEERKT_RKT0_St26random_access_iterator_tag@Base 2.3.0~svn544
 _ZN11__gnu_debug14_Safe_iteratorIN9__gnu_cxx17__normal_iteratorIPSt4pairIiN7blocxx812SelectEngine4DataEENSt9__cxx19986vectorIS7_SaIS7_EEEEENSt7__debug6vectorIS7_SB_EEE9_M_attachEPNS_19_Safe_sequence_baseE@Base 2.3.0~svn544
 _ZN11__gnu_debug14_Safe_iteratorIN9__gnu_cxx17__normal_iteratorIPSt4pairIiN7blocxx812SelectEngine4DataEENSt9__cxx19986vectorIS7_SaIS7_EEEEENSt7__debug6vectorIS7_SB_EEEC1ERKSD_PKSG_@Base 2.3.0~svn544
 _ZN11__gnu_debug14_Safe_iteratorIN9__gnu_cxx17__normal_iteratorIPSt4pairIiN7blocxx812SelectEngine4DataEENSt9__cxx19986vectorIS7_SaIS7_EEEEENSt7__debug6vectorIS7_SB_EEEC1ERKSH_@Base 2.3.0~svn544
 _ZN11__gnu_debug14_Safe_iteratorIN9__gnu_cxx17__normal_iteratorIPSt4pairIiN7blocxx812SelectEngine4DataEENSt9__cxx19986vectorIS7_SaIS7_EEEEENSt7__debug6vectorIS7_SB_EEEC2ERKSD_PKSG_@Base 2.3.0~svn544
 _ZN11__gnu_debug14_Safe_iteratorIN9__gnu_cxx17__normal_iteratorIPSt4pairIiN7blocxx812SelectEngine4DataEENSt9__cxx19986vectorIS7_SaIS7_EEEEENSt7__debug6vectorIS7_SB_EEEC2ERKSH_@Base 2.3.0~svn544
 _ZN11__gnu_debug14_Safe_iteratorIN9__gnu_cxx17__normal_iteratorIPSt4pairIiN7blocxx812SelectEngine4DataEENSt9__cxx19986vectorIS7_SaIS7_EEEEENSt7__debug6vectorIS7_SB_EEED1Ev@Base 2.3.0~svn544
 _ZN11__gnu_debug14_Safe_iteratorIN9__gnu_cxx17__normal_iteratorIPSt4pairIiN7blocxx812SelectEngine4DataEENSt9__cxx19986vectorIS7_SaIS7_EEEEENSt7__debug6vectorIS7_SB_EEED2Ev@Base 2.3.0~svn544
 _ZN11__gnu_debug14_Safe_iteratorIN9__gnu_cxx17__normal_iteratorIPSt4pairIiN7blocxx812SelectEngine4DataEENSt9__cxx19986vectorIS7_SaIS7_EEEEENSt7__debug6vectorIS7_SB_EEEaSERKSH_@Base 2.3.0~svn544
 _ZN11__gnu_debug14_Safe_iteratorIN9__gnu_cxx17__normal_iteratorIPSt4pairIiN7blocxx812SelectEngine4DataEENSt9__cxx19986vectorIS7_SaIS7_EEEEENSt7__debug6vectorIS7_SB_EEEpLERKl@Base 2.3.0~svn544
 _ZN11__gnu_debug14_Safe_iteratorIN9__gnu_cxx17__normal_iteratorIPSt4pairIiN7blocxx812SelectEngine4DataEENSt9__cxx19986vectorIS7_SaIS7_EEEEENSt7__debug6vectorIS7_SB_EEEppEv@Base 2.3.0~svn544
 _ZN11__gnu_debug14_Safe_iteratorIN9__gnu_cxx17__normal_iteratorIPSt4pairIiN7blocxx85ArrayINS4_6StringEEEENSt9__cxx19986vectorIS8_SaIS8_EEEEENSt7__debug6vectorIS8_SC_EEE15_M_get_distanceINS2_IPKS8_SD_EESE_EES3_IlNSI_19_Distance_precisionEERKT_RKT0_@Base 2.3.0~svn544
 _ZN11__gnu_debug14_Safe_iteratorIN9__gnu_cxx17__normal_iteratorIPSt4pairIiN7blocxx85ArrayINS4_6StringEEEENSt9__cxx19986vectorIS8_SaIS8_EEEEENSt7__debug6vectorIS8_SC_EEE15_M_get_distanceINS2_IPKS8_SD_EESE_EES3_IlNSI_19_Distance_precisionEERKT_RKT0_St26random_access_iterator_tag@Base 2.3.0~svn544
 _ZN11__gnu_debug14_Safe_iteratorIN9__gnu_cxx17__normal_iteratorIPSt4pairIiN7blocxx85ArrayINS4_6StringEEEENSt9__cxx19986vectorIS8_SaIS8_EEEEENSt7__debug6vectorIS8_SC_EEE15_M_get_distanceISE_NS2_IPKS8_SD_EEEES3_IlNSI_19_Distance_precisionEERKT_RKT0_@Base 2.3.0~svn544
 _ZN11__gnu_debug14_Safe_iteratorIN9__gnu_cxx17__normal_iteratorIPSt4pairIiN7blocxx85ArrayINS4_6StringEEEENSt9__cxx19986vectorIS8_SaIS8_EEEEENSt7__debug6vectorIS8_SC_EEE15_M_get_distanceISE_NS2_IPKS8_SD_EEEES3_IlNSI_19_Distance_precisionEERKT_RKT0_St26random_access_iterator_tag@Base 2.3.0~svn544
 _ZN11__gnu_debug14_Safe_iteratorIN9__gnu_cxx17__normal_iteratorIPSt4pairIiN7blocxx85ArrayINS4_6StringEEEENSt9__cxx19986vectorIS8_SaIS8_EEEEENSt7__debug6vectorIS8_SC_EEE15_M_get_distanceISE_SE_EES3_IlNSI_19_Distance_precisionEERKT_RKT0_@Base 2.3.0~svn544
 _ZN11__gnu_debug14_Safe_iteratorIN9__gnu_cxx17__normal_iteratorIPSt4pairIiN7blocxx85ArrayINS4_6StringEEEENSt9__cxx19986vectorIS8_SaIS8_EEEEENSt7__debug6vectorIS8_SC_EEE15_M_get_distanceISE_SE_EES3_IlNSI_19_Distance_precisionEERKT_RKT0_St26random_access_iterator_tag@Base 2.3.0~svn544
 _ZN11__gnu_debug14_Safe_iteratorIN9__gnu_cxx17__normal_iteratorIPSt4pairIiN7blocxx85ArrayINS4_6StringEEEENSt9__cxx19986vectorIS8_SaIS8_EEEEENSt7__debug6vectorIS8_SC_EEE9_M_attachEPNS_19_Safe_sequence_baseE@Base 2.3.0~svn544
 _ZN11__gnu_debug14_Safe_iteratorIN9__gnu_cxx17__normal_iteratorIPSt4pairIiN7blocxx85ArrayINS4_6StringEEEENSt9__cxx19986vectorIS8_SaIS8_EEEEENSt7__debug6vectorIS8_SC_EEEC1ERKSE_PKSH_@Base 2.3.0~svn544
 _ZN11__gnu_debug14_Safe_iteratorIN9__gnu_cxx17__normal_iteratorIPSt4pairIiN7blocxx85ArrayINS4_6StringEEEENSt9__cxx19986vectorIS8_SaIS8_EEEEENSt7__debug6vectorIS8_SC_EEEC1ERKSI_@Base 2.3.0~svn544
 _ZN11__gnu_debug14_Safe_iteratorIN9__gnu_cxx17__normal_iteratorIPSt4pairIiN7blocxx85ArrayINS4_6StringEEEENSt9__cxx19986vectorIS8_SaIS8_EEEEENSt7__debug6vectorIS8_SC_EEEC2ERKSE_PKSH_@Base 2.3.0~svn544
 _ZN11__gnu_debug14_Safe_iteratorIN9__gnu_cxx17__normal_iteratorIPSt4pairIiN7blocxx85ArrayINS4_6StringEEEENSt9__cxx19986vectorIS8_SaIS8_EEEEENSt7__debug6vectorIS8_SC_EEEC2ERKSI_@Base 2.3.0~svn544
 _ZN11__gnu_debug14_Safe_iteratorIN9__gnu_cxx17__normal_iteratorIPSt4pairIiN7blocxx85ArrayINS4_6StringEEEENSt9__cxx19986vectorIS8_SaIS8_EEEEENSt7__debug6vectorIS8_SC_EEED1Ev@Base 2.3.0~svn544
 _ZN11__gnu_debug14_Safe_iteratorIN9__gnu_cxx17__normal_iteratorIPSt4pairIiN7blocxx85ArrayINS4_6StringEEEENSt9__cxx19986vectorIS8_SaIS8_EEEEENSt7__debug6vectorIS8_SC_EEED2Ev@Base 2.3.0~svn544
 _ZN11__gnu_debug14_Safe_iteratorIN9__gnu_cxx17__normal_iteratorIPSt4pairIiN7blocxx85ArrayINS4_6StringEEEENSt9__cxx19986vectorIS8_SaIS8_EEEEENSt7__debug6vectorIS8_SC_EEEaSERKSI_@Base 2.3.0~svn544
 _ZN11__gnu_debug14_Safe_iteratorIN9__gnu_cxx17__normal_iteratorIPSt4pairIiN7blocxx85ArrayINS4_6StringEEEENSt9__cxx19986vectorIS8_SaIS8_EEEEENSt7__debug6vectorIS8_SC_EEEpLERKl@Base 2.3.0~svn544
 _ZN11__gnu_debug14_Safe_iteratorIN9__gnu_cxx17__normal_iteratorIPSt4pairIiN7blocxx85ArrayINS4_6StringEEEENSt9__cxx19986vectorIS8_SaIS8_EEEEENSt7__debug6vectorIS8_SC_EEEppEv@Base 2.3.0~svn544
 _ZN11__gnu_debug14_Safe_iteratorIN9__gnu_cxx17__normal_iteratorIPcNSt9__cxx19986vectorIcSaIcEEEEENSt7__debug6vectorIcS6_EEE15_M_get_distanceINS2_IPKcS7_EES8_EESt4pairIlNSC_19_Distance_precisionEERKT_RKT0_@Base 2.3.0~svn544
 _ZN11__gnu_debug14_Safe_iteratorIN9__gnu_cxx17__normal_iteratorIPcNSt9__cxx19986vectorIcSaIcEEEEENSt7__debug6vectorIcS6_EEE15_M_get_distanceINS2_IPKcS7_EES8_EESt4pairIlNSC_19_Distance_precisionEERKT_RKT0_St26random_access_iterator_tag@Base 2.3.0~svn544
 _ZN11__gnu_debug14_Safe_iteratorIN9__gnu_cxx17__normal_iteratorIPcNSt9__cxx19986vectorIcSaIcEEEEENSt7__debug6vectorIcS6_EEE15_M_get_distanceIS8_NS2_IPKcS7_EEEESt4pairIlNSC_19_Distance_precisionEERKT_RKT0_@Base 2.3.0~svn544
 _ZN11__gnu_debug14_Safe_iteratorIN9__gnu_cxx17__normal_iteratorIPcNSt9__cxx19986vectorIcSaIcEEEEENSt7__debug6vectorIcS6_EEE15_M_get_distanceIS8_NS2_IPKcS7_EEEESt4pairIlNSC_19_Distance_precisionEERKT_RKT0_St26random_access_iterator_tag@Base 2.3.0~svn544
 _ZN11__gnu_debug14_Safe_iteratorIN9__gnu_cxx17__normal_iteratorIPcNSt9__cxx19986vectorIcSaIcEEEEENSt7__debug6vectorIcS6_EEE15_M_get_distanceIS8_S8_EESt4pairIlNSC_19_Distance_precisionEERKT_RKT0_@Base 2.3.0~svn544
 _ZN11__gnu_debug14_Safe_iteratorIN9__gnu_cxx17__normal_iteratorIPcNSt9__cxx19986vectorIcSaIcEEEEENSt7__debug6vectorIcS6_EEE15_M_get_distanceIS8_S8_EESt4pairIlNSC_19_Distance_precisionEERKT_RKT0_St26random_access_iterator_tag@Base 2.3.0~svn544
 _ZN11__gnu_debug14_Safe_iteratorIN9__gnu_cxx17__normal_iteratorIPcNSt9__cxx19986vectorIcSaIcEEEEENSt7__debug6vectorIcS6_EEEC1ERKS8_PKSB_@Base 2.3.0~svn544
 _ZN11__gnu_debug14_Safe_iteratorIN9__gnu_cxx17__normal_iteratorIPcNSt9__cxx19986vectorIcSaIcEEEEENSt7__debug6vectorIcS6_EEEC1ERKSC_@Base 2.3.0~svn544
 _ZN11__gnu_debug14_Safe_iteratorIN9__gnu_cxx17__normal_iteratorIPcNSt9__cxx19986vectorIcSaIcEEEEENSt7__debug6vectorIcS6_EEEC2ERKS8_PKSB_@Base 2.3.0~svn544
 _ZN11__gnu_debug14_Safe_iteratorIN9__gnu_cxx17__normal_iteratorIPcNSt9__cxx19986vectorIcSaIcEEEEENSt7__debug6vectorIcS6_EEEC2ERKSC_@Base 2.3.0~svn544
 _ZN11__gnu_debug14_Safe_iteratorIN9__gnu_cxx17__normal_iteratorIPcNSt9__cxx19986vectorIcSaIcEEEEENSt7__debug6vectorIcS6_EEED1Ev@Base 2.3.0~svn544
 _ZN11__gnu_debug14_Safe_iteratorIN9__gnu_cxx17__normal_iteratorIPcNSt9__cxx19986vectorIcSaIcEEEEENSt7__debug6vectorIcS6_EEED2Ev@Base 2.3.0~svn544
 _ZN11__gnu_debug14_Safe_iteratorIN9__gnu_cxx17__normal_iteratorIPcNSt9__cxx19986vectorIcSaIcEEEEENSt7__debug6vectorIcS6_EEEpLERKl@Base 2.3.0~svn544
 _ZN11__gnu_debug14_Safe_iteratorIN9__gnu_cxx17__normal_iteratorIPcNSt9__cxx19986vectorIcSaIcEEEEENSt7__debug6vectorIcS6_EEEppEv@Base 2.3.0~svn544
 _ZN11__gnu_debug14_Safe_iteratorIN9__gnu_cxx17__normal_iteratorIPhNSt9__cxx19986vectorIhSaIhEEEEENSt7__debug6vectorIhS6_EEEC1ERKS8_PKSB_@Base 2.3.0~svn544
 _ZN11__gnu_debug14_Safe_iteratorIN9__gnu_cxx17__normal_iteratorIPhNSt9__cxx19986vectorIhSaIhEEEEENSt7__debug6vectorIhS6_EEEC2ERKS8_PKSB_@Base 2.3.0~svn544
 _ZN11__gnu_debug14_Safe_iteratorIN9__gnu_cxx17__normal_iteratorIPhNSt9__cxx19986vectorIhSaIhEEEEENSt7__debug6vectorIhS6_EEED1Ev@Base 2.3.0~svn544
 _ZN11__gnu_debug14_Safe_iteratorIN9__gnu_cxx17__normal_iteratorIPhNSt9__cxx19986vectorIhSaIhEEEEENSt7__debug6vectorIhS6_EEED2Ev@Base 2.3.0~svn544
 _ZN11__gnu_debug14_Safe_iteratorISt17_Rb_tree_iteratorISt4pairIKN7blocxx86StringENS3_13SSLTrustStore8UserInfoEEENSt7__debug3mapIS4_S7_St4lessIS4_ESaIS8_EEEEC1ERKS9_PKSF_@Base 2.3.0~svn544
 _ZN11__gnu_debug14_Safe_iteratorISt17_Rb_tree_iteratorISt4pairIKN7blocxx86StringENS3_13SSLTrustStore8UserInfoEEENSt7__debug3mapIS4_S7_St4lessIS4_ESaIS8_EEEEC1ERKSG_@Base 2.3.0~svn544
 _ZN11__gnu_debug14_Safe_iteratorISt17_Rb_tree_iteratorISt4pairIKN7blocxx86StringENS3_13SSLTrustStore8UserInfoEEENSt7__debug3mapIS4_S7_St4lessIS4_ESaIS8_EEEEC2ERKS9_PKSF_@Base 2.3.0~svn544
 _ZN11__gnu_debug14_Safe_iteratorISt17_Rb_tree_iteratorISt4pairIKN7blocxx86StringENS3_13SSLTrustStore8UserInfoEEENSt7__debug3mapIS4_S7_St4lessIS4_ESaIS8_EEEEC2ERKSG_@Base 2.3.0~svn544
 _ZN11__gnu_debug14_Safe_iteratorISt17_Rb_tree_iteratorISt4pairIKN7blocxx86StringENS3_13SSLTrustStore8UserInfoEEENSt7__debug3mapIS4_S7_St4lessIS4_ESaIS8_EEEED1Ev@Base 2.3.0~svn544
 _ZN11__gnu_debug14_Safe_iteratorISt17_Rb_tree_iteratorISt4pairIKN7blocxx86StringENS3_13SSLTrustStore8UserInfoEEENSt7__debug3mapIS4_S7_St4lessIS4_ESaIS8_EEEED2Ev@Base 2.3.0~svn544
 _ZN11__gnu_debug14_Safe_iteratorISt17_Rb_tree_iteratorISt4pairIKN7blocxx86StringES4_EENSt7__debug3mapIS4_S4_St4lessIS4_ESaIS6_EEEEC1ERKS7_PKSD_@Base 2.3.0~svn544
 _ZN11__gnu_debug14_Safe_iteratorISt17_Rb_tree_iteratorISt4pairIKN7blocxx86StringES4_EENSt7__debug3mapIS4_S4_St4lessIS4_ESaIS6_EEEEC1ERKSE_@Base 2.3.0~svn544
 _ZN11__gnu_debug14_Safe_iteratorISt17_Rb_tree_iteratorISt4pairIKN7blocxx86StringES4_EENSt7__debug3mapIS4_S4_St4lessIS4_ESaIS6_EEEEC2ERKS7_PKSD_@Base 2.3.0~svn544
 _ZN11__gnu_debug14_Safe_iteratorISt17_Rb_tree_iteratorISt4pairIKN7blocxx86StringES4_EENSt7__debug3mapIS4_S4_St4lessIS4_ESaIS6_EEEEC2ERKSE_@Base 2.3.0~svn544
 _ZN11__gnu_debug14_Safe_iteratorISt17_Rb_tree_iteratorISt4pairIKN7blocxx86StringES4_EENSt7__debug3mapIS4_S4_St4lessIS4_ESaIS6_EEEED1Ev@Base 2.3.0~svn544
 _ZN11__gnu_debug14_Safe_iteratorISt17_Rb_tree_iteratorISt4pairIKN7blocxx86StringES4_EENSt7__debug3mapIS4_S4_St4lessIS4_ESaIS6_EEEED2Ev@Base 2.3.0~svn544
 _ZN11__gnu_debug14_Safe_iteratorISt17_Rb_tree_iteratorISt4pairIKmN7blocxx817GenericRWLockImplImNS4_8RWLocker14ThreadComparerEE10LockerInfoEEENSt7__debug3mapImS9_S7_SaISA_EEEEC1ERKSB_PKSF_@Base 2.3.0~svn544
 _ZN11__gnu_debug14_Safe_iteratorISt17_Rb_tree_iteratorISt4pairIKmN7blocxx817GenericRWLockImplImNS4_8RWLocker14ThreadComparerEE10LockerInfoEEENSt7__debug3mapImS9_S7_SaISA_EEEEC1ERKSG_@Base 2.3.0~svn544
 _ZN11__gnu_debug14_Safe_iteratorISt17_Rb_tree_iteratorISt4pairIKmN7blocxx817GenericRWLockImplImNS4_8RWLocker14ThreadComparerEE10LockerInfoEEENSt7__debug3mapImS9_S7_SaISA_EEEEC2ERKSB_PKSF_@Base 2.3.0~svn544
 _ZN11__gnu_debug14_Safe_iteratorISt17_Rb_tree_iteratorISt4pairIKmN7blocxx817GenericRWLockImplImNS4_8RWLocker14ThreadComparerEE10LockerInfoEEENSt7__debug3mapImS9_S7_SaISA_EEEEC2ERKSG_@Base 2.3.0~svn544
 _ZN11__gnu_debug14_Safe_iteratorISt17_Rb_tree_iteratorISt4pairIKmN7blocxx817GenericRWLockImplImNS4_8RWLocker14ThreadComparerEE10LockerInfoEEENSt7__debug3mapImS9_S7_SaISA_EEEED1Ev@Base 2.3.0~svn544
 _ZN11__gnu_debug14_Safe_iteratorISt17_Rb_tree_iteratorISt4pairIKmN7blocxx817GenericRWLockImplImNS4_8RWLocker14ThreadComparerEE10LockerInfoEEENSt7__debug3mapImS9_S7_SaISA_EEEED2Ev@Base 2.3.0~svn544
 _ZN11__gnu_debug14_Safe_iteratorISt23_Rb_tree_const_iteratorISt4pairIKN7blocxx86StringENS3_13SSLTrustStore8UserInfoEEENSt7__debug3mapIS4_S7_St4lessIS4_ESaIS8_EEEEC1ISt17_Rb_tree_iteratorIS8_EEERKNS0_IT_N9__gnu_cxx11__enable_ifIXsrSt10__are_sameISK_SJ_E7__valueESF_E6__typeEEE@Base 2.3.0~svn544
 _ZN11__gnu_debug14_Safe_iteratorISt23_Rb_tree_const_iteratorISt4pairIKN7blocxx86StringENS3_13SSLTrustStore8UserInfoEEENSt7__debug3mapIS4_S7_St4lessIS4_ESaIS8_EEEEC2ISt17_Rb_tree_iteratorIS8_EEERKNS0_IT_N9__gnu_cxx11__enable_ifIXsrSt10__are_sameISK_SJ_E7__valueESF_E6__typeEEE@Base 2.3.0~svn544
 _ZN11__gnu_debug14_Safe_iteratorISt23_Rb_tree_const_iteratorISt4pairIKN7blocxx86StringENS3_13SSLTrustStore8UserInfoEEENSt7__debug3mapIS4_S7_St4lessIS4_ESaIS8_EEEED1Ev@Base 2.3.0~svn544
 _ZN11__gnu_debug14_Safe_iteratorISt23_Rb_tree_const_iteratorISt4pairIKN7blocxx86StringENS3_13SSLTrustStore8UserInfoEEENSt7__debug3mapIS4_S7_St4lessIS4_ESaIS8_EEEED2Ev@Base 2.3.0~svn544
 _ZN11__gnu_debug14_Safe_iteratorISt23_Rb_tree_const_iteratorISt4pairIKN7blocxx86StringENS3_13SSLTrustStore8UserInfoEEENSt7__debug3mapIS4_S7_St4lessIS4_ESaIS8_EEEEppEv@Base 2.3.0~svn544
 _ZN11__gnu_debug14_Safe_iteratorISt23_Rb_tree_const_iteratorISt4pairIKN7blocxx86StringES4_EENSt7__debug3mapIS4_S4_St4lessIS4_ESaIS6_EEEEC1ERKS7_PKSD_@Base 2.3.0~svn544
 _ZN11__gnu_debug14_Safe_iteratorISt23_Rb_tree_const_iteratorISt4pairIKN7blocxx86StringES4_EENSt7__debug3mapIS4_S4_St4lessIS4_ESaIS6_EEEEC1ERKSE_@Base 2.3.0~svn544
 _ZN11__gnu_debug14_Safe_iteratorISt23_Rb_tree_const_iteratorISt4pairIKN7blocxx86StringES4_EENSt7__debug3mapIS4_S4_St4lessIS4_ESaIS6_EEEEC1ISt17_Rb_tree_iteratorIS6_EEERKNS0_IT_N9__gnu_cxx11__enable_ifIXsrSt10__are_sameISI_SH_E7__valueESD_E6__typeEEE@Base 2.3.0~svn544
 _ZN11__gnu_debug14_Safe_iteratorISt23_Rb_tree_const_iteratorISt4pairIKN7blocxx86StringES4_EENSt7__debug3mapIS4_S4_St4lessIS4_ESaIS6_EEEEC2ERKS7_PKSD_@Base 2.3.0~svn544
 _ZN11__gnu_debug14_Safe_iteratorISt23_Rb_tree_const_iteratorISt4pairIKN7blocxx86StringES4_EENSt7__debug3mapIS4_S4_St4lessIS4_ESaIS6_EEEEC2ERKSE_@Base 2.3.0~svn544
 _ZN11__gnu_debug14_Safe_iteratorISt23_Rb_tree_const_iteratorISt4pairIKN7blocxx86StringES4_EENSt7__debug3mapIS4_S4_St4lessIS4_ESaIS6_EEEEC2ISt17_Rb_tree_iteratorIS6_EEERKNS0_IT_N9__gnu_cxx11__enable_ifIXsrSt10__are_sameISI_SH_E7__valueESD_E6__typeEEE@Base 2.3.0~svn544
 _ZN11__gnu_debug14_Safe_iteratorISt23_Rb_tree_const_iteratorISt4pairIKN7blocxx86StringES4_EENSt7__debug3mapIS4_S4_St4lessIS4_ESaIS6_EEEED1Ev@Base 2.3.0~svn544
 _ZN11__gnu_debug14_Safe_iteratorISt23_Rb_tree_const_iteratorISt4pairIKN7blocxx86StringES4_EENSt7__debug3mapIS4_S4_St4lessIS4_ESaIS6_EEEED2Ev@Base 2.3.0~svn544
 _ZN11__gnu_debug14_Safe_iteratorISt23_Rb_tree_const_iteratorISt4pairIKN7blocxx86StringES4_EENSt7__debug3mapIS4_S4_St4lessIS4_ESaIS6_EEEEppEi@Base 2.3.0~svn544
 _ZN11__gnu_debug14_Safe_iteratorISt23_Rb_tree_const_iteratorISt4pairIKmN7blocxx817GenericRWLockImplImNS4_8RWLocker14ThreadComparerEE10LockerInfoEEENSt7__debug3mapImS9_S7_SaISA_EEEEC1ISt17_Rb_tree_iteratorISA_EEERKNS0_IT_N9__gnu_cxx11__enable_ifIXsrSt10__are_sameISK_SJ_E7__valueESF_E6__typeEEE@Base 2.3.0~svn544
 _ZN11__gnu_debug14_Safe_iteratorISt23_Rb_tree_const_iteratorISt4pairIKmN7blocxx817GenericRWLockImplImNS4_8RWLocker14ThreadComparerEE10LockerInfoEEENSt7__debug3mapImS9_S7_SaISA_EEEEC2ISt17_Rb_tree_iteratorISA_EEERKNS0_IT_N9__gnu_cxx11__enable_ifIXsrSt10__are_sameISK_SJ_E7__valueESF_E6__typeEEE@Base 2.3.0~svn544
 _ZN11__gnu_debug14_Safe_iteratorISt23_Rb_tree_const_iteratorISt4pairIKmN7blocxx817GenericRWLockImplImNS4_8RWLocker14ThreadComparerEE10LockerInfoEEENSt7__debug3mapImS9_S7_SaISA_EEEED1Ev@Base 2.3.0~svn544
 _ZN11__gnu_debug14_Safe_iteratorISt23_Rb_tree_const_iteratorISt4pairIKmN7blocxx817GenericRWLockImplImNS4_8RWLocker14ThreadComparerEE10LockerInfoEEENSt7__debug3mapImS9_S7_SaISA_EEEED2Ev@Base 2.3.0~svn544
 _ZN11__gnu_debug14_Safe_sequenceINSt7__debug3mapIN7blocxx86StringENS3_13SSLTrustStore8UserInfoESt4lessIS4_ESaISt4pairIKS4_S6_EEEEEC1Ev@Base 2.3.0~svn544
 _ZN11__gnu_debug14_Safe_sequenceINSt7__debug3mapIN7blocxx86StringENS3_13SSLTrustStore8UserInfoESt4lessIS4_ESaISt4pairIKS4_S6_EEEEEC2Ev@Base 2.3.0~svn544
 _ZN11__gnu_debug14_Safe_sequenceINSt7__debug3mapIN7blocxx86StringENS3_13SSLTrustStore8UserInfoESt4lessIS4_ESaISt4pairIKS4_S6_EEEEED1Ev@Base 2.3.0~svn544
 _ZN11__gnu_debug14_Safe_sequenceINSt7__debug3mapIN7blocxx86StringENS3_13SSLTrustStore8UserInfoESt4lessIS4_ESaISt4pairIKS4_S6_EEEEED2Ev@Base 2.3.0~svn544
 _ZN11__gnu_debug14_Safe_sequenceINSt7__debug3mapIN7blocxx86StringES4_St4lessIS4_ESaISt4pairIKS4_S4_EEEEE16_M_invalidate_ifINS_13_Not_equal_toISt23_Rb_tree_const_iteratorIS9_EEEEEvT_@Base 2.3.0~svn544
 _ZN11__gnu_debug14_Safe_sequenceINSt7__debug3mapIN7blocxx86StringES4_St4lessIS4_ESaISt4pairIKS4_S4_EEEEE16_M_invalidate_ifINS_9_Equal_toISt23_Rb_tree_const_iteratorIS9_EEEEEvT_@Base 2.3.0~svn544
 _ZN11__gnu_debug14_Safe_sequenceINSt7__debug3mapIN7blocxx86StringES4_St4lessIS4_ESaISt4pairIKS4_S4_EEEEEC1Ev@Base 2.3.0~svn544
 _ZN11__gnu_debug14_Safe_sequenceINSt7__debug3mapIN7blocxx86StringES4_St4lessIS4_ESaISt4pairIKS4_S4_EEEEEC2Ev@Base 2.3.0~svn544
 _ZN11__gnu_debug14_Safe_sequenceINSt7__debug3mapIN7blocxx86StringES4_St4lessIS4_ESaISt4pairIKS4_S4_EEEEED1Ev@Base 2.3.0~svn544
 _ZN11__gnu_debug14_Safe_sequenceINSt7__debug3mapIN7blocxx86StringES4_St4lessIS4_ESaISt4pairIKS4_S4_EEEEED2Ev@Base 2.3.0~svn544
 _ZN11__gnu_debug14_Safe_sequenceINSt7__debug3mapIiiSt4lessIiESaISt4pairIKiiEEEEEC1Ev@Base 2.3.0~svn544
 _ZN11__gnu_debug14_Safe_sequenceINSt7__debug3mapIiiSt4lessIiESaISt4pairIKiiEEEEEC2Ev@Base 2.3.0~svn544
 _ZN11__gnu_debug14_Safe_sequenceINSt7__debug3mapIiiSt4lessIiESaISt4pairIKiiEEEEED1Ev@Base 2.3.0~svn544
 _ZN11__gnu_debug14_Safe_sequenceINSt7__debug3mapIiiSt4lessIiESaISt4pairIKiiEEEEED2Ev@Base 2.3.0~svn544
 _ZN11__gnu_debug14_Safe_sequenceINSt7__debug3mapImN7blocxx817GenericRWLockImplImNS3_8RWLocker14ThreadComparerEE10LockerInfoES6_SaISt4pairIKmS8_EEEEE16_M_invalidate_ifINS_9_Equal_toISt23_Rb_tree_const_iteratorISB_EEEEEvT_@Base 2.3.0~svn544
 _ZN11__gnu_debug14_Safe_sequenceINSt7__debug3mapImN7blocxx817GenericRWLockImplImNS3_8RWLocker14ThreadComparerEE10LockerInfoES6_SaISt4pairIKmS8_EEEEEC1Ev@Base 2.3.0~svn544
 _ZN11__gnu_debug14_Safe_sequenceINSt7__debug3mapImN7blocxx817GenericRWLockImplImNS3_8RWLocker14ThreadComparerEE10LockerInfoES6_SaISt4pairIKmS8_EEEEEC2Ev@Base 2.3.0~svn544
 _ZN11__gnu_debug14_Safe_sequenceINSt7__debug3mapImN7blocxx817GenericRWLockImplImNS3_8RWLocker14ThreadComparerEE10LockerInfoES6_SaISt4pairIKmS8_EEEEED1Ev@Base 2.3.0~svn544
 _ZN11__gnu_debug14_Safe_sequenceINSt7__debug3mapImN7blocxx817GenericRWLockImplImNS3_8RWLocker14ThreadComparerEE10LockerInfoES6_SaISt4pairIKmS8_EEEEED2Ev@Base 2.3.0~svn544
 _ZN11__gnu_debug14_Safe_sequenceINSt7__debug5dequeIN7blocxx818IntrusiveReferenceINS3_8RunnableEEESaIS6_EEEE16_M_invalidate_ifINS_9_Equal_toINSt9__cxx199815_Deque_iteratorIS6_RKS6_PSE_EEEEEEvT_@Base 2.3.0~svn544
 _ZN11__gnu_debug14_Safe_sequenceINSt7__debug5dequeIN7blocxx818IntrusiveReferenceINS3_8RunnableEEESaIS6_EEEEC1Ev@Base 2.3.0~svn544
 _ZN11__gnu_debug14_Safe_sequenceINSt7__debug5dequeIN7blocxx818IntrusiveReferenceINS3_8RunnableEEESaIS6_EEEEC2Ev@Base 2.3.0~svn544
 _ZN11__gnu_debug14_Safe_sequenceINSt7__debug5dequeIN7blocxx818IntrusiveReferenceINS3_8RunnableEEESaIS6_EEEED1Ev@Base 2.3.0~svn544
 _ZN11__gnu_debug14_Safe_sequenceINSt7__debug5dequeIN7blocxx818IntrusiveReferenceINS3_8RunnableEEESaIS6_EEEED2Ev@Base 2.3.0~svn544
 _ZN11__gnu_debug14_Safe_sequenceINSt7__debug6vectorI10regmatch_tSaIS3_EEEE16_M_invalidate_ifINS_15_After_nth_fromIN9__gnu_cxx17__normal_iteratorIPKS3_NSt9__cxx19986vectorIS3_S4_EEEEEEEEvT_@Base 2.3.0~svn544
 _ZN11__gnu_debug14_Safe_sequenceINSt7__debug6vectorI10regmatch_tSaIS3_EEEEC1Ev@Base 2.3.0~svn544
 _ZN11__gnu_debug14_Safe_sequenceINSt7__debug6vectorI10regmatch_tSaIS3_EEEEC2Ev@Base 2.3.0~svn544
 _ZN11__gnu_debug14_Safe_sequenceINSt7__debug6vectorI10regmatch_tSaIS3_EEEED1Ev@Base 2.3.0~svn544
 _ZN11__gnu_debug14_Safe_sequenceINSt7__debug6vectorI10regmatch_tSaIS3_EEEED2Ev@Base 2.3.0~svn544
 _ZN11__gnu_debug14_Safe_sequenceINSt7__debug6vectorIN7blocxx818IntrusiveReferenceINS3_11LogAppenderEEESaIS6_EEEEC1Ev@Base 2.3.0~svn544
 _ZN11__gnu_debug14_Safe_sequenceINSt7__debug6vectorIN7blocxx818IntrusiveReferenceINS3_11LogAppenderEEESaIS6_EEEEC2Ev@Base 2.3.0~svn544
 _ZN11__gnu_debug14_Safe_sequenceINSt7__debug6vectorIN7blocxx818IntrusiveReferenceINS3_11LogAppenderEEESaIS6_EEEED1Ev@Base 2.3.0~svn544
 _ZN11__gnu_debug14_Safe_sequenceINSt7__debug6vectorIN7blocxx818IntrusiveReferenceINS3_11LogAppenderEEESaIS6_EEEED2Ev@Base 2.3.0~svn544
 _ZN11__gnu_debug14_Safe_sequenceINSt7__debug6vectorIN7blocxx818IntrusiveReferenceINS3_16ParserOptionImplEEESaIS6_EEEEC1Ev@Base 2.3.0~svn544
 _ZN11__gnu_debug14_Safe_sequenceINSt7__debug6vectorIN7blocxx818IntrusiveReferenceINS3_16ParserOptionImplEEESaIS6_EEEEC2Ev@Base 2.3.0~svn544
 _ZN11__gnu_debug14_Safe_sequenceINSt7__debug6vectorIN7blocxx818IntrusiveReferenceINS3_16ParserOptionImplEEESaIS6_EEEED1Ev@Base 2.3.0~svn544
 _ZN11__gnu_debug14_Safe_sequenceINSt7__debug6vectorIN7blocxx818IntrusiveReferenceINS3_16ParserOptionImplEEESaIS6_EEEED2Ev@Base 2.3.0~svn544
 _ZN11__gnu_debug14_Safe_sequenceINSt7__debug6vectorIN7blocxx818IntrusiveReferenceINS3_26LogMessagePatternFormatter9ConverterEEESaIS7_EEEEC1Ev@Base 2.3.0~svn544
 _ZN11__gnu_debug14_Safe_sequenceINSt7__debug6vectorIN7blocxx818IntrusiveReferenceINS3_26LogMessagePatternFormatter9ConverterEEESaIS7_EEEEC2Ev@Base 2.3.0~svn544
 _ZN11__gnu_debug14_Safe_sequenceINSt7__debug6vectorIN7blocxx818IntrusiveReferenceINS3_26LogMessagePatternFormatter9ConverterEEESaIS7_EEEED1Ev@Base 2.3.0~svn544
 _ZN11__gnu_debug14_Safe_sequenceINSt7__debug6vectorIN7blocxx818IntrusiveReferenceINS3_26LogMessagePatternFormatter9ConverterEEESaIS7_EEEED2Ev@Base 2.3.0~svn544
 _ZN11__gnu_debug14_Safe_sequenceINSt7__debug6vectorIN7blocxx818IntrusiveReferenceINS3_6ThreadEEESaIS6_EEEE16_M_invalidate_ifINS_15_After_nth_fromIN9__gnu_cxx17__normal_iteratorIPKS6_NSt9__cxx19986vectorIS6_S7_EEEEEEEEvT_@Base 2.3.0~svn544
 _ZN11__gnu_debug14_Safe_sequenceINSt7__debug6vectorIN7blocxx818IntrusiveReferenceINS3_6ThreadEEESaIS6_EEEE16_M_invalidate_ifINS_9_Equal_toIN9__gnu_cxx17__normal_iteratorIPKS6_NSt9__cxx19986vectorIS6_S7_EEEEEEEEvT_@Base 2.3.0~svn544
 _ZN11__gnu_debug14_Safe_sequenceINSt7__debug6vectorIN7blocxx818IntrusiveReferenceINS3_6ThreadEEESaIS6_EEEEC1Ev@Base 2.3.0~svn544
 _ZN11__gnu_debug14_Safe_sequenceINSt7__debug6vectorIN7blocxx818IntrusiveReferenceINS3_6ThreadEEESaIS6_EEEEC2Ev@Base 2.3.0~svn544
 _ZN11__gnu_debug14_Safe_sequenceINSt7__debug6vectorIN7blocxx818IntrusiveReferenceINS3_6ThreadEEESaIS6_EEEED1Ev@Base 2.3.0~svn544
 _ZN11__gnu_debug14_Safe_sequenceINSt7__debug6vectorIN7blocxx818IntrusiveReferenceINS3_6ThreadEEESaIS6_EEEED2Ev@Base 2.3.0~svn544
 _ZN11__gnu_debug14_Safe_sequenceINSt7__debug6vectorIN7blocxx818IntrusiveReferenceINS3_7ProcessEEESaIS6_EEEEC1Ev@Base 2.3.0~svn544
 _ZN11__gnu_debug14_Safe_sequenceINSt7__debug6vectorIN7blocxx818IntrusiveReferenceINS3_7ProcessEEESaIS6_EEEEC2Ev@Base 2.3.0~svn544
 _ZN11__gnu_debug14_Safe_sequenceINSt7__debug6vectorIN7blocxx818IntrusiveReferenceINS3_7ProcessEEESaIS6_EEEED1Ev@Base 2.3.0~svn544
 _ZN11__gnu_debug14_Safe_sequenceINSt7__debug6vectorIN7blocxx818IntrusiveReferenceINS3_7ProcessEEESaIS6_EEEED2Ev@Base 2.3.0~svn544
 _ZN11__gnu_debug14_Safe_sequenceINSt7__debug6vectorIN7blocxx85ArrayIcEESaIS5_EEEEC1Ev@Base 2.3.0~svn544
 _ZN11__gnu_debug14_Safe_sequenceINSt7__debug6vectorIN7blocxx85ArrayIcEESaIS5_EEEEC2Ev@Base 2.3.0~svn544
 _ZN11__gnu_debug14_Safe_sequenceINSt7__debug6vectorIN7blocxx85ArrayIcEESaIS5_EEEED1Ev@Base 2.3.0~svn544
 _ZN11__gnu_debug14_Safe_sequenceINSt7__debug6vectorIN7blocxx85ArrayIcEESaIS5_EEEED2Ev@Base 2.3.0~svn544
 _ZN11__gnu_debug14_Safe_sequenceINSt7__debug6vectorIN7blocxx86Select12SelectObjectESaIS5_EEEEC1Ev@Base 2.3.0~svn544
 _ZN11__gnu_debug14_Safe_sequenceINSt7__debug6vectorIN7blocxx86Select12SelectObjectESaIS5_EEEEC2Ev@Base 2.3.0~svn544
 _ZN11__gnu_debug14_Safe_sequenceINSt7__debug6vectorIN7blocxx86Select12SelectObjectESaIS5_EEEED1Ev@Base 2.3.0~svn544
 _ZN11__gnu_debug14_Safe_sequenceINSt7__debug6vectorIN7blocxx86Select12SelectObjectESaIS5_EEEED2Ev@Base 2.3.0~svn544
 _ZN11__gnu_debug14_Safe_sequenceINSt7__debug6vectorIN7blocxx86StringESaIS4_EEEE16_M_invalidate_ifINS_15_After_nth_fromIN9__gnu_cxx17__normal_iteratorIPKS4_NSt9__cxx19986vectorIS4_S5_EEEEEEEEvT_@Base 2.3.0~svn544
 _ZN11__gnu_debug14_Safe_sequenceINSt7__debug6vectorIN7blocxx86StringESaIS4_EEEEC1Ev@Base 2.3.0~svn544
 _ZN11__gnu_debug14_Safe_sequenceINSt7__debug6vectorIN7blocxx86StringESaIS4_EEEEC2Ev@Base 2.3.0~svn544
 _ZN11__gnu_debug14_Safe_sequenceINSt7__debug6vectorIN7blocxx86StringESaIS4_EEEED1Ev@Base 2.3.0~svn544
 _ZN11__gnu_debug14_Safe_sequenceINSt7__debug6vectorIN7blocxx86StringESaIS4_EEEED2Ev@Base 2.3.0~svn544
 _ZN11__gnu_debug14_Safe_sequenceINSt7__debug6vectorIN7blocxx89PerlRegEx7match_tESaIS5_EEEE16_M_invalidate_ifINS_15_After_nth_fromIN9__gnu_cxx17__normal_iteratorIPKS5_NSt9__cxx19986vectorIS5_S6_EEEEEEEEvT_@Base 2.3.0~svn544
 _ZN11__gnu_debug14_Safe_sequenceINSt7__debug6vectorIN7blocxx89PerlRegEx7match_tESaIS5_EEEEC1Ev@Base 2.3.0~svn544
 _ZN11__gnu_debug14_Safe_sequenceINSt7__debug6vectorIN7blocxx89PerlRegEx7match_tESaIS5_EEEEC2Ev@Base 2.3.0~svn544
 _ZN11__gnu_debug14_Safe_sequenceINSt7__debug6vectorIN7blocxx89PerlRegEx7match_tESaIS5_EEEED1Ev@Base 2.3.0~svn544
 _ZN11__gnu_debug14_Safe_sequenceINSt7__debug6vectorIN7blocxx89PerlRegEx7match_tESaIS5_EEEED2Ev@Base 2.3.0~svn544
 _ZN11__gnu_debug14_Safe_sequenceINSt7__debug6vectorIN7blocxx89ReferenceINS3_22DelayedFormatInternals26DelayedFormatReferenceBaseEEESaIS7_EEEEC1Ev@Base 2.3.0~svn544
 _ZN11__gnu_debug14_Safe_sequenceINSt7__debug6vectorIN7blocxx89ReferenceINS3_22DelayedFormatInternals26DelayedFormatReferenceBaseEEESaIS7_EEEEC2Ev@Base 2.3.0~svn544
 _ZN11__gnu_debug14_Safe_sequenceINSt7__debug6vectorIN7blocxx89ReferenceINS3_22DelayedFormatInternals26DelayedFormatReferenceBaseEEESaIS7_EEEED1Ev@Base 2.3.0~svn544
 _ZN11__gnu_debug14_Safe_sequenceINSt7__debug6vectorIN7blocxx89ReferenceINS3_22DelayedFormatInternals26DelayedFormatReferenceBaseEEESaIS7_EEEED2Ev@Base 2.3.0~svn544
 _ZN11__gnu_debug14_Safe_sequenceINSt7__debug6vectorIP7x509_stSaIS4_EEEEC1Ev@Base 2.3.0~svn544
 _ZN11__gnu_debug14_Safe_sequenceINSt7__debug6vectorIP7x509_stSaIS4_EEEEC2Ev@Base 2.3.0~svn544
 _ZN11__gnu_debug14_Safe_sequenceINSt7__debug6vectorIP7x509_stSaIS4_EEEED1Ev@Base 2.3.0~svn544
 _ZN11__gnu_debug14_Safe_sequenceINSt7__debug6vectorIP7x509_stSaIS4_EEEED2Ev@Base 2.3.0~svn544
 _ZN11__gnu_debug14_Safe_sequenceINSt7__debug6vectorIPKcSaIS4_EEEEC1Ev@Base 2.3.0~svn544
 _ZN11__gnu_debug14_Safe_sequenceINSt7__debug6vectorIPKcSaIS4_EEEEC2Ev@Base 2.3.0~svn544
 _ZN11__gnu_debug14_Safe_sequenceINSt7__debug6vectorIPKcSaIS4_EEEED1Ev@Base 2.3.0~svn544
 _ZN11__gnu_debug14_Safe_sequenceINSt7__debug6vectorIPKcSaIS4_EEEED2Ev@Base 2.3.0~svn544
 _ZN11__gnu_debug14_Safe_sequenceINSt7__debug6vectorISt4pairIN7blocxx86StringENS4_17EFileStatusReturnEESaIS7_EEEEC1Ev@Base 2.3.0~svn544
 _ZN11__gnu_debug14_Safe_sequenceINSt7__debug6vectorISt4pairIN7blocxx86StringENS4_17EFileStatusReturnEESaIS7_EEEEC2Ev@Base 2.3.0~svn544
 _ZN11__gnu_debug14_Safe_sequenceINSt7__debug6vectorISt4pairIN7blocxx86StringENS4_17EFileStatusReturnEESaIS7_EEEED1Ev@Base 2.3.0~svn544
 _ZN11__gnu_debug14_Safe_sequenceINSt7__debug6vectorISt4pairIN7blocxx86StringENS4_17EFileStatusReturnEESaIS7_EEEED2Ev@Base 2.3.0~svn544
 _ZN11__gnu_debug14_Safe_sequenceINSt7__debug6vectorISt4pairIiN7blocxx812SelectEngine4DataEESaIS7_EEEE16_M_invalidate_ifINS_15_After_nth_fromIN9__gnu_cxx17__normal_iteratorIPKS7_NSt9__cxx19986vectorIS7_S8_EEEEEEEEvT_@Base 2.3.0~svn544
 _ZN11__gnu_debug14_Safe_sequenceINSt7__debug6vectorISt4pairIiN7blocxx812SelectEngine4DataEESaIS7_EEEEC1Ev@Base 2.3.0~svn544
 _ZN11__gnu_debug14_Safe_sequenceINSt7__debug6vectorISt4pairIiN7blocxx812SelectEngine4DataEESaIS7_EEEEC2Ev@Base 2.3.0~svn544
 _ZN11__gnu_debug14_Safe_sequenceINSt7__debug6vectorISt4pairIiN7blocxx812SelectEngine4DataEESaIS7_EEEED1Ev@Base 2.3.0~svn544
 _ZN11__gnu_debug14_Safe_sequenceINSt7__debug6vectorISt4pairIiN7blocxx812SelectEngine4DataEESaIS7_EEEED2Ev@Base 2.3.0~svn544
 _ZN11__gnu_debug14_Safe_sequenceINSt7__debug6vectorISt4pairIiN7blocxx85ArrayINS4_6StringEEEESaIS8_EEEE16_M_invalidate_ifINS_15_After_nth_fromIN9__gnu_cxx17__normal_iteratorIPKS8_NSt9__cxx19986vectorIS8_S9_EEEEEEEEvT_@Base 2.3.0~svn544
 _ZN11__gnu_debug14_Safe_sequenceINSt7__debug6vectorISt4pairIiN7blocxx85ArrayINS4_6StringEEEESaIS8_EEEEC1Ev@Base 2.3.0~svn544
 _ZN11__gnu_debug14_Safe_sequenceINSt7__debug6vectorISt4pairIiN7blocxx85ArrayINS4_6StringEEEESaIS8_EEEEC2Ev@Base 2.3.0~svn544
 _ZN11__gnu_debug14_Safe_sequenceINSt7__debug6vectorISt4pairIiN7blocxx85ArrayINS4_6StringEEEESaIS8_EEEED1Ev@Base 2.3.0~svn544
 _ZN11__gnu_debug14_Safe_sequenceINSt7__debug6vectorISt4pairIiN7blocxx85ArrayINS4_6StringEEEESaIS8_EEEED2Ev@Base 2.3.0~svn544
 _ZN11__gnu_debug14_Safe_sequenceINSt7__debug6vectorIbSaIbEEEEC1Ev@Base 2.3.0~svn544
 _ZN11__gnu_debug14_Safe_sequenceINSt7__debug6vectorIbSaIbEEEEC2Ev@Base 2.3.0~svn544
 _ZN11__gnu_debug14_Safe_sequenceINSt7__debug6vectorIbSaIbEEEED1Ev@Base 2.3.0~svn544
 _ZN11__gnu_debug14_Safe_sequenceINSt7__debug6vectorIbSaIbEEEED2Ev@Base 2.3.0~svn544
 _ZN11__gnu_debug14_Safe_sequenceINSt7__debug6vectorIcSaIcEEEE16_M_invalidate_ifINS_15_After_nth_fromIN9__gnu_cxx17__normal_iteratorIPKcNSt9__cxx19986vectorIcS3_EEEEEEEEvT_@Base 2.3.0~svn544
 _ZN11__gnu_debug14_Safe_sequenceINSt7__debug6vectorIcSaIcEEEE16_M_invalidate_ifINS_9_Equal_toIN9__gnu_cxx17__normal_iteratorIPKcNSt9__cxx19986vectorIcS3_EEEEEEEEvT_@Base 2.3.0~svn544
 _ZN11__gnu_debug14_Safe_sequenceINSt7__debug6vectorIcSaIcEEEEC1Ev@Base 2.3.0~svn544
 _ZN11__gnu_debug14_Safe_sequenceINSt7__debug6vectorIcSaIcEEEEC2Ev@Base 2.3.0~svn544
 _ZN11__gnu_debug14_Safe_sequenceINSt7__debug6vectorIcSaIcEEEED1Ev@Base 2.3.0~svn544
 _ZN11__gnu_debug14_Safe_sequenceINSt7__debug6vectorIcSaIcEEEED2Ev@Base 2.3.0~svn544
 _ZN11__gnu_debug14_Safe_sequenceINSt7__debug6vectorIhSaIhEEEE16_M_invalidate_ifINS_15_After_nth_fromIN9__gnu_cxx17__normal_iteratorIPKhNSt9__cxx19986vectorIhS3_EEEEEEEEvT_@Base 2.3.0~svn544
 _ZN11__gnu_debug14_Safe_sequenceINSt7__debug6vectorIhSaIhEEEEC1Ev@Base 2.3.0~svn544
 _ZN11__gnu_debug14_Safe_sequenceINSt7__debug6vectorIhSaIhEEEEC2Ev@Base 2.3.0~svn544
 _ZN11__gnu_debug14_Safe_sequenceINSt7__debug6vectorIhSaIhEEEED1Ev@Base 2.3.0~svn544
 _ZN11__gnu_debug14_Safe_sequenceINSt7__debug6vectorIhSaIhEEEED2Ev@Base 2.3.0~svn544
 _ZN11__gnu_debug14_Safe_sequenceINSt7__debug6vectorIiSaIiEEEE16_M_invalidate_ifINS_15_After_nth_fromIN9__gnu_cxx17__normal_iteratorIPKiNSt9__cxx19986vectorIiS3_EEEEEEEEvT_@Base 2.3.0~svn544
 _ZN11__gnu_debug14_Safe_sequenceINSt7__debug6vectorIiSaIiEEEEC1Ev@Base 2.3.0~svn544
 _ZN11__gnu_debug14_Safe_sequenceINSt7__debug6vectorIiSaIiEEEEC2Ev@Base 2.3.0~svn544
 _ZN11__gnu_debug14_Safe_sequenceINSt7__debug6vectorIiSaIiEEEED1Ev@Base 2.3.0~svn544
 _ZN11__gnu_debug14_Safe_sequenceINSt7__debug6vectorIiSaIiEEEED2Ev@Base 2.3.0~svn544
 _ZN11__gnu_debug14_Safe_sequenceINSt7__debug6vectorItSaItEEEEC1Ev@Base 2.3.0~svn544
 _ZN11__gnu_debug14_Safe_sequenceINSt7__debug6vectorItSaItEEEEC2Ev@Base 2.3.0~svn544
 _ZN11__gnu_debug14_Safe_sequenceINSt7__debug6vectorItSaItEEEED1Ev@Base 2.3.0~svn544
 _ZN11__gnu_debug14_Safe_sequenceINSt7__debug6vectorItSaItEEEED2Ev@Base 2.3.0~svn544
 _ZN11__gnu_debug15_After_nth_fromIN9__gnu_cxx17__normal_iteratorIPK10regmatch_tNSt9__cxx19986vectorIS3_SaIS3_EEEEEEC1ERKlRKSA_@Base 2.3.0~svn544
 _ZN11__gnu_debug15_After_nth_fromIN9__gnu_cxx17__normal_iteratorIPK10regmatch_tNSt9__cxx19986vectorIS3_SaIS3_EEEEEEC2ERKlRKSA_@Base 2.3.0~svn544
 _ZN11__gnu_debug15_After_nth_fromIN9__gnu_cxx17__normal_iteratorIPKN7blocxx818IntrusiveReferenceINS3_6ThreadEEENSt9__cxx19986vectorIS6_SaIS6_EEEEEEC1ERKlRKSD_@Base 2.3.0~svn544
 _ZN11__gnu_debug15_After_nth_fromIN9__gnu_cxx17__normal_iteratorIPKN7blocxx818IntrusiveReferenceINS3_6ThreadEEENSt9__cxx19986vectorIS6_SaIS6_EEEEEEC2ERKlRKSD_@Base 2.3.0~svn544
 _ZN11__gnu_debug15_After_nth_fromIN9__gnu_cxx17__normal_iteratorIPKN7blocxx86StringENSt9__cxx19986vectorIS4_SaIS4_EEEEEEC1ERKlRKSB_@Base 2.3.0~svn544
 _ZN11__gnu_debug15_After_nth_fromIN9__gnu_cxx17__normal_iteratorIPKN7blocxx86StringENSt9__cxx19986vectorIS4_SaIS4_EEEEEEC2ERKlRKSB_@Base 2.3.0~svn544
 _ZN11__gnu_debug15_After_nth_fromIN9__gnu_cxx17__normal_iteratorIPKN7blocxx89PerlRegEx7match_tENSt9__cxx19986vectorIS5_SaIS5_EEEEEEC1ERKlRKSC_@Base 2.3.0~svn544
 _ZN11__gnu_debug15_After_nth_fromIN9__gnu_cxx17__normal_iteratorIPKN7blocxx89PerlRegEx7match_tENSt9__cxx19986vectorIS5_SaIS5_EEEEEEC2ERKlRKSC_@Base 2.3.0~svn544
 _ZN11__gnu_debug15_After_nth_fromIN9__gnu_cxx17__normal_iteratorIPKSt4pairIiN7blocxx812SelectEngine4DataEENSt9__cxx19986vectorIS7_SaIS7_EEEEEEC1ERKlRKSE_@Base 2.3.0~svn544
 _ZN11__gnu_debug15_After_nth_fromIN9__gnu_cxx17__normal_iteratorIPKSt4pairIiN7blocxx812SelectEngine4DataEENSt9__cxx19986vectorIS7_SaIS7_EEEEEEC2ERKlRKSE_@Base 2.3.0~svn544
 _ZN11__gnu_debug15_After_nth_fromIN9__gnu_cxx17__normal_iteratorIPKSt4pairIiN7blocxx85ArrayINS4_6StringEEEENSt9__cxx19986vectorIS8_SaIS8_EEEEEEC1ERKlRKSF_@Base 2.3.0~svn544
 _ZN11__gnu_debug15_After_nth_fromIN9__gnu_cxx17__normal_iteratorIPKSt4pairIiN7blocxx85ArrayINS4_6StringEEEENSt9__cxx19986vectorIS8_SaIS8_EEEEEEC2ERKlRKSF_@Base 2.3.0~svn544
 _ZN11__gnu_debug15_After_nth_fromIN9__gnu_cxx17__normal_iteratorIPKcNSt9__cxx19986vectorIcSaIcEEEEEEC1ERKlRKS9_@Base 2.3.0~svn544
 _ZN11__gnu_debug15_After_nth_fromIN9__gnu_cxx17__normal_iteratorIPKcNSt9__cxx19986vectorIcSaIcEEEEEEC2ERKlRKS9_@Base 2.3.0~svn544
 _ZN11__gnu_debug15_After_nth_fromIN9__gnu_cxx17__normal_iteratorIPKhNSt9__cxx19986vectorIhSaIhEEEEEEC1ERKlRKS9_@Base 2.3.0~svn544
 _ZN11__gnu_debug15_After_nth_fromIN9__gnu_cxx17__normal_iteratorIPKhNSt9__cxx19986vectorIhSaIhEEEEEEC2ERKlRKS9_@Base 2.3.0~svn544
 _ZN11__gnu_debug15_After_nth_fromIN9__gnu_cxx17__normal_iteratorIPKiNSt9__cxx19986vectorIiSaIiEEEEEEC1ERKlRKS9_@Base 2.3.0~svn544
 _ZN11__gnu_debug15_After_nth_fromIN9__gnu_cxx17__normal_iteratorIPKiNSt9__cxx19986vectorIiSaIiEEEEEEC2ERKlRKS9_@Base 2.3.0~svn544
 _ZN11__gnu_debug16_Error_formatter10_ParameterC1EPKcS3_@Base 2.3.0~svn544
 _ZN11__gnu_debug16_Error_formatter10_ParameterC1ElPKc@Base 2.3.0~svn544
 _ZN11__gnu_debug16_Error_formatter10_ParameterC1Ev@Base 2.3.0~svn544
 _ZN11__gnu_debug16_Error_formatter10_ParameterC1IN9__gnu_cxx17__normal_iteratorIP10regmatch_tNSt9__cxx19986vectorIS5_SaIS5_EEEEENSt7__debug6vectorIS5_S9_EEEERKNS_14_Safe_iteratorIT_T0_EEPKcNS0_12_Is_iteratorE@Base 2.3.0~svn544
 _ZN11__gnu_debug16_Error_formatter10_ParameterC1IN9__gnu_cxx17__normal_iteratorIPK10regmatch_tNSt9__cxx19986vectorIS5_SaIS5_EEEEEEERKT_PKcNS0_12_Is_iteratorE@Base 2.3.0~svn544
 _ZN11__gnu_debug16_Error_formatter10_ParameterC1IN9__gnu_cxx17__normal_iteratorIPK10regmatch_tNSt9__cxx19986vectorIS5_SaIS5_EEEEENSt7__debug6vectorIS5_SA_EEEERKNS_14_Safe_iteratorIT_T0_EEPKcNS0_12_Is_iteratorE@Base 2.3.0~svn544
 _ZN11__gnu_debug16_Error_formatter10_ParameterC1IN9__gnu_cxx17__normal_iteratorIPKN7blocxx818IntrusiveReferenceINS5_16ParserOptionImplEEENSt9__cxx19986vectorIS8_SaIS8_EEEEENSt7__debug6vectorIS8_SD_EEEERKNS_14_Safe_iteratorIT_T0_EEPKcNS0_12_Is_iteratorE@Base 2.3.0~svn544
 _ZN11__gnu_debug16_Error_formatter10_ParameterC1IN9__gnu_cxx17__normal_iteratorIPKN7blocxx818IntrusiveReferenceINS5_26LogMessagePatternFormatter9ConverterEEENSt9__cxx19986vectorIS9_SaIS9_EEEEENSt7__debug6vectorIS9_SE_EEEERKNS_14_Safe_iteratorIT_T0_EEPKcNS0_12_Is_iteratorE@Base 2.3.0~svn544
 _ZN11__gnu_debug16_Error_formatter10_ParameterC1IN9__gnu_cxx17__normal_iteratorIPKN7blocxx86StringENSt9__cxx19986vectorIS6_SaIS6_EEEEENSt7__debug6vectorIS6_SB_EEEERKNS_14_Safe_iteratorIT_T0_EEPKcNS0_12_Is_iteratorE@Base 2.3.0~svn544
 _ZN11__gnu_debug16_Error_formatter10_ParameterC1IN9__gnu_cxx17__normal_iteratorIPKN7blocxx89PerlRegEx7match_tENSt9__cxx19986vectorIS7_SaIS7_EEEEEEERKT_PKcNS0_12_Is_iteratorE@Base 2.3.0~svn544
 _ZN11__gnu_debug16_Error_formatter10_ParameterC1IN9__gnu_cxx17__normal_iteratorIPKN7blocxx89PerlRegEx7match_tENSt9__cxx19986vectorIS7_SaIS7_EEEEENSt7__debug6vectorIS7_SC_EEEERKNS_14_Safe_iteratorIT_T0_EEPKcNS0_12_Is_iteratorE@Base 2.3.0~svn544
 _ZN11__gnu_debug16_Error_formatter10_ParameterC1IN9__gnu_cxx17__normal_iteratorIPKPKcNSt9__cxx19986vectorIS6_SaIS6_EEEEEEERKT_S6_NS0_12_Is_iteratorE@Base 2.3.0~svn544
 _ZN11__gnu_debug16_Error_formatter10_ParameterC1IN9__gnu_cxx17__normal_iteratorIPKSt4pairIN7blocxx86StringENS6_17EFileStatusReturnEENSt9__cxx19986vectorIS9_SaIS9_EEEEENSt7__debug6vectorIS9_SE_EEEERKNS_14_Safe_iteratorIT_T0_EEPKcNS0_12_Is_iteratorE@Base 2.3.0~svn544
 _ZN11__gnu_debug16_Error_formatter10_ParameterC1IN9__gnu_cxx17__normal_iteratorIPKSt4pairIN7blocxx86StringES7_ENSt9__cxx19986vectorIS8_SaIS8_EEEEENSt7__debug6vectorIS8_SD_EEEERKNS_14_Safe_iteratorIT_T0_EEPKcNS0_12_Is_iteratorE@Base 2.3.0~svn544
 _ZN11__gnu_debug16_Error_formatter10_ParameterC1IN9__gnu_cxx17__normal_iteratorIPKSt4pairIiN7blocxx812SelectEngine4DataEENSt9__cxx19986vectorIS9_SaIS9_EEEEENSt7__debug6vectorIS9_SE_EEEERKNS_14_Safe_iteratorIT_T0_EEPKcNS0_12_Is_iteratorE@Base 2.3.0~svn544
 _ZN11__gnu_debug16_Error_formatter10_ParameterC1IN9__gnu_cxx17__normal_iteratorIPKSt4pairIiN7blocxx85ArrayINS6_6StringEEEENSt9__cxx19986vectorISA_SaISA_EEEEENSt7__debug6vectorISA_SF_EEEERKNS_14_Safe_iteratorIT_T0_EEPKcNS0_12_Is_iteratorE@Base 2.3.0~svn544
 _ZN11__gnu_debug16_Error_formatter10_ParameterC1IN9__gnu_cxx17__normal_iteratorIPKcNSt9__cxx19986vectorIcSaIcEEEEEEERKT_S6_NS0_12_Is_iteratorE@Base 2.3.0~svn544
 _ZN11__gnu_debug16_Error_formatter10_ParameterC1IN9__gnu_cxx17__normal_iteratorIPKiNSt9__cxx19986vectorIiSaIiEEEEEEERKT_PKcNS0_12_Is_iteratorE@Base 2.3.0~svn544
 _ZN11__gnu_debug16_Error_formatter10_ParameterC1IN9__gnu_cxx17__normal_iteratorIPKtNSt9__cxx19986vectorItSaItEEEEEEERKT_PKcNS0_12_Is_iteratorE@Base 2.3.0~svn544
 _ZN11__gnu_debug16_Error_formatter10_ParameterC1IN9__gnu_cxx17__normal_iteratorIPN7blocxx818IntrusiveReferenceINS5_16ParserOptionImplEEENSt9__cxx19986vectorIS8_SaIS8_EEEEENSt7__debug6vectorIS8_SC_EEEERKNS_14_Safe_iteratorIT_T0_EEPKcNS0_12_Is_iteratorE@Base 2.3.0~svn544
 _ZN11__gnu_debug16_Error_formatter10_ParameterC1IN9__gnu_cxx17__normal_iteratorIPN7blocxx818IntrusiveReferenceINS5_6ThreadEEENSt9__cxx19986vectorIS8_SaIS8_EEEEEEERKT_PKcNS0_12_Is_iteratorE@Base 2.3.0~svn544
 _ZN11__gnu_debug16_Error_formatter10_ParameterC1IN9__gnu_cxx17__normal_iteratorIPN7blocxx818IntrusiveReferenceINS5_6ThreadEEENSt9__cxx19986vectorIS8_SaIS8_EEEEENSt7__debug6vectorIS8_SC_EEEERKNS_14_Safe_iteratorIT_T0_EEPKcNS0_12_Is_iteratorE@Base 2.3.0~svn544
 _ZN11__gnu_debug16_Error_formatter10_ParameterC1IN9__gnu_cxx17__normal_iteratorIPN7blocxx86StringENSt9__cxx19986vectorIS6_SaIS6_EEEEEEERKT_PKcNS0_12_Is_iteratorE@Base 2.3.0~svn544
 _ZN11__gnu_debug16_Error_formatter10_ParameterC1IN9__gnu_cxx17__normal_iteratorIPN7blocxx86StringENSt9__cxx19986vectorIS6_SaIS6_EEEEENSt7__debug6vectorIS6_SA_EEEERKNS_14_Safe_iteratorIT_T0_EEPKcNS0_12_Is_iteratorE@Base 2.3.0~svn544
 _ZN11__gnu_debug16_Error_formatter10_ParameterC1IN9__gnu_cxx17__normal_iteratorIPN7blocxx89PerlRegEx7match_tENSt9__cxx19986vectorIS7_SaIS7_EEEEENSt7__debug6vectorIS7_SB_EEEERKNS_14_Safe_iteratorIT_T0_EEPKcNS0_12_Is_iteratorE@Base 2.3.0~svn544
 _ZN11__gnu_debug16_Error_formatter10_ParameterC1IN9__gnu_cxx17__normal_iteratorIPSt4pairIiN7blocxx812SelectEngine4DataEENSt9__cxx19986vectorIS9_SaIS9_EEEEEEERKT_PKcNS0_12_Is_iteratorE@Base 2.3.0~svn544
 _ZN11__gnu_debug16_Error_formatter10_ParameterC1IN9__gnu_cxx17__normal_iteratorIPSt4pairIiN7blocxx812SelectEngine4DataEENSt9__cxx19986vectorIS9_SaIS9_EEEEENSt7__debug6vectorIS9_SD_EEEERKNS_14_Safe_iteratorIT_T0_EEPKcNS0_12_Is_iteratorE@Base 2.3.0~svn544
 _ZN11__gnu_debug16_Error_formatter10_ParameterC1IN9__gnu_cxx17__normal_iteratorIPSt4pairIiN7blocxx85ArrayINS6_6StringEEEENSt9__cxx19986vectorISA_SaISA_EEEEENSt7__debug6vectorISA_SE_EEEERKNS_14_Safe_iteratorIT_T0_EEPKcNS0_12_Is_iteratorE@Base 2.3.0~svn544
 _ZN11__gnu_debug16_Error_formatter10_ParameterC1IN9__gnu_cxx17__normal_iteratorIPcNSt9__cxx19986vectorIcSaIcEEEEEEERKT_PKcNS0_12_Is_iteratorE@Base 2.3.0~svn544
 _ZN11__gnu_debug16_Error_formatter10_ParameterC1IN9__gnu_cxx17__normal_iteratorIPcNSt9__cxx19986vectorIcSaIcEEEEENSt7__debug6vectorIcS8_EEEERKNS_14_Safe_iteratorIT_T0_EEPKcNS0_12_Is_iteratorE@Base 2.3.0~svn544
 _ZN11__gnu_debug16_Error_formatter10_ParameterC1IN9__gnu_cxx17__normal_iteratorIPhNSt9__cxx19986vectorIhSaIhEEEEENSt7__debug6vectorIhS8_EEEERKNS_14_Safe_iteratorIT_T0_EEPKcNS0_12_Is_iteratorE@Base 2.3.0~svn544
 _ZN11__gnu_debug16_Error_formatter10_ParameterC1INSt7__debug3mapIN7blocxx86StringES6_St4lessIS6_ESaISt4pairIKS6_S6_EEEEEERKT_PKcNS0_12_Is_sequenceE@Base 2.3.0~svn544
 _ZN11__gnu_debug16_Error_formatter10_ParameterC1INSt7__debug3mapImN7blocxx817GenericRWLockImplImNS5_8RWLocker14ThreadComparerEE10LockerInfoES8_SaISt4pairIKmSA_EEEEEERKT_PKcNS0_12_Is_sequenceE@Base 2.3.0~svn544
 _ZN11__gnu_debug16_Error_formatter10_ParameterC1INSt7__debug5dequeIN7blocxx818IntrusiveReferenceINS5_8RunnableEEESaIS8_EEEEERKT_PKcNS0_12_Is_sequenceE@Base 2.3.0~svn544
 _ZN11__gnu_debug16_Error_formatter10_ParameterC1INSt7__debug6vectorI10regmatch_tSaIS5_EEEEERKT_PKcNS0_12_Is_sequenceE@Base 2.3.0~svn544
 _ZN11__gnu_debug16_Error_formatter10_ParameterC1INSt7__debug6vectorIN7blocxx818IntrusiveReferenceINS5_11LogAppenderEEESaIS8_EEEEERKT_PKcNS0_12_Is_sequenceE@Base 2.3.0~svn544
 _ZN11__gnu_debug16_Error_formatter10_ParameterC1INSt7__debug6vectorIN7blocxx818IntrusiveReferenceINS5_6ThreadEEESaIS8_EEEEERKT_PKcNS0_12_Is_sequenceE@Base 2.3.0~svn544
 _ZN11__gnu_debug16_Error_formatter10_ParameterC1INSt7__debug6vectorIN7blocxx818IntrusiveReferenceINS5_7ProcessEEESaIS8_EEEEERKT_PKcNS0_12_Is_sequenceE@Base 2.3.0~svn544
 _ZN11__gnu_debug16_Error_formatter10_ParameterC1INSt7__debug6vectorIN7blocxx85ArrayIcEESaIS7_EEEEERKT_PKcNS0_12_Is_sequenceE@Base 2.3.0~svn544
 _ZN11__gnu_debug16_Error_formatter10_ParameterC1INSt7__debug6vectorIN7blocxx86Select12SelectObjectESaIS7_EEEEERKT_PKcNS0_12_Is_sequenceE@Base 2.3.0~svn544
 _ZN11__gnu_debug16_Error_formatter10_ParameterC1INSt7__debug6vectorIN7blocxx86StringESaIS6_EEEEERKT_PKcNS0_12_Is_sequenceE@Base 2.3.0~svn544
 _ZN11__gnu_debug16_Error_formatter10_ParameterC1INSt7__debug6vectorIN7blocxx89PerlRegEx7match_tESaIS7_EEEEERKT_PKcNS0_12_Is_sequenceE@Base 2.3.0~svn544
 _ZN11__gnu_debug16_Error_formatter10_ParameterC1INSt7__debug6vectorIN7blocxx89ReferenceINS5_22DelayedFormatInternals26DelayedFormatReferenceBaseEEESaIS9_EEEEERKT_PKcNS0_12_Is_sequenceE@Base 2.3.0~svn544
 _ZN11__gnu_debug16_Error_formatter10_ParameterC1INSt7__debug6vectorIP7x509_stSaIS6_EEEEERKT_PKcNS0_12_Is_sequenceE@Base 2.3.0~svn544
 _ZN11__gnu_debug16_Error_formatter10_ParameterC1INSt7__debug6vectorIPKcSaIS6_EEEEERKT_S6_NS0_12_Is_sequenceE@Base 2.3.0~svn544
 _ZN11__gnu_debug16_Error_formatter10_ParameterC1INSt7__debug6vectorISt4pairIiN7blocxx812SelectEngine4DataEESaIS9_EEEEERKT_PKcNS0_12_Is_sequenceE@Base 2.3.0~svn544
 _ZN11__gnu_debug16_Error_formatter10_ParameterC1INSt7__debug6vectorISt4pairIiN7blocxx85ArrayINS6_6StringEEEESaISA_EEEEERKT_PKcNS0_12_Is_sequenceE@Base 2.3.0~svn544
 _ZN11__gnu_debug16_Error_formatter10_ParameterC1INSt7__debug6vectorIbSaIbEEEEERKT_PKcNS0_12_Is_sequenceE@Base 2.3.0~svn544
 _ZN11__gnu_debug16_Error_formatter10_ParameterC1INSt7__debug6vectorIcSaIcEEEEERKT_PKcNS0_12_Is_sequenceE@Base 2.3.0~svn544
 _ZN11__gnu_debug16_Error_formatter10_ParameterC1INSt7__debug6vectorIhSaIhEEEEERKT_PKcNS0_12_Is_sequenceE@Base 2.3.0~svn544
 _ZN11__gnu_debug16_Error_formatter10_ParameterC1INSt7__debug6vectorIiSaIiEEEEERKT_PKcNS0_12_Is_sequenceE@Base 2.3.0~svn544
 _ZN11__gnu_debug16_Error_formatter10_ParameterC1INSt7__debug6vectorItSaItEEEEERKT_PKcNS0_12_Is_sequenceE@Base 2.3.0~svn544
 _ZN11__gnu_debug16_Error_formatter10_ParameterC1IPKcEERKT_S4_NS0_12_Is_iteratorE@Base 2.3.0~svn544
 _ZN11__gnu_debug16_Error_formatter10_ParameterC1IPN7blocxx818IntrusiveReferenceINS3_11LogAppenderEEEEERKT_PKcNS0_12_Is_iteratorE@Base 2.3.0~svn544
 _ZN11__gnu_debug16_Error_formatter10_ParameterC1IPN7blocxx818IntrusiveReferenceINS3_16ParserOptionImplEEEEERKT_PKcNS0_12_Is_iteratorE@Base 2.3.0~svn544
 _ZN11__gnu_debug16_Error_formatter10_ParameterC1IPN7blocxx818IntrusiveReferenceINS3_26LogMessagePatternFormatter9ConverterEEEEERKT_PKcNS0_12_Is_iteratorE@Base 2.3.0~svn544
 _ZN11__gnu_debug16_Error_formatter10_ParameterC1IPN7blocxx818IntrusiveReferenceINS3_6ThreadEEEEERKT_PKcNS0_12_Is_iteratorE@Base 2.3.0~svn544
 _ZN11__gnu_debug16_Error_formatter10_ParameterC1IPN7blocxx818IntrusiveReferenceINS3_7ProcessEEEEERKT_PKcNS0_12_Is_iteratorE@Base 2.3.0~svn544
 _ZN11__gnu_debug16_Error_formatter10_ParameterC1IPN7blocxx86Select12SelectObjectEEERKT_PKcNS0_12_Is_iteratorE@Base 2.3.0~svn544
 _ZN11__gnu_debug16_Error_formatter10_ParameterC1IPN7blocxx86StringEEERKT_PKcNS0_12_Is_iteratorE@Base 2.3.0~svn544
 _ZN11__gnu_debug16_Error_formatter10_ParameterC1IPPKcEERKT_S4_NS0_12_Is_iteratorE@Base 2.3.0~svn544
 _ZN11__gnu_debug16_Error_formatter10_ParameterC1IPPN7blocxx818IntrusiveReferenceINS3_8RunnableEEEEERKT_PKcNS0_12_Is_iteratorE@Base 2.3.0~svn544
 _ZN11__gnu_debug16_Error_formatter10_ParameterC1IPPcEERKT_PKcNS0_12_Is_iteratorE@Base 2.3.0~svn544
 _ZN11__gnu_debug16_Error_formatter10_ParameterC1IPSt4pairIN7blocxx86StringENS4_17EFileStatusReturnEEEERKT_PKcNS0_12_Is_iteratorE@Base 2.3.0~svn544
 _ZN11__gnu_debug16_Error_formatter10_ParameterC1IPSt4pairIiN7blocxx812SelectEngine4DataEEEERKT_PKcNS0_12_Is_iteratorE@Base 2.3.0~svn544
 _ZN11__gnu_debug16_Error_formatter10_ParameterC1IPSt4pairIiN7blocxx85ArrayINS4_6StringEEEEEERKT_PKcNS0_12_Is_iteratorE@Base 2.3.0~svn544
 _ZN11__gnu_debug16_Error_formatter10_ParameterC1IPcEERKT_PKcNS0_12_Is_iteratorE@Base 2.3.0~svn544
 _ZN11__gnu_debug16_Error_formatter10_ParameterC1IPhEERKT_PKcNS0_12_Is_iteratorE@Base 2.3.0~svn544
 _ZN11__gnu_debug16_Error_formatter10_ParameterC1IPiEERKT_PKcNS0_12_Is_iteratorE@Base 2.3.0~svn544
 _ZN11__gnu_debug16_Error_formatter10_ParameterC1IPtEERKT_PKcNS0_12_Is_iteratorE@Base 2.3.0~svn544
 _ZN11__gnu_debug16_Error_formatter10_ParameterC1ISt13move_iteratorIP10regmatch_tEEERKT_PKcNS0_12_Is_iteratorE@Base 2.3.0~svn544
 _ZN11__gnu_debug16_Error_formatter10_ParameterC1ISt13move_iteratorIPN7blocxx89PerlRegEx7match_tEEEERKT_PKcNS0_12_Is_iteratorE@Base 2.3.0~svn544
 _ZN11__gnu_debug16_Error_formatter10_ParameterC1ISt13move_iteratorIPPKcEEERKT_S5_NS0_12_Is_iteratorE@Base 2.3.0~svn544
 _ZN11__gnu_debug16_Error_formatter10_ParameterC1ISt13move_iteratorIPcEEERKT_PKcNS0_12_Is_iteratorE@Base 2.3.0~svn544
 _ZN11__gnu_debug16_Error_formatter10_ParameterC1ISt13move_iteratorIPhEEERKT_PKcNS0_12_Is_iteratorE@Base 2.3.0~svn544
 _ZN11__gnu_debug16_Error_formatter10_ParameterC1ISt13move_iteratorIPiEEERKT_PKcNS0_12_Is_iteratorE@Base 2.3.0~svn544
 _ZN11__gnu_debug16_Error_formatter10_ParameterC1ISt13move_iteratorIPtEEERKT_PKcNS0_12_Is_iteratorE@Base 2.3.0~svn544
 _ZN11__gnu_debug16_Error_formatter10_ParameterC1ISt17_Rb_tree_iteratorISt4pairIKN7blocxx86StringENS5_13SSLTrustStore8UserInfoEEENSt7__debug3mapIS6_S9_St4lessIS6_ESaISA_EEEEERKNS_14_Safe_iteratorIT_T0_EEPKcNS0_12_Is_iteratorE@Base 2.3.0~svn544
 _ZN11__gnu_debug16_Error_formatter10_ParameterC1ISt17_Rb_tree_iteratorISt4pairIKN7blocxx86StringES6_EENSt7__debug3mapIS6_S6_St4lessIS6_ESaIS8_EEEEERKNS_14_Safe_iteratorIT_T0_EEPKcNS0_12_Is_iteratorE@Base 2.3.0~svn544
 _ZN11__gnu_debug16_Error_formatter10_ParameterC1ISt17_Rb_tree_iteratorISt4pairIKmN7blocxx817GenericRWLockImplImNS6_8RWLocker14ThreadComparerEE10LockerInfoEEENSt7__debug3mapImSB_S9_SaISC_EEEEERKNS_14_Safe_iteratorIT_T0_EEPKcNS0_12_Is_iteratorE@Base 2.3.0~svn544
 _ZN11__gnu_debug16_Error_formatter10_ParameterC1ISt23_Rb_tree_const_iteratorISt4pairIKN7blocxx86StringENS5_13SSLTrustStore8UserInfoEEENSt7__debug3mapIS6_S9_St4lessIS6_ESaISA_EEEEERKNS_14_Safe_iteratorIT_T0_EEPKcNS0_12_Is_iteratorE@Base 2.3.0~svn544
 _ZN11__gnu_debug16_Error_formatter10_ParameterC1ISt23_Rb_tree_const_iteratorISt4pairIKN7blocxx86StringES6_EENSt7__debug3mapIS6_S6_St4lessIS6_ESaIS8_EEEEERKNS_14_Safe_iteratorIT_T0_EEPKcNS0_12_Is_iteratorE@Base 2.3.0~svn544
 _ZN11__gnu_debug16_Error_formatter10_ParameterC1ISt23_Rb_tree_const_iteratorISt4pairIKmN7blocxx817GenericRWLockImplImNS6_8RWLocker14ThreadComparerEE10LockerInfoEEENSt7__debug3mapImSB_S9_SaISC_EEEEERKNS_14_Safe_iteratorIT_T0_EEPKcNS0_12_Is_iteratorE@Base 2.3.0~svn544
 _ZN11__gnu_debug16_Error_formatter10_ParameterC2EPKcS3_@Base 2.3.0~svn544
 _ZN11__gnu_debug16_Error_formatter10_ParameterC2ElPKc@Base 2.3.0~svn544
 _ZN11__gnu_debug16_Error_formatter10_ParameterC2Ev@Base 2.3.0~svn544
 _ZN11__gnu_debug16_Error_formatter10_ParameterC2IN9__gnu_cxx17__normal_iteratorIP10regmatch_tNSt9__cxx19986vectorIS5_SaIS5_EEEEENSt7__debug6vectorIS5_S9_EEEERKNS_14_Safe_iteratorIT_T0_EEPKcNS0_12_Is_iteratorE@Base 2.3.0~svn544
 _ZN11__gnu_debug16_Error_formatter10_ParameterC2IN9__gnu_cxx17__normal_iteratorIPK10regmatch_tNSt9__cxx19986vectorIS5_SaIS5_EEEEEEERKT_PKcNS0_12_Is_iteratorE@Base 2.3.0~svn544
 _ZN11__gnu_debug16_Error_formatter10_ParameterC2IN9__gnu_cxx17__normal_iteratorIPK10regmatch_tNSt9__cxx19986vectorIS5_SaIS5_EEEEENSt7__debug6vectorIS5_SA_EEEERKNS_14_Safe_iteratorIT_T0_EEPKcNS0_12_Is_iteratorE@Base 2.3.0~svn544
 _ZN11__gnu_debug16_Error_formatter10_ParameterC2IN9__gnu_cxx17__normal_iteratorIPKN7blocxx818IntrusiveReferenceINS5_16ParserOptionImplEEENSt9__cxx19986vectorIS8_SaIS8_EEEEENSt7__debug6vectorIS8_SD_EEEERKNS_14_Safe_iteratorIT_T0_EEPKcNS0_12_Is_iteratorE@Base 2.3.0~svn544
 _ZN11__gnu_debug16_Error_formatter10_ParameterC2IN9__gnu_cxx17__normal_iteratorIPKN7blocxx818IntrusiveReferenceINS5_26LogMessagePatternFormatter9ConverterEEENSt9__cxx19986vectorIS9_SaIS9_EEEEENSt7__debug6vectorIS9_SE_EEEERKNS_14_Safe_iteratorIT_T0_EEPKcNS0_12_Is_iteratorE@Base 2.3.0~svn544
 _ZN11__gnu_debug16_Error_formatter10_ParameterC2IN9__gnu_cxx17__normal_iteratorIPKN7blocxx86StringENSt9__cxx19986vectorIS6_SaIS6_EEEEENSt7__debug6vectorIS6_SB_EEEERKNS_14_Safe_iteratorIT_T0_EEPKcNS0_12_Is_iteratorE@Base 2.3.0~svn544
 _ZN11__gnu_debug16_Error_formatter10_ParameterC2IN9__gnu_cxx17__normal_iteratorIPKN7blocxx89PerlRegEx7match_tENSt9__cxx19986vectorIS7_SaIS7_EEEEEEERKT_PKcNS0_12_Is_iteratorE@Base 2.3.0~svn544
 _ZN11__gnu_debug16_Error_formatter10_ParameterC2IN9__gnu_cxx17__normal_iteratorIPKN7blocxx89PerlRegEx7match_tENSt9__cxx19986vectorIS7_SaIS7_EEEEENSt7__debug6vectorIS7_SC_EEEERKNS_14_Safe_iteratorIT_T0_EEPKcNS0_12_Is_iteratorE@Base 2.3.0~svn544
 _ZN11__gnu_debug16_Error_formatter10_ParameterC2IN9__gnu_cxx17__normal_iteratorIPKPKcNSt9__cxx19986vectorIS6_SaIS6_EEEEEEERKT_S6_NS0_12_Is_iteratorE@Base 2.3.0~svn544
 _ZN11__gnu_debug16_Error_formatter10_ParameterC2IN9__gnu_cxx17__normal_iteratorIPKSt4pairIN7blocxx86StringENS6_17EFileStatusReturnEENSt9__cxx19986vectorIS9_SaIS9_EEEEENSt7__debug6vectorIS9_SE_EEEERKNS_14_Safe_iteratorIT_T0_EEPKcNS0_12_Is_iteratorE@Base 2.3.0~svn544
 _ZN11__gnu_debug16_Error_formatter10_ParameterC2IN9__gnu_cxx17__normal_iteratorIPKSt4pairIN7blocxx86StringES7_ENSt9__cxx19986vectorIS8_SaIS8_EEEEENSt7__debug6vectorIS8_SD_EEEERKNS_14_Safe_iteratorIT_T0_EEPKcNS0_12_Is_iteratorE@Base 2.3.0~svn544
 _ZN11__gnu_debug16_Error_formatter10_ParameterC2IN9__gnu_cxx17__normal_iteratorIPKSt4pairIiN7blocxx812SelectEngine4DataEENSt9__cxx19986vectorIS9_SaIS9_EEEEENSt7__debug6vectorIS9_SE_EEEERKNS_14_Safe_iteratorIT_T0_EEPKcNS0_12_Is_iteratorE@Base 2.3.0~svn544
 _ZN11__gnu_debug16_Error_formatter10_ParameterC2IN9__gnu_cxx17__normal_iteratorIPKSt4pairIiN7blocxx85ArrayINS6_6StringEEEENSt9__cxx19986vectorISA_SaISA_EEEEENSt7__debug6vectorISA_SF_EEEERKNS_14_Safe_iteratorIT_T0_EEPKcNS0_12_Is_iteratorE@Base 2.3.0~svn544
 _ZN11__gnu_debug16_Error_formatter10_ParameterC2IN9__gnu_cxx17__normal_iteratorIPKcNSt9__cxx19986vectorIcSaIcEEEEEEERKT_S6_NS0_12_Is_iteratorE@Base 2.3.0~svn544
 _ZN11__gnu_debug16_Error_formatter10_ParameterC2IN9__gnu_cxx17__normal_iteratorIPKiNSt9__cxx19986vectorIiSaIiEEEEEEERKT_PKcNS0_12_Is_iteratorE@Base 2.3.0~svn544
 _ZN11__gnu_debug16_Error_formatter10_ParameterC2IN9__gnu_cxx17__normal_iteratorIPKtNSt9__cxx19986vectorItSaItEEEEEEERKT_PKcNS0_12_Is_iteratorE@Base 2.3.0~svn544
 _ZN11__gnu_debug16_Error_formatter10_ParameterC2IN9__gnu_cxx17__normal_iteratorIPN7blocxx818IntrusiveReferenceINS5_16ParserOptionImplEEENSt9__cxx19986vectorIS8_SaIS8_EEEEENSt7__debug6vectorIS8_SC_EEEERKNS_14_Safe_iteratorIT_T0_EEPKcNS0_12_Is_iteratorE@Base 2.3.0~svn544
 _ZN11__gnu_debug16_Error_formatter10_ParameterC2IN9__gnu_cxx17__normal_iteratorIPN7blocxx818IntrusiveReferenceINS5_6ThreadEEENSt9__cxx19986vectorIS8_SaIS8_EEEEEEERKT_PKcNS0_12_Is_iteratorE@Base 2.3.0~svn544
 _ZN11__gnu_debug16_Error_formatter10_ParameterC2IN9__gnu_cxx17__normal_iteratorIPN7blocxx818IntrusiveReferenceINS5_6ThreadEEENSt9__cxx19986vectorIS8_SaIS8_EEEEENSt7__debug6vectorIS8_SC_EEEERKNS_14_Safe_iteratorIT_T0_EEPKcNS0_12_Is_iteratorE@Base 2.3.0~svn544
 _ZN11__gnu_debug16_Error_formatter10_ParameterC2IN9__gnu_cxx17__normal_iteratorIPN7blocxx86StringENSt9__cxx19986vectorIS6_SaIS6_EEEEEEERKT_PKcNS0_12_Is_iteratorE@Base 2.3.0~svn544
 _ZN11__gnu_debug16_Error_formatter10_ParameterC2IN9__gnu_cxx17__normal_iteratorIPN7blocxx86StringENSt9__cxx19986vectorIS6_SaIS6_EEEEENSt7__debug6vectorIS6_SA_EEEERKNS_14_Safe_iteratorIT_T0_EEPKcNS0_12_Is_iteratorE@Base 2.3.0~svn544
 _ZN11__gnu_debug16_Error_formatter10_ParameterC2IN9__gnu_cxx17__normal_iteratorIPN7blocxx89PerlRegEx7match_tENSt9__cxx19986vectorIS7_SaIS7_EEEEENSt7__debug6vectorIS7_SB_EEEERKNS_14_Safe_iteratorIT_T0_EEPKcNS0_12_Is_iteratorE@Base 2.3.0~svn544
 _ZN11__gnu_debug16_Error_formatter10_ParameterC2IN9__gnu_cxx17__normal_iteratorIPSt4pairIiN7blocxx812SelectEngine4DataEENSt9__cxx19986vectorIS9_SaIS9_EEEEEEERKT_PKcNS0_12_Is_iteratorE@Base 2.3.0~svn544
 _ZN11__gnu_debug16_Error_formatter10_ParameterC2IN9__gnu_cxx17__normal_iteratorIPSt4pairIiN7blocxx812SelectEngine4DataEENSt9__cxx19986vectorIS9_SaIS9_EEEEENSt7__debug6vectorIS9_SD_EEEERKNS_14_Safe_iteratorIT_T0_EEPKcNS0_12_Is_iteratorE@Base 2.3.0~svn544
 _ZN11__gnu_debug16_Error_formatter10_ParameterC2IN9__gnu_cxx17__normal_iteratorIPSt4pairIiN7blocxx85ArrayINS6_6StringEEEENSt9__cxx19986vectorISA_SaISA_EEEEENSt7__debug6vectorISA_SE_EEEERKNS_14_Safe_iteratorIT_T0_EEPKcNS0_12_Is_iteratorE@Base 2.3.0~svn544
 _ZN11__gnu_debug16_Error_formatter10_ParameterC2IN9__gnu_cxx17__normal_iteratorIPcNSt9__cxx19986vectorIcSaIcEEEEEEERKT_PKcNS0_12_Is_iteratorE@Base 2.3.0~svn544
 _ZN11__gnu_debug16_Error_formatter10_ParameterC2IN9__gnu_cxx17__normal_iteratorIPcNSt9__cxx19986vectorIcSaIcEEEEENSt7__debug6vectorIcS8_EEEERKNS_14_Safe_iteratorIT_T0_EEPKcNS0_12_Is_iteratorE@Base 2.3.0~svn544
 _ZN11__gnu_debug16_Error_formatter10_ParameterC2IN9__gnu_cxx17__normal_iteratorIPhNSt9__cxx19986vectorIhSaIhEEEEENSt7__debug6vectorIhS8_EEEERKNS_14_Safe_iteratorIT_T0_EEPKcNS0_12_Is_iteratorE@Base 2.3.0~svn544
 _ZN11__gnu_debug16_Error_formatter10_ParameterC2INSt7__debug3mapIN7blocxx86StringES6_St4lessIS6_ESaISt4pairIKS6_S6_EEEEEERKT_PKcNS0_12_Is_sequenceE@Base 2.3.0~svn544
 _ZN11__gnu_debug16_Error_formatter10_ParameterC2INSt7__debug3mapImN7blocxx817GenericRWLockImplImNS5_8RWLocker14ThreadComparerEE10LockerInfoES8_SaISt4pairIKmSA_EEEEEERKT_PKcNS0_12_Is_sequenceE@Base 2.3.0~svn544
 _ZN11__gnu_debug16_Error_formatter10_ParameterC2INSt7__debug5dequeIN7blocxx818IntrusiveReferenceINS5_8RunnableEEESaIS8_EEEEERKT_PKcNS0_12_Is_sequenceE@Base 2.3.0~svn544
 _ZN11__gnu_debug16_Error_formatter10_ParameterC2INSt7__debug6vectorI10regmatch_tSaIS5_EEEEERKT_PKcNS0_12_Is_sequenceE@Base 2.3.0~svn544
 _ZN11__gnu_debug16_Error_formatter10_ParameterC2INSt7__debug6vectorIN7blocxx818IntrusiveReferenceINS5_11LogAppenderEEESaIS8_EEEEERKT_PKcNS0_12_Is_sequenceE@Base 2.3.0~svn544
 _ZN11__gnu_debug16_Error_formatter10_ParameterC2INSt7__debug6vectorIN7blocxx818IntrusiveReferenceINS5_6ThreadEEESaIS8_EEEEERKT_PKcNS0_12_Is_sequenceE@Base 2.3.0~svn544
 _ZN11__gnu_debug16_Error_formatter10_ParameterC2INSt7__debug6vectorIN7blocxx818IntrusiveReferenceINS5_7ProcessEEESaIS8_EEEEERKT_PKcNS0_12_Is_sequenceE@Base 2.3.0~svn544
 _ZN11__gnu_debug16_Error_formatter10_ParameterC2INSt7__debug6vectorIN7blocxx85ArrayIcEESaIS7_EEEEERKT_PKcNS0_12_Is_sequenceE@Base 2.3.0~svn544
 _ZN11__gnu_debug16_Error_formatter10_ParameterC2INSt7__debug6vectorIN7blocxx86Select12SelectObjectESaIS7_EEEEERKT_PKcNS0_12_Is_sequenceE@Base 2.3.0~svn544
 _ZN11__gnu_debug16_Error_formatter10_ParameterC2INSt7__debug6vectorIN7blocxx86StringESaIS6_EEEEERKT_PKcNS0_12_Is_sequenceE@Base 2.3.0~svn544
 _ZN11__gnu_debug16_Error_formatter10_ParameterC2INSt7__debug6vectorIN7blocxx89PerlRegEx7match_tESaIS7_EEEEERKT_PKcNS0_12_Is_sequenceE@Base 2.3.0~svn544
 _ZN11__gnu_debug16_Error_formatter10_ParameterC2INSt7__debug6vectorIN7blocxx89ReferenceINS5_22DelayedFormatInternals26DelayedFormatReferenceBaseEEESaIS9_EEEEERKT_PKcNS0_12_Is_sequenceE@Base 2.3.0~svn544
 _ZN11__gnu_debug16_Error_formatter10_ParameterC2INSt7__debug6vectorIP7x509_stSaIS6_EEEEERKT_PKcNS0_12_Is_sequenceE@Base 2.3.0~svn544
 _ZN11__gnu_debug16_Error_formatter10_ParameterC2INSt7__debug6vectorIPKcSaIS6_EEEEERKT_S6_NS0_12_Is_sequenceE@Base 2.3.0~svn544
 _ZN11__gnu_debug16_Error_formatter10_ParameterC2INSt7__debug6vectorISt4pairIiN7blocxx812SelectEngine4DataEESaIS9_EEEEERKT_PKcNS0_12_Is_sequenceE@Base 2.3.0~svn544
 _ZN11__gnu_debug16_Error_formatter10_ParameterC2INSt7__debug6vectorISt4pairIiN7blocxx85ArrayINS6_6StringEEEESaISA_EEEEERKT_PKcNS0_12_Is_sequenceE@Base 2.3.0~svn544
 _ZN11__gnu_debug16_Error_formatter10_ParameterC2INSt7__debug6vectorIbSaIbEEEEERKT_PKcNS0_12_Is_sequenceE@Base 2.3.0~svn544
 _ZN11__gnu_debug16_Error_formatter10_ParameterC2INSt7__debug6vectorIcSaIcEEEEERKT_PKcNS0_12_Is_sequenceE@Base 2.3.0~svn544
 _ZN11__gnu_debug16_Error_formatter10_ParameterC2INSt7__debug6vectorIhSaIhEEEEERKT_PKcNS0_12_Is_sequenceE@Base 2.3.0~svn544
 _ZN11__gnu_debug16_Error_formatter10_ParameterC2INSt7__debug6vectorIiSaIiEEEEERKT_PKcNS0_12_Is_sequenceE@Base 2.3.0~svn544
 _ZN11__gnu_debug16_Error_formatter10_ParameterC2INSt7__debug6vectorItSaItEEEEERKT_PKcNS0_12_Is_sequenceE@Base 2.3.0~svn544
 _ZN11__gnu_debug16_Error_formatter10_ParameterC2IPKcEERKT_S4_NS0_12_Is_iteratorE@Base 2.3.0~svn544
 _ZN11__gnu_debug16_Error_formatter10_ParameterC2IPN7blocxx818IntrusiveReferenceINS3_11LogAppenderEEEEERKT_PKcNS0_12_Is_iteratorE@Base 2.3.0~svn544
 _ZN11__gnu_debug16_Error_formatter10_ParameterC2IPN7blocxx818IntrusiveReferenceINS3_16ParserOptionImplEEEEERKT_PKcNS0_12_Is_iteratorE@Base 2.3.0~svn544
 _ZN11__gnu_debug16_Error_formatter10_ParameterC2IPN7blocxx818IntrusiveReferenceINS3_26LogMessagePatternFormatter9ConverterEEEEERKT_PKcNS0_12_Is_iteratorE@Base 2.3.0~svn544
 _ZN11__gnu_debug16_Error_formatter10_ParameterC2IPN7blocxx818IntrusiveReferenceINS3_6ThreadEEEEERKT_PKcNS0_12_Is_iteratorE@Base 2.3.0~svn544
 _ZN11__gnu_debug16_Error_formatter10_ParameterC2IPN7blocxx818IntrusiveReferenceINS3_7ProcessEEEEERKT_PKcNS0_12_Is_iteratorE@Base 2.3.0~svn544
 _ZN11__gnu_debug16_Error_formatter10_ParameterC2IPN7blocxx86Select12SelectObjectEEERKT_PKcNS0_12_Is_iteratorE@Base 2.3.0~svn544
 _ZN11__gnu_debug16_Error_formatter10_ParameterC2IPN7blocxx86StringEEERKT_PKcNS0_12_Is_iteratorE@Base 2.3.0~svn544
 _ZN11__gnu_debug16_Error_formatter10_ParameterC2IPPKcEERKT_S4_NS0_12_Is_iteratorE@Base 2.3.0~svn544
 _ZN11__gnu_debug16_Error_formatter10_ParameterC2IPPN7blocxx818IntrusiveReferenceINS3_8RunnableEEEEERKT_PKcNS0_12_Is_iteratorE@Base 2.3.0~svn544
 _ZN11__gnu_debug16_Error_formatter10_ParameterC2IPPcEERKT_PKcNS0_12_Is_iteratorE@Base 2.3.0~svn544
 _ZN11__gnu_debug16_Error_formatter10_ParameterC2IPSt4pairIN7blocxx86StringENS4_17EFileStatusReturnEEEERKT_PKcNS0_12_Is_iteratorE@Base 2.3.0~svn544
 _ZN11__gnu_debug16_Error_formatter10_ParameterC2IPSt4pairIiN7blocxx812SelectEngine4DataEEEERKT_PKcNS0_12_Is_iteratorE@Base 2.3.0~svn544
 _ZN11__gnu_debug16_Error_formatter10_ParameterC2IPSt4pairIiN7blocxx85ArrayINS4_6StringEEEEEERKT_PKcNS0_12_Is_iteratorE@Base 2.3.0~svn544
 _ZN11__gnu_debug16_Error_formatter10_ParameterC2IPcEERKT_PKcNS0_12_Is_iteratorE@Base 2.3.0~svn544
 _ZN11__gnu_debug16_Error_formatter10_ParameterC2IPhEERKT_PKcNS0_12_Is_iteratorE@Base 2.3.0~svn544
 _ZN11__gnu_debug16_Error_formatter10_ParameterC2IPiEERKT_PKcNS0_12_Is_iteratorE@Base 2.3.0~svn544
 _ZN11__gnu_debug16_Error_formatter10_ParameterC2IPtEERKT_PKcNS0_12_Is_iteratorE@Base 2.3.0~svn544
 _ZN11__gnu_debug16_Error_formatter10_ParameterC2ISt13move_iteratorIP10regmatch_tEEERKT_PKcNS0_12_Is_iteratorE@Base 2.3.0~svn544
 _ZN11__gnu_debug16_Error_formatter10_ParameterC2ISt13move_iteratorIPN7blocxx89PerlRegEx7match_tEEEERKT_PKcNS0_12_Is_iteratorE@Base 2.3.0~svn544
 _ZN11__gnu_debug16_Error_formatter10_ParameterC2ISt13move_iteratorIPPKcEEERKT_S5_NS0_12_Is_iteratorE@Base 2.3.0~svn544
 _ZN11__gnu_debug16_Error_formatter10_ParameterC2ISt13move_iteratorIPcEEERKT_PKcNS0_12_Is_iteratorE@Base 2.3.0~svn544
 _ZN11__gnu_debug16_Error_formatter10_ParameterC2ISt13move_iteratorIPhEEERKT_PKcNS0_12_Is_iteratorE@Base 2.3.0~svn544
 _ZN11__gnu_debug16_Error_formatter10_ParameterC2ISt13move_iteratorIPiEEERKT_PKcNS0_12_Is_iteratorE@Base 2.3.0~svn544
 _ZN11__gnu_debug16_Error_formatter10_ParameterC2ISt13move_iteratorIPtEEERKT_PKcNS0_12_Is_iteratorE@Base 2.3.0~svn544
 _ZN11__gnu_debug16_Error_formatter10_ParameterC2ISt17_Rb_tree_iteratorISt4pairIKN7blocxx86StringENS5_13SSLTrustStore8UserInfoEEENSt7__debug3mapIS6_S9_St4lessIS6_ESaISA_EEEEERKNS_14_Safe_iteratorIT_T0_EEPKcNS0_12_Is_iteratorE@Base 2.3.0~svn544
 _ZN11__gnu_debug16_Error_formatter10_ParameterC2ISt17_Rb_tree_iteratorISt4pairIKN7blocxx86StringES6_EENSt7__debug3mapIS6_S6_St4lessIS6_ESaIS8_EEEEERKNS_14_Safe_iteratorIT_T0_EEPKcNS0_12_Is_iteratorE@Base 2.3.0~svn544
 _ZN11__gnu_debug16_Error_formatter10_ParameterC2ISt17_Rb_tree_iteratorISt4pairIKmN7blocxx817GenericRWLockImplImNS6_8RWLocker14ThreadComparerEE10LockerInfoEEENSt7__debug3mapImSB_S9_SaISC_EEEEERKNS_14_Safe_iteratorIT_T0_EEPKcNS0_12_Is_iteratorE@Base 2.3.0~svn544
 _ZN11__gnu_debug16_Error_formatter10_ParameterC2ISt23_Rb_tree_const_iteratorISt4pairIKN7blocxx86StringENS5_13SSLTrustStore8UserInfoEEENSt7__debug3mapIS6_S9_St4lessIS6_ESaISA_EEEEERKNS_14_Safe_iteratorIT_T0_EEPKcNS0_12_Is_iteratorE@Base 2.3.0~svn544
 _ZN11__gnu_debug16_Error_formatter10_ParameterC2ISt23_Rb_tree_const_iteratorISt4pairIKN7blocxx86StringES6_EENSt7__debug3mapIS6_S6_St4lessIS6_ESaIS8_EEEEERKNS_14_Safe_iteratorIT_T0_EEPKcNS0_12_Is_iteratorE@Base 2.3.0~svn544
 _ZN11__gnu_debug16_Error_formatter10_ParameterC2ISt23_Rb_tree_const_iteratorISt4pairIKmN7blocxx817GenericRWLockImplImNS6_8RWLocker14ThreadComparerEE10LockerInfoEEENSt7__debug3mapImSB_S9_SaISC_EEEEERKNS_14_Safe_iteratorIT_T0_EEPKcNS0_12_Is_iteratorE@Base 2.3.0~svn544
 _ZN11__gnu_debug16_Error_formatter5_M_atEPKcm@Base 2.3.0~svn544
 _ZN11__gnu_debug16_Error_formatterC1EPKcm@Base 2.3.0~svn544
 _ZN11__gnu_debug16_Error_formatterC2EPKcm@Base 2.3.0~svn544
 _ZN11__gnu_debug16__check_singularIKN9__gnu_cxx17__normal_iteratorIPK10regmatch_tNSt9__cxx19986vectorIS3_SaIS3_EEEEEEEbRT_@Base 2.3.0~svn544
 _ZN11__gnu_debug16__check_singularIKN9__gnu_cxx17__normal_iteratorIPKN7blocxx89PerlRegEx7match_tENSt9__cxx19986vectorIS5_SaIS5_EEEEEEEbRT_@Base 2.3.0~svn544
 _ZN11__gnu_debug16__check_singularIKN9__gnu_cxx17__normal_iteratorIPKPKcNSt9__cxx19986vectorIS4_SaIS4_EEEEEEEbRT_@Base 2.3.0~svn544
 _ZN11__gnu_debug16__check_singularIKN9__gnu_cxx17__normal_iteratorIPKcNSt9__cxx19986vectorIcSaIcEEEEEEEbRT_@Base 2.3.0~svn544
 _ZN11__gnu_debug16__check_singularIKN9__gnu_cxx17__normal_iteratorIPKiNSt9__cxx19986vectorIiSaIiEEEEEEEbRT_@Base 2.3.0~svn544
 _ZN11__gnu_debug16__check_singularIKN9__gnu_cxx17__normal_iteratorIPKtNSt9__cxx19986vectorItSaItEEEEEEEbRT_@Base 2.3.0~svn544
 _ZN11__gnu_debug16__check_singularIKN9__gnu_cxx17__normal_iteratorIPN7blocxx818IntrusiveReferenceINS3_6ThreadEEENSt9__cxx19986vectorIS6_SaIS6_EEEEEEEbRT_@Base 2.3.0~svn544
 _ZN11__gnu_debug16__check_singularIKN9__gnu_cxx17__normal_iteratorIPN7blocxx86StringENSt9__cxx19986vectorIS4_SaIS4_EEEEEEEbRT_@Base 2.3.0~svn544
 _ZN11__gnu_debug16__check_singularIKN9__gnu_cxx17__normal_iteratorIPSt4pairIiN7blocxx812SelectEngine4DataEENSt9__cxx19986vectorIS7_SaIS7_EEEEEEEbRT_@Base 2.3.0~svn544
 _ZN11__gnu_debug16__check_singularIKN9__gnu_cxx17__normal_iteratorIPcNSt9__cxx19986vectorIcSaIcEEEEEEEbRT_@Base 2.3.0~svn544
 _ZN11__gnu_debug16__check_singularIKPKcEEbRT_@Base 2.3.0~svn544
 _ZN11__gnu_debug16__check_singularIKPN7blocxx818IntrusiveReferenceINS1_11LogAppenderEEEEEbRT_@Base 2.3.0~svn544
 _ZN11__gnu_debug16__check_singularIKPN7blocxx818IntrusiveReferenceINS1_16ParserOptionImplEEEEEbRT_@Base 2.3.0~svn544
 _ZN11__gnu_debug16__check_singularIKPN7blocxx818IntrusiveReferenceINS1_26LogMessagePatternFormatter9ConverterEEEEEbRT_@Base 2.3.0~svn544
 _ZN11__gnu_debug16__check_singularIKPN7blocxx818IntrusiveReferenceINS1_6ThreadEEEEEbRT_@Base 2.3.0~svn544
 _ZN11__gnu_debug16__check_singularIKPN7blocxx818IntrusiveReferenceINS1_7ProcessEEEEEbRT_@Base 2.3.0~svn544
 _ZN11__gnu_debug16__check_singularIKPN7blocxx86Select12SelectObjectEEEbRT_@Base 2.3.0~svn544
 _ZN11__gnu_debug16__check_singularIKPN7blocxx86StringEEEbRT_@Base 2.3.0~svn544
 _ZN11__gnu_debug16__check_singularIKPPKcEEbRT_@Base 2.3.0~svn544
 _ZN11__gnu_debug16__check_singularIKPPN7blocxx818IntrusiveReferenceINS1_8RunnableEEEEEbRT_@Base 2.3.0~svn544
 _ZN11__gnu_debug16__check_singularIKPPcEEbRT_@Base 2.3.0~svn544
 _ZN11__gnu_debug16__check_singularIKPSt4pairIN7blocxx86StringENS2_17EFileStatusReturnEEEEbRT_@Base 2.3.0~svn544
 _ZN11__gnu_debug16__check_singularIKPSt4pairIiN7blocxx812SelectEngine4DataEEEEbRT_@Base 2.3.0~svn544
 _ZN11__gnu_debug16__check_singularIKPSt4pairIiN7blocxx85ArrayINS2_6StringEEEEEEbRT_@Base 2.3.0~svn544
 _ZN11__gnu_debug16__check_singularIKPcEEbRT_@Base 2.3.0~svn544
 _ZN11__gnu_debug16__check_singularIKPhEEbRT_@Base 2.3.0~svn544
 _ZN11__gnu_debug16__check_singularIKPiEEbRT_@Base 2.3.0~svn544
 _ZN11__gnu_debug16__check_singularIKPtEEbRT_@Base 2.3.0~svn544
 _ZN11__gnu_debug16__check_singularIKSt13move_iteratorIP10regmatch_tEEEbRT_@Base 2.3.0~svn544
 _ZN11__gnu_debug16__check_singularIKSt13move_iteratorIPN7blocxx89PerlRegEx7match_tEEEEbRT_@Base 2.3.0~svn544
 _ZN11__gnu_debug16__check_singularIKSt13move_iteratorIPPKcEEEbRT_@Base 2.3.0~svn544
 _ZN11__gnu_debug16__check_singularIKSt13move_iteratorIPcEEEbRT_@Base 2.3.0~svn544
 _ZN11__gnu_debug16__check_singularIKSt13move_iteratorIPhEEEbRT_@Base 2.3.0~svn544
 _ZN11__gnu_debug16__check_singularIKSt13move_iteratorIPiEEEbRT_@Base 2.3.0~svn544
 _ZN11__gnu_debug16__check_singularIKSt13move_iteratorIPtEEEbRT_@Base 2.3.0~svn544
 _ZN11__gnu_debug17__valid_range_auxIN9__gnu_cxx17__normal_iteratorIPK10regmatch_tNSt9__cxx19986vectorIS3_SaIS3_EEEEEEEbRKT_SD_St12__false_type@Base 2.3.0~svn544
 _ZN11__gnu_debug17__valid_range_auxIN9__gnu_cxx17__normal_iteratorIPKN7blocxx89PerlRegEx7match_tENSt9__cxx19986vectorIS5_SaIS5_EEEEEEEbRKT_SF_St12__false_type@Base 2.3.0~svn544
 _ZN11__gnu_debug17__valid_range_auxIN9__gnu_cxx17__normal_iteratorIPKPKcNSt9__cxx19986vectorIS4_SaIS4_EEEEEEEbRKT_SE_St12__false_type@Base 2.3.0~svn544
 _ZN11__gnu_debug17__valid_range_auxIN9__gnu_cxx17__normal_iteratorIPKcNSt9__cxx19986vectorIcSaIcEEEEEEEbRKT_SC_St12__false_type@Base 2.3.0~svn544
 _ZN11__gnu_debug17__valid_range_auxIN9__gnu_cxx17__normal_iteratorIPKiNSt9__cxx19986vectorIiSaIiEEEEEEEbRKT_SC_St12__false_type@Base 2.3.0~svn544
 _ZN11__gnu_debug17__valid_range_auxIN9__gnu_cxx17__normal_iteratorIPKtNSt9__cxx19986vectorItSaItEEEEEEEbRKT_SC_St12__false_type@Base 2.3.0~svn544
 _ZN11__gnu_debug17__valid_range_auxIN9__gnu_cxx17__normal_iteratorIPN7blocxx818IntrusiveReferenceINS3_6ThreadEEENSt9__cxx19986vectorIS6_SaIS6_EEEEEEEbRKT_SF_St12__false_type@Base 2.3.0~svn544
 _ZN11__gnu_debug17__valid_range_auxIN9__gnu_cxx17__normal_iteratorIPN7blocxx86StringENSt9__cxx19986vectorIS4_SaIS4_EEEEEEEbRKT_SD_St12__false_type@Base 2.3.0~svn544
 _ZN11__gnu_debug17__valid_range_auxIN9__gnu_cxx17__normal_iteratorIPSt4pairIiN7blocxx812SelectEngine4DataEENSt9__cxx19986vectorIS7_SaIS7_EEEEEEEbRKT_SG_St12__false_type@Base 2.3.0~svn544
 _ZN11__gnu_debug17__valid_range_auxIN9__gnu_cxx17__normal_iteratorIPcNSt9__cxx19986vectorIcSaIcEEEEEEEbRKT_SB_St12__false_type@Base 2.3.0~svn544
 _ZN11__gnu_debug17__valid_range_auxIPKcEEbRKT_S5_St12__false_type@Base 2.3.0~svn544
 _ZN11__gnu_debug17__valid_range_auxIPN7blocxx818IntrusiveReferenceINS1_11LogAppenderEEEEEbRKT_S8_St12__false_type@Base 2.3.0~svn544
 _ZN11__gnu_debug17__valid_range_auxIPN7blocxx818IntrusiveReferenceINS1_16ParserOptionImplEEEEEbRKT_S8_St12__false_type@Base 2.3.0~svn544
 _ZN11__gnu_debug17__valid_range_auxIPN7blocxx818IntrusiveReferenceINS1_26LogMessagePatternFormatter9ConverterEEEEEbRKT_S9_St12__false_type@Base 2.3.0~svn544
 _ZN11__gnu_debug17__valid_range_auxIPN7blocxx818IntrusiveReferenceINS1_6ThreadEEEEEbRKT_S8_St12__false_type@Base 2.3.0~svn544
 _ZN11__gnu_debug17__valid_range_auxIPN7blocxx818IntrusiveReferenceINS1_7ProcessEEEEEbRKT_S8_St12__false_type@Base 2.3.0~svn544
 _ZN11__gnu_debug17__valid_range_auxIPN7blocxx86Select12SelectObjectEEEbRKT_S7_St12__false_type@Base 2.3.0~svn544
 _ZN11__gnu_debug17__valid_range_auxIPN7blocxx86StringEEEbRKT_S6_St12__false_type@Base 2.3.0~svn544
 _ZN11__gnu_debug17__valid_range_auxIPPKcEEbRKT_S6_St12__false_type@Base 2.3.0~svn544
 _ZN11__gnu_debug17__valid_range_auxIPPN7blocxx818IntrusiveReferenceINS1_8RunnableEEEEEbRKT_S9_St12__false_type@Base 2.3.0~svn544
 _ZN11__gnu_debug17__valid_range_auxIPPcEEbRKT_S5_St12__false_type@Base 2.3.0~svn544
 _ZN11__gnu_debug17__valid_range_auxIPSt4pairIN7blocxx86StringENS2_17EFileStatusReturnEEEEbRKT_S9_St12__false_type@Base 2.3.0~svn544
 _ZN11__gnu_debug17__valid_range_auxIPSt4pairIiN7blocxx812SelectEngine4DataEEEEbRKT_S9_St12__false_type@Base 2.3.0~svn544
 _ZN11__gnu_debug17__valid_range_auxIPSt4pairIiN7blocxx85ArrayINS2_6StringEEEEEEbRKT_SA_St12__false_type@Base 2.3.0~svn544
 _ZN11__gnu_debug17__valid_range_auxIPcEEbRKT_S4_St12__false_type@Base 2.3.0~svn544
 _ZN11__gnu_debug17__valid_range_auxIPhEEbRKT_S4_St12__false_type@Base 2.3.0~svn544
 _ZN11__gnu_debug17__valid_range_auxIPiEEbRKT_S4_St12__false_type@Base 2.3.0~svn544
 _ZN11__gnu_debug17__valid_range_auxIPtEEbRKT_S4_St12__false_type@Base 2.3.0~svn544
 _ZN11__gnu_debug17__valid_range_auxISt13move_iteratorIP10regmatch_tEEEbRKT_S7_St12__false_type@Base 2.3.0~svn544
 _ZN11__gnu_debug17__valid_range_auxISt13move_iteratorIPN7blocxx89PerlRegEx7match_tEEEEbRKT_S9_St12__false_type@Base 2.3.0~svn544
 _ZN11__gnu_debug17__valid_range_auxISt13move_iteratorIPPKcEEEbRKT_S8_St12__false_type@Base 2.3.0~svn544
 _ZN11__gnu_debug17__valid_range_auxISt13move_iteratorIPcEEEbRKT_S6_St12__false_type@Base 2.3.0~svn544
 _ZN11__gnu_debug17__valid_range_auxISt13move_iteratorIPhEEEbRKT_S6_St12__false_type@Base 2.3.0~svn544
 _ZN11__gnu_debug17__valid_range_auxISt13move_iteratorIPiEEEbRKT_S6_St12__false_type@Base 2.3.0~svn544
 _ZN11__gnu_debug17__valid_range_auxISt13move_iteratorIPtEEEbRKT_S6_St12__false_type@Base 2.3.0~svn544
 _ZN11__gnu_debug18_BeforeBeginHelperINSt7__debug3mapIN7blocxx86StringENS3_13SSLTrustStore8UserInfoESt4lessIS4_ESaISt4pairIKS4_S6_EEEEE5_M_IsESt23_Rb_tree_const_iteratorISB_EPKSD_@Base 2.3.0~svn544
 _ZN11__gnu_debug18_BeforeBeginHelperINSt7__debug3mapIN7blocxx86StringES4_St4lessIS4_ESaISt4pairIKS4_S4_EEEEE5_M_IsESt23_Rb_tree_const_iteratorIS9_EPKSB_@Base 2.3.0~svn544
 _ZN11__gnu_debug18_BeforeBeginHelperINSt7__debug3mapImN7blocxx817GenericRWLockImplImNS3_8RWLocker14ThreadComparerEE10LockerInfoES6_SaISt4pairIKmS8_EEEEE5_M_IsESt23_Rb_tree_const_iteratorISB_EPKSD_@Base 2.3.0~svn544
 _ZN11__gnu_debug18_BeforeBeginHelperINSt7__debug6vectorI10regmatch_tSaIS3_EEEE5_M_IsEN9__gnu_cxx17__normal_iteratorIPKS3_NSt9__cxx19986vectorIS3_S4_EEEEPKS5_@Base 2.3.0~svn544
 _ZN11__gnu_debug18_BeforeBeginHelperINSt7__debug6vectorIN7blocxx818IntrusiveReferenceINS3_16ParserOptionImplEEESaIS6_EEEE5_M_IsEN9__gnu_cxx17__normal_iteratorIPKS6_NSt9__cxx19986vectorIS6_S7_EEEEPKS8_@Base 2.3.0~svn544
 _ZN11__gnu_debug18_BeforeBeginHelperINSt7__debug6vectorIN7blocxx818IntrusiveReferenceINS3_26LogMessagePatternFormatter9ConverterEEESaIS7_EEEE5_M_IsEN9__gnu_cxx17__normal_iteratorIPKS7_NSt9__cxx19986vectorIS7_S8_EEEEPKS9_@Base 2.3.0~svn544
 _ZN11__gnu_debug18_BeforeBeginHelperINSt7__debug6vectorIN7blocxx818IntrusiveReferenceINS3_6ThreadEEESaIS6_EEEE5_M_IsEN9__gnu_cxx17__normal_iteratorIPKS6_NSt9__cxx19986vectorIS6_S7_EEEEPKS8_@Base 2.3.0~svn544
 _ZN11__gnu_debug18_BeforeBeginHelperINSt7__debug6vectorIN7blocxx86StringESaIS4_EEEE5_M_IsEN9__gnu_cxx17__normal_iteratorIPKS4_NSt9__cxx19986vectorIS4_S5_EEEEPKS6_@Base 2.3.0~svn544
 _ZN11__gnu_debug18_BeforeBeginHelperINSt7__debug6vectorIN7blocxx89PerlRegEx7match_tESaIS5_EEEE5_M_IsEN9__gnu_cxx17__normal_iteratorIPKS5_NSt9__cxx19986vectorIS5_S6_EEEEPKS7_@Base 2.3.0~svn544
 _ZN11__gnu_debug18_BeforeBeginHelperINSt7__debug6vectorISt4pairIN7blocxx86StringENS4_17EFileStatusReturnEESaIS7_EEEE5_M_IsEN9__gnu_cxx17__normal_iteratorIPKS7_NSt9__cxx19986vectorIS7_S8_EEEEPKS9_@Base 2.3.0~svn544
 _ZN11__gnu_debug18_BeforeBeginHelperINSt7__debug6vectorISt4pairIN7blocxx86StringES5_ESaIS6_EEEE5_M_IsEN9__gnu_cxx17__normal_iteratorIPKS6_NSt9__cxx19986vectorIS6_S7_EEEEPKS8_@Base 2.3.0~svn544
 _ZN11__gnu_debug18_BeforeBeginHelperINSt7__debug6vectorISt4pairIiN7blocxx812SelectEngine4DataEESaIS7_EEEE5_M_IsEN9__gnu_cxx17__normal_iteratorIPKS7_NSt9__cxx19986vectorIS7_S8_EEEEPKS9_@Base 2.3.0~svn544
 _ZN11__gnu_debug18_BeforeBeginHelperINSt7__debug6vectorISt4pairIiN7blocxx85ArrayINS4_6StringEEEESaIS8_EEEE5_M_IsEN9__gnu_cxx17__normal_iteratorIPKS8_NSt9__cxx19986vectorIS8_S9_EEEEPKSA_@Base 2.3.0~svn544
 _ZN11__gnu_debug18_BeforeBeginHelperINSt7__debug6vectorIcSaIcEEEE5_M_IsEN9__gnu_cxx17__normal_iteratorIPKcNSt9__cxx19986vectorIcS3_EEEEPKS4_@Base 2.3.0~svn544
 _ZN11__gnu_debug18_BeforeBeginHelperINSt7__debug6vectorIhSaIhEEEE5_M_IsEN9__gnu_cxx17__normal_iteratorIPKhNSt9__cxx19986vectorIhS3_EEEEPKS4_@Base 2.3.0~svn544
 _ZN11__gnu_debug18__valid_range_aux2IN9__gnu_cxx17__normal_iteratorIPK10regmatch_tNSt9__cxx19986vectorIS3_SaIS3_EEEEEEEbRKT_SD_St26random_access_iterator_tag@Base 2.3.0~svn544
 _ZN11__gnu_debug18__valid_range_aux2IN9__gnu_cxx17__normal_iteratorIPKN7blocxx89PerlRegEx7match_tENSt9__cxx19986vectorIS5_SaIS5_EEEEEEEbRKT_SF_St26random_access_iterator_tag@Base 2.3.0~svn544
 _ZN11__gnu_debug18__valid_range_aux2IN9__gnu_cxx17__normal_iteratorIPKPKcNSt9__cxx19986vectorIS4_SaIS4_EEEEEEEbRKT_SE_St26random_access_iterator_tag@Base 2.3.0~svn544
 _ZN11__gnu_debug18__valid_range_aux2IN9__gnu_cxx17__normal_iteratorIPKcNSt9__cxx19986vectorIcSaIcEEEEEEEbRKT_SC_St26random_access_iterator_tag@Base 2.3.0~svn544
 _ZN11__gnu_debug18__valid_range_aux2IN9__gnu_cxx17__normal_iteratorIPKiNSt9__cxx19986vectorIiSaIiEEEEEEEbRKT_SC_St26random_access_iterator_tag@Base 2.3.0~svn544
 _ZN11__gnu_debug18__valid_range_aux2IN9__gnu_cxx17__normal_iteratorIPKtNSt9__cxx19986vectorItSaItEEEEEEEbRKT_SC_St26random_access_iterator_tag@Base 2.3.0~svn544
 _ZN11__gnu_debug18__valid_range_aux2IN9__gnu_cxx17__normal_iteratorIPN7blocxx818IntrusiveReferenceINS3_6ThreadEEENSt9__cxx19986vectorIS6_SaIS6_EEEEEEEbRKT_SF_St26random_access_iterator_tag@Base 2.3.0~svn544
 _ZN11__gnu_debug18__valid_range_aux2IN9__gnu_cxx17__normal_iteratorIPN7blocxx86StringENSt9__cxx19986vectorIS4_SaIS4_EEEEEEEbRKT_SD_St26random_access_iterator_tag@Base 2.3.0~svn544
 _ZN11__gnu_debug18__valid_range_aux2IN9__gnu_cxx17__normal_iteratorIPSt4pairIiN7blocxx812SelectEngine4DataEENSt9__cxx19986vectorIS7_SaIS7_EEEEEEEbRKT_SG_St26random_access_iterator_tag@Base 2.3.0~svn544
 _ZN11__gnu_debug18__valid_range_aux2IN9__gnu_cxx17__normal_iteratorIPcNSt9__cxx19986vectorIcSaIcEEEEEEEbRKT_SB_St26random_access_iterator_tag@Base 2.3.0~svn544
 _ZN11__gnu_debug18__valid_range_aux2IPKcEEbRKT_S5_St26random_access_iterator_tag@Base 2.3.0~svn544
 _ZN11__gnu_debug18__valid_range_aux2IPN7blocxx818IntrusiveReferenceINS1_11LogAppenderEEEEEbRKT_S8_St26random_access_iterator_tag@Base 2.3.0~svn544
 _ZN11__gnu_debug18__valid_range_aux2IPN7blocxx818IntrusiveReferenceINS1_16ParserOptionImplEEEEEbRKT_S8_St26random_access_iterator_tag@Base 2.3.0~svn544
 _ZN11__gnu_debug18__valid_range_aux2IPN7blocxx818IntrusiveReferenceINS1_26LogMessagePatternFormatter9ConverterEEEEEbRKT_S9_St26random_access_iterator_tag@Base 2.3.0~svn544
 _ZN11__gnu_debug18__valid_range_aux2IPN7blocxx818IntrusiveReferenceINS1_6ThreadEEEEEbRKT_S8_St26random_access_iterator_tag@Base 2.3.0~svn544
 _ZN11__gnu_debug18__valid_range_aux2IPN7blocxx818IntrusiveReferenceINS1_7ProcessEEEEEbRKT_S8_St26random_access_iterator_tag@Base 2.3.0~svn544
 _ZN11__gnu_debug18__valid_range_aux2IPN7blocxx86Select12SelectObjectEEEbRKT_S7_St26random_access_iterator_tag@Base 2.3.0~svn544
 _ZN11__gnu_debug18__valid_range_aux2IPN7blocxx86StringEEEbRKT_S6_St26random_access_iterator_tag@Base 2.3.0~svn544
 _ZN11__gnu_debug18__valid_range_aux2IPPKcEEbRKT_S6_St26random_access_iterator_tag@Base 2.3.0~svn544
 _ZN11__gnu_debug18__valid_range_aux2IPPN7blocxx818IntrusiveReferenceINS1_8RunnableEEEEEbRKT_S9_St26random_access_iterator_tag@Base 2.3.0~svn544
 _ZN11__gnu_debug18__valid_range_aux2IPPcEEbRKT_S5_St26random_access_iterator_tag@Base 2.3.0~svn544
 _ZN11__gnu_debug18__valid_range_aux2IPSt4pairIN7blocxx86StringENS2_17EFileStatusReturnEEEEbRKT_S9_St26random_access_iterator_tag@Base 2.3.0~svn544
 _ZN11__gnu_debug18__valid_range_aux2IPSt4pairIiN7blocxx812SelectEngine4DataEEEEbRKT_S9_St26random_access_iterator_tag@Base 2.3.0~svn544
 _ZN11__gnu_debug18__valid_range_aux2IPSt4pairIiN7blocxx85ArrayINS2_6StringEEEEEEbRKT_SA_St26random_access_iterator_tag@Base 2.3.0~svn544
 _ZN11__gnu_debug18__valid_range_aux2IPcEEbRKT_S4_St26random_access_iterator_tag@Base 2.3.0~svn544
 _ZN11__gnu_debug18__valid_range_aux2IPhEEbRKT_S4_St26random_access_iterator_tag@Base 2.3.0~svn544
 _ZN11__gnu_debug18__valid_range_aux2IPiEEbRKT_S4_St26random_access_iterator_tag@Base 2.3.0~svn544
 _ZN11__gnu_debug18__valid_range_aux2IPtEEbRKT_S4_St26random_access_iterator_tag@Base 2.3.0~svn544
 _ZN11__gnu_debug18__valid_range_aux2ISt13move_iteratorIP10regmatch_tEEEbRKT_S7_St26random_access_iterator_tag@Base 2.3.0~svn544
 _ZN11__gnu_debug18__valid_range_aux2ISt13move_iteratorIPN7blocxx89PerlRegEx7match_tEEEEbRKT_S9_St26random_access_iterator_tag@Base 2.3.0~svn544
 _ZN11__gnu_debug18__valid_range_aux2ISt13move_iteratorIPPKcEEEbRKT_S8_St26random_access_iterator_tag@Base 2.3.0~svn544
 _ZN11__gnu_debug18__valid_range_aux2ISt13move_iteratorIPcEEEbRKT_S6_St26random_access_iterator_tag@Base 2.3.0~svn544
 _ZN11__gnu_debug18__valid_range_aux2ISt13move_iteratorIPhEEEbRKT_S6_St26random_access_iterator_tag@Base 2.3.0~svn544
 _ZN11__gnu_debug18__valid_range_aux2ISt13move_iteratorIPiEEEbRKT_S6_St26random_access_iterator_tag@Base 2.3.0~svn544
 _ZN11__gnu_debug18__valid_range_aux2ISt13move_iteratorIPtEEEbRKT_S6_St26random_access_iterator_tag@Base 2.3.0~svn544
 _ZN11__gnu_debug19_Safe_iterator_base13_M_invalidateEv@Base 2.3.0~svn544
 _ZN11__gnu_debug19_Safe_iterator_baseC1EPKNS_19_Safe_sequence_baseEb@Base 2.3.0~svn544
 _ZN11__gnu_debug19_Safe_iterator_baseC1ERKS0_b@Base 2.3.0~svn544
 _ZN11__gnu_debug19_Safe_iterator_baseC1Ev@Base 2.3.0~svn544
 _ZN11__gnu_debug19_Safe_iterator_baseC2EPKNS_19_Safe_sequence_baseEb@Base 2.3.0~svn544
 _ZN11__gnu_debug19_Safe_iterator_baseC2ERKS0_b@Base 2.3.0~svn544
 _ZN11__gnu_debug19_Safe_iterator_baseC2Ev@Base 2.3.0~svn544
 _ZN11__gnu_debug19_Safe_iterator_baseD1Ev@Base 2.3.0~svn544
 _ZN11__gnu_debug19_Safe_iterator_baseD2Ev@Base 2.3.0~svn544
 _ZN11__gnu_debug19_Safe_sequence_baseC1Ev@Base 2.3.0~svn544
 _ZN11__gnu_debug19_Safe_sequence_baseC2Ev@Base 2.3.0~svn544
 _ZN11__gnu_debug19_Safe_sequence_baseD1Ev@Base 2.3.0~svn544
 _ZN11__gnu_debug19_Safe_sequence_baseD2Ev@Base 2.3.0~svn544
 _ZN11__gnu_debug19__check_valid_rangeINS_14_Safe_iteratorIN9__gnu_cxx17__normal_iteratorIPKN7blocxx86StringENSt9__cxx19986vectorIS5_SaIS5_EEEEENSt7__debug6vectorIS5_SA_EEEEEET_RKSH_SJ_@Base 2.3.0~svn544
 _ZN11__gnu_debug19__check_valid_rangeIPKcEET_RKS3_S5_@Base 2.3.0~svn544
 _ZN11__gnu_debug20__check_singular_auxEPKv@Base 2.3.0~svn544
 _ZN11__gnu_debug25__check_partitioned_lowerINS_14_Safe_iteratorIN9__gnu_cxx17__normal_iteratorIPKN7blocxx86StringENSt9__cxx19986vectorIS5_SaIS5_EEEEENSt7__debug6vectorIS5_SA_EEEES5_St4lessIS5_EEEbT_SJ_RKT0_T1_@Base 2.3.0~svn544
 _ZN11__gnu_debug25__check_partitioned_lowerINS_14_Safe_iteratorIN9__gnu_cxx17__normal_iteratorIPKSt4pairIN7blocxx86StringES6_ENSt9__cxx19986vectorIS7_SaIS7_EEEEENSt7__debug6vectorIS7_SC_EEEES6_NS5_26SortedVectorMapDataCompareIS6_S6_St4lessIS6_EEEEEbT_SN_RKT0_T1_@Base 2.3.0~svn544
 _ZN11__gnu_debug25__check_partitioned_lowerINS_14_Safe_iteratorIN9__gnu_cxx17__normal_iteratorIPKSt4pairIiN7blocxx85ArrayINS5_6StringEEEENSt9__cxx19986vectorIS9_SaIS9_EEEEENSt7__debug6vectorIS9_SE_EEEEiNS5_26SortedVectorMapDataCompareIiS8_St4lessIiEEEEEbT_SP_RKT0_T1_@Base 2.3.0~svn544
 _ZN11__gnu_debug25__check_partitioned_lowerINS_14_Safe_iteratorIN9__gnu_cxx17__normal_iteratorIPSt4pairIiN7blocxx812SelectEngine4DataEENSt9__cxx19986vectorIS8_SaIS8_EEEEENSt7__debug6vectorIS8_SC_EEEES4_IKiS7_ENS5_26SortedVectorMapDataCompareIiS7_St4lessIiEEEEEbT_SP_RKT0_T1_@Base 2.3.0~svn544
 _ZN11__gnu_debug25__check_partitioned_lowerINS_14_Safe_iteratorIN9__gnu_cxx17__normal_iteratorIPSt4pairIiN7blocxx812SelectEngine4DataEENSt9__cxx19986vectorIS8_SaIS8_EEEEENSt7__debug6vectorIS8_SC_EEEEiNS5_26SortedVectorMapDataCompareIiS7_St4lessIiEEEEEbT_SN_RKT0_T1_@Base 2.3.0~svn544
 _ZN11__gnu_debug25__check_partitioned_lowerINS_14_Safe_iteratorIN9__gnu_cxx17__normal_iteratorIPSt4pairIiN7blocxx85ArrayINS5_6StringEEEENSt9__cxx19986vectorIS9_SaIS9_EEEEENSt7__debug6vectorIS9_SD_EEEEiNS5_26SortedVectorMapDataCompareIiS8_St4lessIiEEEEEbT_SO_RKT0_T1_@Base 2.3.0~svn544
 _ZN11__gnu_debug25__check_partitioned_upperINS_14_Safe_iteratorIN9__gnu_cxx17__normal_iteratorIPKN7blocxx86StringENSt9__cxx19986vectorIS5_SaIS5_EEEEENSt7__debug6vectorIS5_SA_EEEES5_St4lessIS5_EEEbT_SJ_RKT0_T1_@Base 2.3.0~svn544
 _ZN11__gnu_debug25__check_partitioned_upperINS_14_Safe_iteratorIN9__gnu_cxx17__normal_iteratorIPKSt4pairIiN7blocxx85ArrayINS5_6StringEEEENSt9__cxx19986vectorIS9_SaIS9_EEEEENSt7__debug6vectorIS9_SE_EEEEiNS5_26SortedVectorMapDataCompareIiS8_St4lessIiEEEEEbT_SP_RKT0_T1_@Base 2.3.0~svn544
 _ZN11__gnu_debug6__baseINS_14_Safe_iteratorIN9__gnu_cxx17__normal_iteratorIPKN7blocxx86StringENSt9__cxx19986vectorIS5_SaIS5_EEEEENSt7__debug6vectorIS5_SA_EEEEEENS_11_Siter_baseIT_E13iterator_typeESI_@Base 2.3.0~svn544
 _ZN11__gnu_debug6__baseIPKcEENS_11_Siter_baseIT_E13iterator_typeES4_@Base 2.3.0~svn544
 _ZN11__gnu_debug9_Equal_toIN9__gnu_cxx17__normal_iteratorIPKN7blocxx818IntrusiveReferenceINS3_6ThreadEEENSt9__cxx19986vectorIS6_SaIS6_EEEEEEC1ERKSD_@Base 2.3.0~svn544
 _ZN11__gnu_debug9_Equal_toIN9__gnu_cxx17__normal_iteratorIPKN7blocxx818IntrusiveReferenceINS3_6ThreadEEENSt9__cxx19986vectorIS6_SaIS6_EEEEEEC2ERKSD_@Base 2.3.0~svn544
 _ZN11__gnu_debug9_Equal_toIN9__gnu_cxx17__normal_iteratorIPKcNSt9__cxx19986vectorIcSaIcEEEEEEC1ERKS9_@Base 2.3.0~svn544
 _ZN11__gnu_debug9_Equal_toIN9__gnu_cxx17__normal_iteratorIPKcNSt9__cxx19986vectorIcSaIcEEEEEEC2ERKS9_@Base 2.3.0~svn544
 _ZN11__gnu_debug9_Equal_toINSt9__cxx199815_Deque_iteratorIN7blocxx818IntrusiveReferenceINS3_8RunnableEEERKS6_PS7_EEEC1ERKSA_@Base 2.3.0~svn544
 _ZN11__gnu_debug9_Equal_toINSt9__cxx199815_Deque_iteratorIN7blocxx818IntrusiveReferenceINS3_8RunnableEEERKS6_PS7_EEEC2ERKSA_@Base 2.3.0~svn544
 _ZN11__gnu_debug9_Equal_toISt23_Rb_tree_const_iteratorISt4pairIKN7blocxx86StringES4_EEEC1ERKS7_@Base 2.3.0~svn544
 _ZN11__gnu_debug9_Equal_toISt23_Rb_tree_const_iteratorISt4pairIKN7blocxx86StringES4_EEEC2ERKS7_@Base 2.3.0~svn544
 _ZN11__gnu_debug9_Equal_toISt23_Rb_tree_const_iteratorISt4pairIKmN7blocxx817GenericRWLockImplImNS4_8RWLocker14ThreadComparerEE10LockerInfoEEEEC1ERKSB_@Base 2.3.0~svn544
 _ZN11__gnu_debug9_Equal_toISt23_Rb_tree_const_iteratorISt4pairIKmN7blocxx817GenericRWLockImplImNS4_8RWLocker14ThreadComparerEE10LockerInfoEEEEC2ERKSB_@Base 2.3.0~svn544
 _ZN11__gnu_debugeqIN9__gnu_cxx17__normal_iteratorIPKN7blocxx818IntrusiveReferenceINS3_16ParserOptionImplEEENSt9__cxx19986vectorIS6_SaIS6_EEEEENS2_IPS6_SC_EENSt7__debug6vectorIS6_SB_EEEEbRKNS_14_Safe_iteratorIT_T1_EERKNSJ_IT0_SL_EE@Base 2.3.0~svn544
 _ZN11__gnu_debugeqIN9__gnu_cxx17__normal_iteratorIPKN7blocxx818IntrusiveReferenceINS3_16ParserOptionImplEEENSt9__cxx19986vectorIS6_SaIS6_EEEEENSt7__debug6vectorIS6_SB_EEEEbRKNS_14_Safe_iteratorIT_T0_EESM_@Base 2.3.0~svn544
 _ZN11__gnu_debugeqIN9__gnu_cxx17__normal_iteratorIPKN7blocxx86StringENSt9__cxx19986vectorIS4_SaIS4_EEEEENSt7__debug6vectorIS4_S9_EEEEbRKNS_14_Safe_iteratorIT_T0_EESK_@Base 2.3.0~svn544
 _ZN11__gnu_debugeqIN9__gnu_cxx17__normal_iteratorIPKSt4pairIN7blocxx86StringES5_ENSt9__cxx19986vectorIS6_SaIS6_EEEEENSt7__debug6vectorIS6_SB_EEEEbRKNS_14_Safe_iteratorIT_T0_EESM_@Base 2.3.0~svn544
 _ZN11__gnu_debugeqIN9__gnu_cxx17__normal_iteratorIPKSt4pairIiN7blocxx85ArrayINS4_6StringEEEENSt9__cxx19986vectorIS8_SaIS8_EEEEENSt7__debug6vectorIS8_SD_EEEEbRKNS_14_Safe_iteratorIT_T0_EESO_@Base 2.3.0~svn544
 _ZN11__gnu_debugeqIN9__gnu_cxx17__normal_iteratorIPN7blocxx86StringENSt9__cxx19986vectorIS4_SaIS4_EEEEENSt7__debug6vectorIS4_S8_EEEEbRKNS_14_Safe_iteratorIT_T0_EESJ_@Base 2.3.0~svn544
 _ZN11__gnu_debugeqIN9__gnu_cxx17__normal_iteratorIPSt4pairIiN7blocxx812SelectEngine4DataEENSt9__cxx19986vectorIS7_SaIS7_EEEEENSt7__debug6vectorIS7_SB_EEEEbRKNS_14_Safe_iteratorIT_T0_EESM_@Base 2.3.0~svn544
 _ZN11__gnu_debugeqIN9__gnu_cxx17__normal_iteratorIPSt4pairIiN7blocxx85ArrayINS4_6StringEEEENSt9__cxx19986vectorIS8_SaIS8_EEEEENSt7__debug6vectorIS8_SC_EEEEbRKNS_14_Safe_iteratorIT_T0_EESN_@Base 2.3.0~svn544
 _ZN11__gnu_debugeqISt17_Rb_tree_iteratorISt4pairIKN7blocxx86StringES4_EENSt7__debug3mapIS4_S4_St4lessIS4_ESaIS6_EEEEEbRKNS_14_Safe_iteratorIT_T0_EESJ_@Base 2.3.0~svn544
 _ZN11__gnu_debugeqISt17_Rb_tree_iteratorISt4pairIKmN7blocxx817GenericRWLockImplImNS4_8RWLocker14ThreadComparerEE10LockerInfoEEENSt7__debug3mapImS9_S7_SaISA_EEEEEbRKNS_14_Safe_iteratorIT_T0_EESL_@Base 2.3.0~svn544
 _ZN11__gnu_debugeqISt23_Rb_tree_const_iteratorISt4pairIKN7blocxx86StringENS3_13SSLTrustStore8UserInfoEEESt17_Rb_tree_iteratorIS8_ENSt7__debug3mapIS4_S7_St4lessIS4_ESaIS8_EEEEEbRKNS_14_Safe_iteratorIT_T1_EERKNSI_IT0_SK_EE@Base 2.3.0~svn544
 _ZN11__gnu_debugltIN9__gnu_cxx17__normal_iteratorIPN7blocxx86StringENSt9__cxx19986vectorIS4_SaIS4_EEEEENSt7__debug6vectorIS4_S8_EEEEbRKNS_14_Safe_iteratorIT_T0_EESJ_@Base 2.3.0~svn544
 _ZN11__gnu_debugmiIN9__gnu_cxx17__normal_iteratorIPKN7blocxx818IntrusiveReferenceINS3_16ParserOptionImplEEENSt9__cxx19986vectorIS6_SaIS6_EEEEENSt7__debug6vectorIS6_SB_EEEENS_14_Safe_iteratorIT_T0_E15difference_typeERKSK_SN_@Base 2.3.0~svn544
 _ZN11__gnu_debugmiIN9__gnu_cxx17__normal_iteratorIPKN7blocxx86StringENSt9__cxx19986vectorIS4_SaIS4_EEEEENSt7__debug6vectorIS4_S9_EEEENS_14_Safe_iteratorIT_T0_E15difference_typeERKSI_SL_@Base 2.3.0~svn544
 _ZN11__gnu_debugmiIN9__gnu_cxx17__normal_iteratorIPKSt4pairIN7blocxx86StringES5_ENSt9__cxx19986vectorIS6_SaIS6_EEEEENSt7__debug6vectorIS6_SB_EEEENS_14_Safe_iteratorIT_T0_E15difference_typeERKSK_SN_@Base 2.3.0~svn544
 _ZN11__gnu_debugmiIN9__gnu_cxx17__normal_iteratorIPKSt4pairIiN7blocxx85ArrayINS4_6StringEEEENSt9__cxx19986vectorIS8_SaIS8_EEEEENSt7__debug6vectorIS8_SD_EEEENS_14_Safe_iteratorIT_T0_E15difference_typeERKSM_SP_@Base 2.3.0~svn544
 _ZN11__gnu_debugmiIN9__gnu_cxx17__normal_iteratorIPN7blocxx818IntrusiveReferenceINS3_16ParserOptionImplEEENSt9__cxx19986vectorIS6_SaIS6_EEEEENSt7__debug6vectorIS6_SA_EEEENS_14_Safe_iteratorIT_T0_E15difference_typeERKSJ_SM_@Base 2.3.0~svn544
 _ZN11__gnu_debugmiIN9__gnu_cxx17__normal_iteratorIPN7blocxx86StringENSt9__cxx19986vectorIS4_SaIS4_EEEEENSt7__debug6vectorIS4_S8_EEEENS_14_Safe_iteratorIT_T0_E15difference_typeERKSH_SK_@Base 2.3.0~svn544
 _ZN11__gnu_debugmiIN9__gnu_cxx17__normal_iteratorIPSt4pairIiN7blocxx812SelectEngine4DataEENSt9__cxx19986vectorIS7_SaIS7_EEEEENSt7__debug6vectorIS7_SB_EEEENS_14_Safe_iteratorIT_T0_E15difference_typeERKSK_SN_@Base 2.3.0~svn544
 _ZN11__gnu_debugmiIN9__gnu_cxx17__normal_iteratorIPSt4pairIiN7blocxx85ArrayINS4_6StringEEEENSt9__cxx19986vectorIS8_SaIS8_EEEEENSt7__debug6vectorIS8_SC_EEEENS_14_Safe_iteratorIT_T0_E15difference_typeERKSL_SO_@Base 2.3.0~svn544
 _ZN11__gnu_debugneIN9__gnu_cxx17__normal_iteratorIPK10regmatch_tNSt9__cxx19986vectorIS3_SaIS3_EEEEENS2_IPS3_S9_EENSt7__debug6vectorIS3_S8_EEEEbRKNS_14_Safe_iteratorIT_T1_EERKNSG_IT0_SI_EE@Base 2.3.0~svn544
 _ZN11__gnu_debugneIN9__gnu_cxx17__normal_iteratorIPKN7blocxx818IntrusiveReferenceINS3_16ParserOptionImplEEENSt9__cxx19986vectorIS6_SaIS6_EEEEENSt7__debug6vectorIS6_SB_EEEEbRKNS_14_Safe_iteratorIT_T0_EESM_@Base 2.3.0~svn544
 _ZN11__gnu_debugneIN9__gnu_cxx17__normal_iteratorIPKN7blocxx818IntrusiveReferenceINS3_26LogMessagePatternFormatter9ConverterEEENSt9__cxx19986vectorIS7_SaIS7_EEEEENSt7__debug6vectorIS7_SC_EEEEbRKNS_14_Safe_iteratorIT_T0_EESN_@Base 2.3.0~svn544
 _ZN11__gnu_debugneIN9__gnu_cxx17__normal_iteratorIPKN7blocxx86StringENSt9__cxx19986vectorIS4_SaIS4_EEEEENS2_IPS4_SA_EENSt7__debug6vectorIS4_S9_EEEEbRKNS_14_Safe_iteratorIT_T1_EERKNSH_IT0_SJ_EE@Base 2.3.0~svn544
 _ZN11__gnu_debugneIN9__gnu_cxx17__normal_iteratorIPKN7blocxx86StringENSt9__cxx19986vectorIS4_SaIS4_EEEEENSt7__debug6vectorIS4_S9_EEEEbRKNS_14_Safe_iteratorIT_T0_EESK_@Base 2.3.0~svn544
 _ZN11__gnu_debugneIN9__gnu_cxx17__normal_iteratorIPKN7blocxx89PerlRegEx7match_tENSt9__cxx19986vectorIS5_SaIS5_EEEEENS2_IPS5_SB_EENSt7__debug6vectorIS5_SA_EEEEbRKNS_14_Safe_iteratorIT_T1_EERKNSI_IT0_SK_EE@Base 2.3.0~svn544
 _ZN11__gnu_debugneIN9__gnu_cxx17__normal_iteratorIPKSt4pairIN7blocxx86StringENS4_17EFileStatusReturnEENSt9__cxx19986vectorIS7_SaIS7_EEEEENSt7__debug6vectorIS7_SC_EEEEbRKNS_14_Safe_iteratorIT_T0_EESN_@Base 2.3.0~svn544
 _ZN11__gnu_debugneIN9__gnu_cxx17__normal_iteratorIPKSt4pairIN7blocxx86StringES5_ENSt9__cxx19986vectorIS6_SaIS6_EEEEENSt7__debug6vectorIS6_SB_EEEEbRKNS_14_Safe_iteratorIT_T0_EESM_@Base 2.3.0~svn544
 _ZN11__gnu_debugneIN9__gnu_cxx17__normal_iteratorIPKSt4pairIiN7blocxx812SelectEngine4DataEENSt9__cxx19986vectorIS7_SaIS7_EEEEENS2_IPS7_SD_EENSt7__debug6vectorIS7_SC_EEEEbRKNS_14_Safe_iteratorIT_T1_EERKNSK_IT0_SM_EE@Base 2.3.0~svn544
 _ZN11__gnu_debugneIN9__gnu_cxx17__normal_iteratorIPKSt4pairIiN7blocxx85ArrayINS4_6StringEEEENSt9__cxx19986vectorIS8_SaIS8_EEEEENSt7__debug6vectorIS8_SD_EEEEbRKNS_14_Safe_iteratorIT_T0_EESO_@Base 2.3.0~svn544
 _ZN11__gnu_debugneIN9__gnu_cxx17__normal_iteratorIPN7blocxx86StringENSt9__cxx19986vectorIS4_SaIS4_EEEEENSt7__debug6vectorIS4_S8_EEEEbRKNS_14_Safe_iteratorIT_T0_EESJ_@Base 2.3.0~svn544
 _ZN11__gnu_debugneIN9__gnu_cxx17__normal_iteratorIPSt4pairIiN7blocxx812SelectEngine4DataEENSt9__cxx19986vectorIS7_SaIS7_EEEEENSt7__debug6vectorIS7_SB_EEEEbRKNS_14_Safe_iteratorIT_T0_EESM_@Base 2.3.0~svn544
 _ZN11__gnu_debugneIN9__gnu_cxx17__normal_iteratorIPSt4pairIiN7blocxx85ArrayINS4_6StringEEEENSt9__cxx19986vectorIS8_SaIS8_EEEEENSt7__debug6vectorIS8_SC_EEEEbRKNS_14_Safe_iteratorIT_T0_EESN_@Base 2.3.0~svn544
 _ZN11__gnu_debugneISt17_Rb_tree_iteratorISt4pairIKN7blocxx86StringES4_EENSt7__debug3mapIS4_S4_St4lessIS4_ESaIS6_EEEEEbRKNS_14_Safe_iteratorIT_T0_EESJ_@Base 2.3.0~svn544
 _ZN11__gnu_debugneISt17_Rb_tree_iteratorISt4pairIKmN7blocxx817GenericRWLockImplImNS4_8RWLocker14ThreadComparerEE10LockerInfoEEENSt7__debug3mapImS9_S7_SaISA_EEEEEbRKNS_14_Safe_iteratorIT_T0_EESL_@Base 2.3.0~svn544
 _ZN11__gnu_debugneISt23_Rb_tree_const_iteratorISt4pairIKN7blocxx86StringENS3_13SSLTrustStore8UserInfoEEESt17_Rb_tree_iteratorIS8_ENSt7__debug3mapIS4_S7_St4lessIS4_ESaIS8_EEEEEbRKNS_14_Safe_iteratorIT_T1_EERKNSI_IT0_SK_EE@Base 2.3.0~svn544
 _ZN11__gnu_debugneISt23_Rb_tree_const_iteratorISt4pairIKN7blocxx86StringES4_EENSt7__debug3mapIS4_S4_St4lessIS4_ESaIS6_EEEEEbRKNS_14_Safe_iteratorIT_T0_EESJ_@Base 2.3.0~svn544
 _ZN20CRYPTO_dynlock_valueC1Ev@Base 2.3.0~svn544
 _ZN20CRYPTO_dynlock_valueC2Ev@Base 2.3.0~svn544
 _ZN20CRYPTO_dynlock_valueD1Ev@Base 2.3.0~svn544
 _ZN20CRYPTO_dynlock_valueD2Ev@Base 2.3.0~svn544
 _ZN7blocxx810AutoPtrVecI10regmatch_tEC1EPS1_@Base 2.3.0~svn544
 _ZN7blocxx810AutoPtrVecI10regmatch_tEC2EPS1_@Base 2.3.0~svn544
 _ZN7blocxx810AutoPtrVecI10regmatch_tED1Ev@Base 2.3.0~svn544
 _ZN7blocxx810AutoPtrVecI10regmatch_tED2Ev@Base 2.3.0~svn544
 _ZN7blocxx810AutoPtrVecI10regmatch_tEixEj@Base 2.3.0~svn544
 _ZN7blocxx810AutoPtrVecI11epoll_eventEC1EPS1_@Base 2.3.0~svn544
 _ZN7blocxx810AutoPtrVecI11epoll_eventEC2EPS1_@Base 2.3.0~svn544
 _ZN7blocxx810AutoPtrVecI11epoll_eventED1Ev@Base 2.3.0~svn544
 _ZN7blocxx810AutoPtrVecI11epoll_eventED2Ev@Base 2.3.0~svn544
 _ZN7blocxx810AutoPtrVecI11epoll_eventEixEj@Base 2.3.0~svn544
 _ZN7blocxx810AutoPtrVecI6pollfdEC1EPS1_@Base 2.3.0~svn544
 _ZN7blocxx810AutoPtrVecI6pollfdEC2EPS1_@Base 2.3.0~svn544
 _ZN7blocxx810AutoPtrVecI6pollfdED1Ev@Base 2.3.0~svn544
 _ZN7blocxx810AutoPtrVecI6pollfdED2Ev@Base 2.3.0~svn544
 _ZN7blocxx810AutoPtrVecI6pollfdEixEj@Base 2.3.0~svn544
 _ZN7blocxx810AutoPtrVecIcE5resetEPc@Base 2.3.0~svn544
 _ZN7blocxx810AutoPtrVecIcE7releaseEv@Base 2.3.0~svn544
 _ZN7blocxx810AutoPtrVecIcEC1EPc@Base 2.3.0~svn544
 _ZN7blocxx810AutoPtrVecIcEC2EPc@Base 2.3.0~svn544
 _ZN7blocxx810AutoPtrVecIcED1Ev@Base 2.3.0~svn544
 _ZN7blocxx810AutoPtrVecIcED2Ev@Base 2.3.0~svn544
 _ZN7blocxx810AutoPtrVecIcEaSEPc@Base 2.3.0~svn544
 _ZN7blocxx810AutoPtrVecIcEixEj@Base 2.3.0~svn544
 _ZN7blocxx810COWRefSwapIVPNS_8RefCountEEEvRT_S5_@Base 2.3.0~svn544
 _ZN7blocxx810COWRefSwapIVPNSt7__debug6vectorINS_18IntrusiveReferenceINS_16ParserOptionImplEEESaIS5_EEEEEvRT_SB_@Base 2.3.0~svn544
 _ZN7blocxx810COWRefSwapIVPNSt7__debug6vectorINS_6StringESaIS3_EEEEEvRT_S9_@Base 2.3.0~svn544
 _ZN7blocxx810COWRefSwapIVPNSt7__debug6vectorISt4pairIiNS_5ArrayINS_6StringEEEESaIS7_EEEEEvRT_SD_@Base 2.3.0~svn544
 _ZN7blocxx810CerrLoggerC1Ev@Base 2.3.0~svn544
 _ZN7blocxx810CerrLoggerC2Ev@Base 2.3.0~svn544
 _ZN7blocxx810CerrLoggerD0Ev@Base 2.3.0~svn544
 _ZN7blocxx810CerrLoggerD1Ev@Base 2.3.0~svn544
 _ZN7blocxx810CerrLoggerD2Ev@Base 2.3.0~svn544
 _ZN7blocxx810FileSystem10createFileERKNS_6StringE@Base 2.3.0~svn544
 _ZN7blocxx810FileSystem10removeFileERKNS_6StringE@Base 2.3.0~svn544
 _ZN7blocxx810FileSystem10renameFileERKNS_6StringES3_@Base 2.3.0~svn544
 _ZN7blocxx810FileSystem11NullFactory6createEv@Base 2.3.0~svn544
 _ZN7blocxx810FileSystem11getFileSizeERKNS_6StringERl@Base 2.3.0~svn544
 _ZN7blocxx810FileSystem11isDirectoryERKNS_6StringE@Base 2.3.0~svn544
 _ZN7blocxx810FileSystem12getFileLinesERKNS_6StringE@Base 2.3.0~svn544
 _ZN7blocxx810FileSystem12isExecutableERKNS_6StringE@Base 2.3.0~svn544
 _ZN7blocxx810FileSystem13makeDirectoryERKNS_6StringEi@Base 2.3.0~svn544
 _ZN7blocxx810FileSystem14COMPONENT_NAMEE@Base 2.3.0~svn544
 _ZN7blocxx810FileSystem14CURRENT_OFFSETE@Base 2.3.0~svn544
 _ZN7blocxx810FileSystem14createTempFileERNS_6StringERKS1_@Base 2.3.0~svn544
 _ZN7blocxx810FileSystem14statToFileInfoERK4stat@Base 2.3.0~svn544
 _ZN7blocxx810FileSystem15FileInformationC1Ev@Base 2.3.0~svn544
 _ZN7blocxx810FileSystem15FileInformationC2Ev@Base 2.3.0~svn544
 _ZN7blocxx810FileSystem15FileInformationD1Ev@Base 2.3.0~svn544
 _ZN7blocxx810FileSystem15FileInformationD2Ev@Base 2.3.0~svn544
 _ZN7blocxx810FileSystem15changeDirectoryERKNS_6StringE@Base 2.3.0~svn544
 _ZN7blocxx810FileSystem15changeFileOwnerERKNS_6StringERKj@Base 2.3.0~svn544
 _ZN7blocxx810FileSystem15getFileContentsERKNS_6StringE@Base 2.3.0~svn544
 _ZN7blocxx810FileSystem15removeDirectoryERKNS_6StringE@Base 2.3.0~svn544
 _ZN7blocxx810FileSystem16openOrCreateFileERKNS_6StringE@Base 2.3.0~svn544
 _ZN7blocxx810FileSystem16readSymbolicLinkERKNS_6StringE@Base 2.3.0~svn544
 _ZN7blocxx810FileSystem18getFileInformationERKNS_6StringE@Base 2.3.0~svn544
 _ZN7blocxx810FileSystem20getDirectoryContentsERKNS_6StringERNS_5ArrayIS1_EE@Base 2.3.0~svn544
 _ZN7blocxx810FileSystem22g_fileSystemMockObjectE@Base 2.3.0~svn544
 _ZN7blocxx810FileSystem24createAutoDeleteTempFileERKNS_6StringE@Base 2.3.0~svn544
 _ZN7blocxx810FileSystem25openForAppendOrCreateFileERKNS_6StringE@Base 2.3.0~svn544
 _ZN7blocxx810FileSystem4Path26getCurrentWorkingDirectoryEv@Base 2.3.0~svn544
 _ZN7blocxx810FileSystem4Path7dirnameERKNS_6StringE@Base 2.3.0~svn544
 _ZN7blocxx810FileSystem4Path8basenameERKNS_6StringE@Base 2.3.0~svn544
 _ZN7blocxx810FileSystem4Path8realPathERKNS_6StringE@Base 2.3.0~svn544
 _ZN7blocxx810FileSystem4Path8securityERKNS_6StringENS1_22ESecurityLoggingActionE@Base 2.3.0~svn544
 _ZN7blocxx810FileSystem4Path8securityERKNS_6StringES4_NS1_22ESecurityLoggingActionE@Base 2.3.0~svn544
 _ZN7blocxx810FileSystem4Path8securityERKNS_6StringES4_jNS1_22ESecurityLoggingActionE@Base 2.3.0~svn544
 _ZN7blocxx810FileSystem4Path8securityERKNS_6StringEjNS1_22ESecurityLoggingActionE@Base 2.3.0~svn544
 _ZN7blocxx810FileSystem4readERKiPvml@Base 2.3.0~svn544
 _ZN7blocxx810FileSystem4seekERKili@Base 2.3.0~svn544
 _ZN7blocxx810FileSystem4tellERKi@Base 2.3.0~svn544
 _ZN7blocxx810FileSystem5closeERKi@Base 2.3.0~svn544
 _ZN7blocxx810FileSystem5flushERi@Base 2.3.0~svn544
 _ZN7blocxx810FileSystem5writeEiPKvml@Base 2.3.0~svn544
 _ZN7blocxx810FileSystem6existsERKNS_6StringE@Base 2.3.0~svn544
 _ZN7blocxx810FileSystem6isLinkERKNS_6StringE@Base 2.3.0~svn544
 _ZN7blocxx810FileSystem6rewindERKi@Base 2.3.0~svn544
 _ZN7blocxx810FileSystem7canReadERKNS_6StringE@Base 2.3.0~svn544
 _ZN7blocxx810FileSystem8canWriteERKNS_6StringE@Base 2.3.0~svn544
 _ZN7blocxx810FileSystem8fileSizeEi@Base 2.3.0~svn544
 _ZN7blocxx810FileSystem8openFileERKNS_6StringE@Base 2.3.0~svn544
 _ZN7blocxx810FileSystem8openFileERKNS_6StringENS0_13EOpenModeFlagE@Base 2.3.0~svn544
 _ZN7blocxx810LazyGlobalINS_18IntrusiveReferenceINS_11UnnamedPipeEEEiNS_6Socket24ShutDownMechanismFactoryEE7InitPtrC1ERPS3_RKi@Base 2.3.0~svn544
 _ZN7blocxx810LazyGlobalINS_18IntrusiveReferenceINS_11UnnamedPipeEEEiNS_6Socket24ShutDownMechanismFactoryEE7InitPtrC2ERPS3_RKi@Base 2.3.0~svn544
 _ZN7blocxx810LazyGlobalINS_18IntrusiveReferenceINS_11UnnamedPipeEEEiNS_6Socket24ShutDownMechanismFactoryEE7InitPtrclEv@Base 2.3.0~svn544
 _ZN7blocxx810LazyGlobalINS_18IntrusiveReferenceINS_11UnnamedPipeEEEiNS_6Socket24ShutDownMechanismFactoryEED1Ev@Base 2.3.0~svn544
 _ZN7blocxx810LazyGlobalINS_18IntrusiveReferenceINS_11UnnamedPipeEEEiNS_6Socket24ShutDownMechanismFactoryEED2Ev@Base 2.3.0~svn544
 _ZN7blocxx810LazyGlobalINS_18IntrusiveReferenceINS_11UnnamedPipeEEEiNS_6Socket24ShutDownMechanismFactoryEEaSIS3_EERS3_RKT_@Base 2.3.0~svn544
 _ZN7blocxx810LazyGlobalINS_18IntrusiveReferenceINS_11UnnamedPipeEEEiNS_6Socket24ShutDownMechanismFactoryEEcvRS3_Ev@Base 2.3.0~svn544
 _ZN7blocxx810LazyGlobalINS_5ArrayINS_6StringEEEKPKcNS_29StringArrayConstructorFactoryEE7InitPtrC1ERPS3_RS6_@Base 2.3.0~svn544
 _ZN7blocxx810LazyGlobalINS_5ArrayINS_6StringEEEKPKcNS_29StringArrayConstructorFactoryEE7InitPtrC2ERPS3_RS6_@Base 2.3.0~svn544
 _ZN7blocxx810LazyGlobalINS_5ArrayINS_6StringEEEKPKcNS_29StringArrayConstructorFactoryEE7InitPtrclEv@Base 2.3.0~svn544
 _ZN7blocxx810LazyGlobalINS_5ArrayINS_6StringEEEKPKcNS_29StringArrayConstructorFactoryEED1Ev@Base 2.3.0~svn544
 _ZN7blocxx810LazyGlobalINS_5ArrayINS_6StringEEEKPKcNS_29StringArrayConstructorFactoryEED2Ev@Base 2.3.0~svn544
 _ZN7blocxx810LazyGlobalINS_5MutexEiNS_33DefaultConstructedVariableFactoryIS1_EEE7InitPtrC1ERPS1_RKi@Base 2.3.0~svn544
 _ZN7blocxx810LazyGlobalINS_5MutexEiNS_33DefaultConstructedVariableFactoryIS1_EEE7InitPtrC2ERPS1_RKi@Base 2.3.0~svn544
 _ZN7blocxx810LazyGlobalINS_5MutexEiNS_33DefaultConstructedVariableFactoryIS1_EEE7InitPtrclEv@Base 2.3.0~svn544
 _ZN7blocxx810LazyGlobalINS_5MutexEiNS_33DefaultConstructedVariableFactoryIS1_EEED1Ev@Base 2.3.0~svn544
 _ZN7blocxx810LazyGlobalINS_5MutexEiNS_33DefaultConstructedVariableFactoryIS1_EEED2Ev@Base 2.3.0~svn544
 _ZN7blocxx810LazyGlobalINS_5MutexEiNS_33DefaultConstructedVariableFactoryIS1_EEEcvRS1_Ev@Base 2.3.0~svn544
 _ZN7blocxx810LazyGlobalINS_6StringEKPKcNS_33DefaultVariableConstructorFactoryIS1_S4_EEE7InitPtrC1ERPS1_RS4_@Base 2.3.0~svn544
 _ZN7blocxx810LazyGlobalINS_6StringEKPKcNS_33DefaultVariableConstructorFactoryIS1_S4_EEE7InitPtrC2ERPS1_RS4_@Base 2.3.0~svn544
 _ZN7blocxx810LazyGlobalINS_6StringEKPKcNS_33DefaultVariableConstructorFactoryIS1_S4_EEE7InitPtrclEv@Base 2.3.0~svn544
 _ZN7blocxx810LazyGlobalINS_6StringEKPKcNS_33DefaultVariableConstructorFactoryIS1_S4_EEED1Ev@Base 2.3.0~svn544
 _ZN7blocxx810LazyGlobalINS_6StringEKPKcNS_33DefaultVariableConstructorFactoryIS1_S4_EEED2Ev@Base 2.3.0~svn544
 _ZN7blocxx810LazyGlobalINS_6StringEKPKcNS_33DefaultVariableConstructorFactoryIS1_S4_EEEcvRS1_Ev@Base 2.3.0~svn544
 _ZN7blocxx810LogMessageC1ERKNS_6StringES3_S3_PKciS5_@Base 2.3.0~svn544
 _ZN7blocxx810LogMessageC2ERKNS_6StringES3_S3_PKciS5_@Base 2.3.0~svn544
 _ZN7blocxx810LogMessageD1Ev@Base 2.3.0~svn544
 _ZN7blocxx810LogMessageD2Ev@Base 2.3.0~svn544
 _ZN7blocxx810NullLoggerC1Ev@Base 2.3.0~svn544
 _ZN7blocxx810NullLoggerC2Ev@Base 2.3.0~svn544
 _ZN7blocxx810NullLoggerD0Ev@Base 2.3.0~svn544
 _ZN7blocxx810NullLoggerD1Ev@Base 2.3.0~svn544
 _ZN7blocxx810NullLoggerD2Ev@Base 2.3.0~svn544
 _ZN7blocxx810PosixRegEx4grepERKNS_5ArrayINS_6StringEEEi@Base 2.3.0~svn544
 _ZN7blocxx810PosixRegEx5splitERKNS_6StringEbi@Base 2.3.0~svn544
 _ZN7blocxx810PosixRegEx7captureERKNS_6StringEmmi@Base 2.3.0~svn544
 _ZN7blocxx810PosixRegEx7compileERKNS_6StringEi@Base 2.3.0~svn544
 _ZN7blocxx810PosixRegEx7executeERNS_5ArrayI10regmatch_tEERKNS_6StringEmmi@Base 2.3.0~svn544
 _ZN7blocxx810PosixRegEx7replaceERKNS_6StringES3_bi@Base 2.3.0~svn544
 _ZN7blocxx810PosixRegEx9errorCodeEv@Base 2.3.0~svn544
 _ZN7blocxx810PosixRegExC1ERKNS_6StringEi@Base 2.3.0~svn544
 _ZN7blocxx810PosixRegExC1ERKS0_@Base 2.3.0~svn544
 _ZN7blocxx810PosixRegExC1Ev@Base 2.3.0~svn544
 _ZN7blocxx810PosixRegExC2ERKNS_6StringEi@Base 2.3.0~svn544
 _ZN7blocxx810PosixRegExC2ERKS0_@Base 2.3.0~svn544
 _ZN7blocxx810PosixRegExC2Ev@Base 2.3.0~svn544
 _ZN7blocxx810PosixRegExD1Ev@Base 2.3.0~svn544
 _ZN7blocxx810PosixRegExD2Ev@Base 2.3.0~svn544
 _ZN7blocxx810PosixRegExaSERKS0_@Base 2.3.0~svn544
 _ZN7blocxx810SSLCtxBaseC1ERKNS_7SSLOptsE@Base 2.3.0~svn544
 _ZN7blocxx810SSLCtxBaseC2ERKNS_7SSLOptsE@Base 2.3.0~svn544
 _ZN7blocxx810SSLCtxBaseD0Ev@Base 2.3.0~svn544
 _ZN7blocxx810SSLCtxBaseD1Ev@Base 2.3.0~svn544
 _ZN7blocxx810SSLCtxBaseD2Ev@Base 2.3.0~svn544
 _ZN7blocxx810SocketImpl7readAuxEPvi@Base 2.3.0~svn544
 _ZN7blocxx810SocketImpl8writeAuxEPKvi@Base 2.3.0~svn544
 _ZN7blocxx810SocketImplC1ERKNS_13SocketAddressE@Base 2.3.0~svn544
 _ZN7blocxx810SocketImplC1EiNS_13SocketAddress11AddressTypeE@Base 2.3.0~svn544
 _ZN7blocxx810SocketImplC1Ev@Base 2.3.0~svn544
 _ZN7blocxx810SocketImplC2ERKNS_13SocketAddressE@Base 2.3.0~svn544
 _ZN7blocxx810SocketImplC2EiNS_13SocketAddress11AddressTypeE@Base 2.3.0~svn544
 _ZN7blocxx810SocketImplC2Ev@Base 2.3.0~svn544
 _ZN7blocxx810SocketImplD0Ev@Base 2.3.0~svn544
 _ZN7blocxx810SocketImplD1Ev@Base 2.3.0~svn544
 _ZN7blocxx810SocketImplD2Ev@Base 2.3.0~svn544
 _ZN7blocxx810StackTrace13getStackTraceENS0_17EDoStackTraceFlagE@Base 2.3.0~svn544
 _ZN7blocxx810StackTrace15printStackTraceENS0_17EDoStackTraceFlagE@Base 2.3.0~svn544
 _ZN7blocxx810ThreadImpl10exitThreadERmi@Base 2.3.0~svn544
 _ZN7blocxx810ThreadImpl10joinThreadERmRi@Base 2.3.0~svn544
 _ZN7blocxx810ThreadImpl10testCancelEv@Base 2.3.0~svn544
 _ZN7blocxx810ThreadImpl11sameThreadsERVKmS2_@Base 2.3.0~svn544
 _ZN7blocxx810ThreadImpl12createThreadERmPFiPvES2_j@Base 2.3.0~svn544
 _ZN7blocxx810ThreadImpl13currentThreadEv@Base 2.3.0~svn544
 _ZN7blocxx810ThreadImpl13destroyThreadERm@Base 2.3.0~svn544
 _ZN7blocxx810ThreadImpl15saveThreadInTLSEPv@Base 2.3.0~svn544
 _ZN7blocxx810ThreadImpl17setThreadDetachedERm@Base 2.3.0~svn544
 _ZN7blocxx810ThreadImpl17thread_t_ToUInt64Em@Base 2.3.0~svn544
 _ZN7blocxx810ThreadImpl18sendSignalToThreadEmi@Base 2.3.0~svn544
 _ZN7blocxx810ThreadImpl5sleepERKNS_7TimeoutE@Base 2.3.0~svn544
 _ZN7blocxx810ThreadImpl5sleepEj@Base 2.3.0~svn544
 _ZN7blocxx810ThreadImpl5yieldEv@Base 2.3.0~svn544
 _ZN7blocxx810ThreadImpl6cancelEm@Base 2.3.0~svn544
 _ZN7blocxx810ThreadPool10tryAddWorkERKNS_18IntrusiveReferenceINS_8RunnableEEE@Base 2.3.0~svn544
 _ZN7blocxx810ThreadPool10tryAddWorkERKNS_18IntrusiveReferenceINS_8RunnableEEERKNS_7TimeoutE@Base 2.3.0~svn544
 _ZN7blocxx810ThreadPool17waitForEmptyQueueEv@Base 2.3.0~svn544
 _ZN7blocxx810ThreadPool7addWorkERKNS_18IntrusiveReferenceINS_8RunnableEEE@Base 2.3.0~svn544
 _ZN7blocxx810ThreadPool8shutdownENS0_18EShutdownQueueFlagERKNS_7TimeoutE@Base 2.3.0~svn544
 _ZN7blocxx810ThreadPool8shutdownENS0_18EShutdownQueueFlagERKNS_7TimeoutES4_@Base 2.3.0~svn544
 _ZN7blocxx810ThreadPoolC1ENS0_8PoolTypeEjjRKNS_6LoggerERKNS_6StringE@Base 2.3.0~svn544
 _ZN7blocxx810ThreadPoolC1ERKS0_@Base 2.3.0~svn544
 _ZN7blocxx810ThreadPoolC2ENS0_8PoolTypeEjjRKNS_6LoggerERKNS_6StringE@Base 2.3.0~svn544
 _ZN7blocxx810ThreadPoolC2ERKS0_@Base 2.3.0~svn544
 _ZN7blocxx810ThreadPoolD0Ev@Base 2.3.0~svn544
 _ZN7blocxx810ThreadPoolD1Ev@Base 2.3.0~svn544
 _ZN7blocxx810ThreadPoolD2Ev@Base 2.3.0~svn544
 _ZN7blocxx810ThreadPoolaSERKS0_@Base 2.3.0~svn544
 _ZN7blocxx810padOnRightERKNS_6StringEmc@Base 2.3.0~svn544
 _ZN7blocxx811IFileStream4openENS_12AutoResourceINS_20AutoDescriptorPolicyEEE@Base 2.3.0~svn544
 _ZN7blocxx811IFileStream4openEP8_IO_FILE@Base 2.3.0~svn544
 _ZN7blocxx811IFileStream4openEPKcSt13_Ios_Openmodej@Base 2.3.0~svn544
 _ZN7blocxx811IFileStream5closeEv@Base 2.3.0~svn544
 _ZN7blocxx811IFileStreamC1Ev@Base 2.3.0~svn544
 _ZN7blocxx811IFileStreamC2Ev@Base 2.3.0~svn544
 _ZN7blocxx811IFileStreamD0Ev@Base 2.3.0~svn544
 _ZN7blocxx811IFileStreamD1Ev@Base 2.3.0~svn544
 _ZN7blocxx811IFileStreamD2Ev@Base 2.3.0~svn544
 _ZN7blocxx811IOExceptionC1EPKciS2_iPKNS_9ExceptionEi@Base 2.3.0~svn544
 _ZN7blocxx811IOExceptionC1ERKS0_@Base 2.3.0~svn544
 _ZN7blocxx811IOExceptionC2EPKciS2_iPKNS_9ExceptionEi@Base 2.3.0~svn544
 _ZN7blocxx811IOExceptionC2ERKS0_@Base 2.3.0~svn544
 _ZN7blocxx811IOExceptionD0Ev@Base 2.3.0~svn544
 _ZN7blocxx811IOExceptionD1Ev@Base 2.3.0~svn544
 _ZN7blocxx811IOExceptionD2Ev@Base 2.3.0~svn544
 _ZN7blocxx811LogAppender11TYPE_MPFILEE@Base 2.3.0~svn544
 _ZN7blocxx811LogAppender11TYPE_STDERRE@Base 2.3.0~svn544
 _ZN7blocxx811LogAppender11TYPE_SYSLOGE@Base 2.3.0~svn544
 _ZN7blocxx811LogAppender14ALL_CATEGORIESE@Base 2.3.0~svn544
 _ZN7blocxx811LogAppender14ALL_COMPONENTSE@Base 2.3.0~svn544
 _ZN7blocxx811LogAppender17createLogAppenderERKNS_6StringERKNS_5ArrayIS1_EES7_S3_S3_RKNS_15SortedVectorMapIS1_S1_NS_26SortedVectorMapDataCompareIS1_S1_St4lessIS1_EEEEE@Base 2.3.0~svn544
 _ZN7blocxx811LogAppender20getThreadLogAppenderEv@Base 2.3.0~svn544
 _ZN7blocxx811LogAppender20setThreadLogAppenderERKNS_18IntrusiveReferenceIS0_EE@Base 2.3.0~svn544
 _ZN7blocxx811LogAppender21getCategoriesForLevelENS_9ELogLevelE@Base 2.3.0~svn544
 _ZN7blocxx811LogAppender21getCurrentLogAppenderEv@Base 2.3.0~svn544
 _ZN7blocxx811LogAppender21getDefaultLogAppenderEv@Base 2.3.0~svn544
 _ZN7blocxx811LogAppender21setDefaultLogAppenderERKNS_18IntrusiveReferenceIS0_EE@Base 2.3.0~svn544
 _ZN7blocxx811LogAppender23STR_TTCC_MESSAGE_FORMATE@Base 2.3.0~svn544
 _ZN7blocxx811LogAppender9TYPE_FILEE@Base 2.3.0~svn544
 _ZN7blocxx811LogAppender9TYPE_NULLE@Base 2.3.0~svn544
 _ZN7blocxx811LogAppenderC1ERKNS_5ArrayINS_6StringEEES5_RKS2_@Base 2.3.0~svn544
 _ZN7blocxx811LogAppenderC2ERKNS_5ArrayINS_6StringEEES5_RKS2_@Base 2.3.0~svn544
 _ZN7blocxx811LogAppenderD0Ev@Base 2.3.0~svn544
 _ZN7blocxx811LogAppenderD1Ev@Base 2.3.0~svn544
 _ZN7blocxx811LogAppenderD2Ev@Base 2.3.0~svn544
 _ZN7blocxx811MTQueueBase13enterPopFrontERNS_21NonRecursiveMutexLockERKNS_7TimeoutE@Base 2.3.0~svn544
 _ZN7blocxx811MTQueueBase13enterPushBackERNS_21NonRecursiveMutexLockE@Base 2.3.0~svn544
 _ZN7blocxx811MTQueueBase15setMaxQueueSizeEj@Base 2.3.0~svn544
 _ZN7blocxx811MTQueueBase8shutdownEv@Base 2.3.0~svn544
 _ZN7blocxx811MTQueueBaseC1Ej@Base 2.3.0~svn544
 _ZN7blocxx811MTQueueBaseC1Ev@Base 2.3.0~svn544
 _ZN7blocxx811MTQueueBaseC2Ej@Base 2.3.0~svn544
 _ZN7blocxx811MTQueueBaseC2Ev@Base 2.3.0~svn544
 _ZN7blocxx811MTQueueBaseD0Ev@Base 2.3.0~svn544
 _ZN7blocxx811MTQueueBaseD1Ev@Base 2.3.0~svn544
 _ZN7blocxx811MTQueueBaseD2Ev@Base 2.3.0~svn544
 _ZN7blocxx811ProcessImplC1Ev@Base 2.3.0~svn544
 _ZN7blocxx811ProcessImplC2Ev@Base 2.3.0~svn544
 _ZN7blocxx811ProcessImplD0Ev@Base 2.3.0~svn544
 _ZN7blocxx811ProcessImplD1Ev@Base 2.3.0~svn544
 _ZN7blocxx811ProcessImplD2Ev@Base 2.3.0~svn544
 _ZN7blocxx811SafeCString11fget_stringEP8_IO_FILEm@Base 2.3.0~svn544
 _ZN7blocxx811SafeCString11fgets_checkEPcmP8_IO_FILE@Base 2.3.0~svn544
 _ZN7blocxx811SafeCString11fgets_truncEPcmP8_IO_FILE@Base 2.3.0~svn544
 _ZN7blocxx811SafeCString11fgets_truncILm8192EEEPcRAT__cP8_IO_FILE@Base 2.3.0~svn544
 _ZN7blocxx811SafeCString12strcat_checkEPcmPKc@Base 2.3.0~svn544
 _ZN7blocxx811SafeCString12strcat_checkEPcmPKcm@Base 2.3.0~svn544
 _ZN7blocxx811SafeCString12strcat_truncEPcmPKc@Base 2.3.0~svn544
 _ZN7blocxx811SafeCString12strcat_truncEPcmPKcm@Base 2.3.0~svn544
 _ZN7blocxx811SafeCString12strcpy_checkEPcmPKc@Base 2.3.0~svn544
 _ZN7blocxx811SafeCString12strcpy_checkEPcmPKcm@Base 2.3.0~svn544
 _ZN7blocxx811SafeCString12strcpy_truncEPcmPKc@Base 2.3.0~svn544
 _ZN7blocxx811SafeCString12strcpy_truncEPcmPKcm@Base 2.3.0~svn544
 _ZN7blocxx811SafeCString12strcpy_truncILm65EEEPcRAT__cPKc@Base 2.3.0~svn544
 _ZN7blocxx811SafeCString15str_dup_nothrowEPKc@Base 2.3.0~svn544
 _ZN7blocxx811SafeCString17OverflowExceptionC1EPKciS3_iPKNS_9ExceptionEi@Base 2.3.0~svn544
 _ZN7blocxx811SafeCString17OverflowExceptionC1ERKS1_@Base 2.3.0~svn544
 _ZN7blocxx811SafeCString17OverflowExceptionC2EPKciS3_iPKNS_9ExceptionEi@Base 2.3.0~svn544
 _ZN7blocxx811SafeCString17OverflowExceptionC2ERKS1_@Base 2.3.0~svn544
 _ZN7blocxx811SafeCString17OverflowExceptionD0Ev@Base 2.3.0~svn544
 _ZN7blocxx811SafeCString17OverflowExceptionD1Ev@Base 2.3.0~svn544
 _ZN7blocxx811SafeCString17OverflowExceptionD2Ev@Base 2.3.0~svn544
 _ZN7blocxx811SafeCString4Impl12nchars_checkEim@Base 2.3.0~svn544
 _ZN7blocxx811SafeCString7str_dupEPKc@Base 2.3.0~svn544
 _ZN7blocxx811ScopeLoggerC1ERKNS_6StringES3_RKNS_6LoggerE@Base 2.3.0~svn544
 _ZN7blocxx811ScopeLoggerC1ERKNS_6StringES3_RKNS_9ReferenceINS_13DelayedFormatEEERKNS_6LoggerE@Base 2.3.0~svn544
 _ZN7blocxx811ScopeLoggerC1ERKNS_6StringES3_RKNS_9ReferenceINS_13DelayedFormatEEES3_RKNS_18IntrusiveReferenceINS_11LogAppenderEEE@Base 2.3.0~svn544
 _ZN7blocxx811ScopeLoggerC1ERKNS_6StringES3_S3_RKNS_18IntrusiveReferenceINS_11LogAppenderEEE@Base 2.3.0~svn544
 _ZN7blocxx811ScopeLoggerC2ERKNS_6StringES3_RKNS_6LoggerE@Base 2.3.0~svn544
 _ZN7blocxx811ScopeLoggerC2ERKNS_6StringES3_RKNS_9ReferenceINS_13DelayedFormatEEERKNS_6LoggerE@Base 2.3.0~svn544
 _ZN7blocxx811ScopeLoggerC2ERKNS_6StringES3_RKNS_9ReferenceINS_13DelayedFormatEEES3_RKNS_18IntrusiveReferenceINS_11LogAppenderEEE@Base 2.3.0~svn544
 _ZN7blocxx811ScopeLoggerC2ERKNS_6StringES3_S3_RKNS_18IntrusiveReferenceINS_11LogAppenderEEE@Base 2.3.0~svn544
 _ZN7blocxx811ScopeLoggerD0Ev@Base 2.3.0~svn544
 _ZN7blocxx811ScopeLoggerD1Ev@Base 2.3.0~svn544
 _ZN7blocxx811ScopeLoggerD2Ev@Base 2.3.0~svn544
 _ZN7blocxx811SignalScopeC1EiPFviE@Base 2.3.0~svn544
 _ZN7blocxx811SignalScopeC2EiPFviE@Base 2.3.0~svn544
 _ZN7blocxx811SignalScopeD1Ev@Base 2.3.0~svn544
 _ZN7blocxx811SignalScopeD2Ev@Base 2.3.0~svn544
 _ZN7blocxx811SignalUtils10signalNameEi@Base 2.3.0~svn544
 _ZN7blocxx811SocketUtils16inetAddrToStringEm@Base 2.3.0~svn544
 _ZN7blocxx811SocketUtils25getFullyQualifiedHostNameEv@Base 2.3.0~svn544
 _ZN7blocxx811SocketUtils9waitForIOEiRKNS_7TimeoutENS_11SocketFlags18EWaitDirectionFlagE@Base 2.3.0~svn544
 _ZN7blocxx811UnnamedPipe10readStringERNS_6StringE@Base 2.3.0~svn544
 _ZN7blocxx811UnnamedPipe11createStdinEv@Base 2.3.0~svn544
 _ZN7blocxx811UnnamedPipe11setTimeoutsERKNS_7TimeoutE@Base 2.3.0~svn544
 _ZN7blocxx811UnnamedPipe11writeStringERKNS_6StringE@Base 2.3.0~svn544
 _ZN7blocxx811UnnamedPipe12createStderrEv@Base 2.3.0~svn544
 _ZN7blocxx811UnnamedPipe12createStdoutEv@Base 2.3.0~svn544
 _ZN7blocxx811UnnamedPipe14getReadTimeoutEv@Base 2.3.0~svn544
 _ZN7blocxx811UnnamedPipe14setReadTimeoutERKNS_7TimeoutE@Base 2.3.0~svn544
 _ZN7blocxx811UnnamedPipe15getWriteTimeoutEv@Base 2.3.0~svn544
 _ZN7blocxx811UnnamedPipe17createStdinStdoutEv@Base 2.3.0~svn544
 _ZN7blocxx811UnnamedPipe17createUnnamedPipeENS0_5EOpenE@Base 2.3.0~svn544
 _ZN7blocxx811UnnamedPipe20createConnectedPipesERNS_18IntrusiveReferenceIS0_EES3_@Base 2.3.0~svn544
 _ZN7blocxx811UnnamedPipe31createUnnamedPipeFromDescriptorENS_12AutoResourceINS_20AutoDescriptorPolicyEEE@Base 2.3.0~svn544
 _ZN7blocxx811UnnamedPipe31createUnnamedPipeFromDescriptorENS_12AutoResourceINS_20AutoDescriptorPolicyEEES3_@Base 2.3.0~svn544
 _ZN7blocxx811UnnamedPipe7readAllEv@Base 2.3.0~svn544
 _ZN7blocxx811UnnamedPipe7readIntEPi@Base 2.3.0~svn544
 _ZN7blocxx811UnnamedPipe8writeIntEi@Base 2.3.0~svn544
 _ZN7blocxx811UnnamedPipeC1Ev@Base 2.3.0~svn544
 _ZN7blocxx811UnnamedPipeC2Ev@Base 2.3.0~svn544
 _ZN7blocxx811UnnamedPipeD0Ev@Base 2.3.0~svn544
 _ZN7blocxx811UnnamedPipeD1Ev@Base 2.3.0~svn544
 _ZN7blocxx811UnnamedPipeD2Ev@Base 2.3.0~svn544
 _ZN7blocxx812AutoResourceINS_20AutoDescriptorPolicyEE7releaseEv@Base 2.3.0~svn544
 _ZN7blocxx812AutoResourceINS_20AutoDescriptorPolicyEEC1ENS_15AutoResourceRefIS1_EE@Base 2.3.0~svn544
 _ZN7blocxx812AutoResourceINS_20AutoDescriptorPolicyEEC1ERS2_@Base 2.3.0~svn544
 _ZN7blocxx812AutoResourceINS_20AutoDescriptorPolicyEEC1Ei@Base 2.3.0~svn544
 _ZN7blocxx812AutoResourceINS_20AutoDescriptorPolicyEEC1Ev@Base 2.3.0~svn544
 _ZN7blocxx812AutoResourceINS_20AutoDescriptorPolicyEEC2ENS_15AutoResourceRefIS1_EE@Base 2.3.0~svn544
 _ZN7blocxx812AutoResourceINS_20AutoDescriptorPolicyEEC2ERS2_@Base 2.3.0~svn544
 _ZN7blocxx812AutoResourceINS_20AutoDescriptorPolicyEEC2Ei@Base 2.3.0~svn544
 _ZN7blocxx812AutoResourceINS_20AutoDescriptorPolicyEEC2Ev@Base 2.3.0~svn544
 _ZN7blocxx812AutoResourceINS_20AutoDescriptorPolicyEED1Ev@Base 2.3.0~svn544
 _ZN7blocxx812AutoResourceINS_20AutoDescriptorPolicyEED2Ev@Base 2.3.0~svn544
 _ZN7blocxx812AutoResourceINS_20AutoDescriptorPolicyEEaSENS_15AutoResourceRefIS1_EE@Base 2.3.0~svn544
 _ZN7blocxx812AutoResourceINS_20AutoDescriptorPolicyEEcvNS_15AutoResourceRefIS1_EEEv@Base 2.3.0~svn544
 _ZN7blocxx812COWReferenceINSt7__debug3mapINS_6StringENS_13SSLTrustStore8UserInfoESt4lessIS3_ESaISt4pairIKS3_S5_EEEEE12getWriteLockEv@Base 2.3.0~svn544
 _ZN7blocxx812COWReferenceINSt7__debug3mapINS_6StringENS_13SSLTrustStore8UserInfoESt4lessIS3_ESaISt4pairIKS3_S5_EEEEE6decRefEv@Base 2.3.0~svn544
 _ZN7blocxx812COWReferenceINSt7__debug3mapINS_6StringENS_13SSLTrustStore8UserInfoESt4lessIS3_ESaISt4pairIKS3_S5_EEEEEC1EPSC_@Base 2.3.0~svn544
 _ZN7blocxx812COWReferenceINSt7__debug3mapINS_6StringENS_13SSLTrustStore8UserInfoESt4lessIS3_ESaISt4pairIKS3_S5_EEEEEC2EPSC_@Base 2.3.0~svn544
 _ZN7blocxx812COWReferenceINSt7__debug3mapINS_6StringENS_13SSLTrustStore8UserInfoESt4lessIS3_ESaISt4pairIKS3_S5_EEEEED1Ev@Base 2.3.0~svn544
 _ZN7blocxx812COWReferenceINSt7__debug3mapINS_6StringENS_13SSLTrustStore8UserInfoESt4lessIS3_ESaISt4pairIKS3_S5_EEEEED2Ev@Base 2.3.0~svn544
 _ZN7blocxx812COWReferenceINSt7__debug3mapINS_6StringENS_13SSLTrustStore8UserInfoESt4lessIS3_ESaISt4pairIKS3_S5_EEEEEptEv@Base 2.3.0~svn544
 _ZN7blocxx812COWReferenceINSt7__debug3mapINS_6StringES3_St4lessIS3_ESaISt4pairIKS3_S3_EEEEE12getWriteLockEv@Base 2.3.0~svn544
 _ZN7blocxx812COWReferenceINSt7__debug3mapINS_6StringES3_St4lessIS3_ESaISt4pairIKS3_S3_EEEEE6decRefEv@Base 2.3.0~svn544
 _ZN7blocxx812COWReferenceINSt7__debug3mapINS_6StringES3_St4lessIS3_ESaISt4pairIKS3_S3_EEEEEC1EPSA_@Base 2.3.0~svn544
 _ZN7blocxx812COWReferenceINSt7__debug3mapINS_6StringES3_St4lessIS3_ESaISt4pairIKS3_S3_EEEEEC2EPSA_@Base 2.3.0~svn544
 _ZN7blocxx812COWReferenceINSt7__debug3mapINS_6StringES3_St4lessIS3_ESaISt4pairIKS3_S3_EEEEED1Ev@Base 2.3.0~svn544
 _ZN7blocxx812COWReferenceINSt7__debug3mapINS_6StringES3_St4lessIS3_ESaISt4pairIKS3_S3_EEEEED2Ev@Base 2.3.0~svn544
 _ZN7blocxx812COWReferenceINSt7__debug3mapINS_6StringES3_St4lessIS3_ESaISt4pairIKS3_S3_EEEEEptEv@Base 2.3.0~svn544
 _ZN7blocxx812COWReferenceINSt7__debug6vectorI10regmatch_tSaIS3_EEEE12getWriteLockEv@Base 2.3.0~svn544
 _ZN7blocxx812COWReferenceINSt7__debug6vectorI10regmatch_tSaIS3_EEEE6decRefEv@Base 2.3.0~svn544
 _ZN7blocxx812COWReferenceINSt7__debug6vectorI10regmatch_tSaIS3_EEEEC1EPS5_@Base 2.3.0~svn544
 _ZN7blocxx812COWReferenceINSt7__debug6vectorI10regmatch_tSaIS3_EEEEC2EPS5_@Base 2.3.0~svn544
 _ZN7blocxx812COWReferenceINSt7__debug6vectorI10regmatch_tSaIS3_EEEED1Ev@Base 2.3.0~svn544
 _ZN7blocxx812COWReferenceINSt7__debug6vectorI10regmatch_tSaIS3_EEEED2Ev@Base 2.3.0~svn544
 _ZN7blocxx812COWReferenceINSt7__debug6vectorI10regmatch_tSaIS3_EEEEptEv@Base 2.3.0~svn544
 _ZN7blocxx812COWReferenceINSt7__debug6vectorINS_18IntrusiveReferenceINS_11LogAppenderEEESaIS5_EEEE12getWriteLockEv@Base 2.3.0~svn544
 _ZN7blocxx812COWReferenceINSt7__debug6vectorINS_18IntrusiveReferenceINS_11LogAppenderEEESaIS5_EEEE6decRefEv@Base 2.3.0~svn544
 _ZN7blocxx812COWReferenceINSt7__debug6vectorINS_18IntrusiveReferenceINS_11LogAppenderEEESaIS5_EEEEC1EPS7_@Base 2.3.0~svn544
 _ZN7blocxx812COWReferenceINSt7__debug6vectorINS_18IntrusiveReferenceINS_11LogAppenderEEESaIS5_EEEEC1ERKS8_@Base 2.3.0~svn544
 _ZN7blocxx812COWReferenceINSt7__debug6vectorINS_18IntrusiveReferenceINS_11LogAppenderEEESaIS5_EEEEC2EPS7_@Base 2.3.0~svn544
 _ZN7blocxx812COWReferenceINSt7__debug6vectorINS_18IntrusiveReferenceINS_11LogAppenderEEESaIS5_EEEEC2ERKS8_@Base 2.3.0~svn544
 _ZN7blocxx812COWReferenceINSt7__debug6vectorINS_18IntrusiveReferenceINS_11LogAppenderEEESaIS5_EEEED1Ev@Base 2.3.0~svn544
 _ZN7blocxx812COWReferenceINSt7__debug6vectorINS_18IntrusiveReferenceINS_11LogAppenderEEESaIS5_EEEED2Ev@Base 2.3.0~svn544
 _ZN7blocxx812COWReferenceINSt7__debug6vectorINS_18IntrusiveReferenceINS_11LogAppenderEEESaIS5_EEEEptEv@Base 2.3.0~svn544
 _ZN7blocxx812COWReferenceINSt7__debug6vectorINS_18IntrusiveReferenceINS_16ParserOptionImplEEESaIS5_EEEE12getWriteLockEv@Base 2.3.0~svn544
 _ZN7blocxx812COWReferenceINSt7__debug6vectorINS_18IntrusiveReferenceINS_16ParserOptionImplEEESaIS5_EEEE4swapERS8_@Base 2.3.0~svn544
 _ZN7blocxx812COWReferenceINSt7__debug6vectorINS_18IntrusiveReferenceINS_16ParserOptionImplEEESaIS5_EEEE6decRefEv@Base 2.3.0~svn544
 _ZN7blocxx812COWReferenceINSt7__debug6vectorINS_18IntrusiveReferenceINS_16ParserOptionImplEEESaIS5_EEEEC1EPS7_@Base 2.3.0~svn544
 _ZN7blocxx812COWReferenceINSt7__debug6vectorINS_18IntrusiveReferenceINS_16ParserOptionImplEEESaIS5_EEEEC1ERKS8_@Base 2.3.0~svn544
 _ZN7blocxx812COWReferenceINSt7__debug6vectorINS_18IntrusiveReferenceINS_16ParserOptionImplEEESaIS5_EEEEC2EPS7_@Base 2.3.0~svn544
 _ZN7blocxx812COWReferenceINSt7__debug6vectorINS_18IntrusiveReferenceINS_16ParserOptionImplEEESaIS5_EEEEC2ERKS8_@Base 2.3.0~svn544
 _ZN7blocxx812COWReferenceINSt7__debug6vectorINS_18IntrusiveReferenceINS_16ParserOptionImplEEESaIS5_EEEED1Ev@Base 2.3.0~svn544
 _ZN7blocxx812COWReferenceINSt7__debug6vectorINS_18IntrusiveReferenceINS_16ParserOptionImplEEESaIS5_EEEED2Ev@Base 2.3.0~svn544
 _ZN7blocxx812COWReferenceINSt7__debug6vectorINS_18IntrusiveReferenceINS_16ParserOptionImplEEESaIS5_EEEEaSERKS8_@Base 2.3.0~svn544
 _ZN7blocxx812COWReferenceINSt7__debug6vectorINS_18IntrusiveReferenceINS_16ParserOptionImplEEESaIS5_EEEEptEv@Base 2.3.0~svn544
 _ZN7blocxx812COWReferenceINSt7__debug6vectorINS_18IntrusiveReferenceINS_26LogMessagePatternFormatter9ConverterEEESaIS6_EEEE12getWriteLockEv@Base 2.3.0~svn544
 _ZN7blocxx812COWReferenceINSt7__debug6vectorINS_18IntrusiveReferenceINS_26LogMessagePatternFormatter9ConverterEEESaIS6_EEEE6decRefEv@Base 2.3.0~svn544
 _ZN7blocxx812COWReferenceINSt7__debug6vectorINS_18IntrusiveReferenceINS_26LogMessagePatternFormatter9ConverterEEESaIS6_EEEEC1EPS8_@Base 2.3.0~svn544
 _ZN7blocxx812COWReferenceINSt7__debug6vectorINS_18IntrusiveReferenceINS_26LogMessagePatternFormatter9ConverterEEESaIS6_EEEEC2EPS8_@Base 2.3.0~svn544
 _ZN7blocxx812COWReferenceINSt7__debug6vectorINS_18IntrusiveReferenceINS_26LogMessagePatternFormatter9ConverterEEESaIS6_EEEED1Ev@Base 2.3.0~svn544
 _ZN7blocxx812COWReferenceINSt7__debug6vectorINS_18IntrusiveReferenceINS_26LogMessagePatternFormatter9ConverterEEESaIS6_EEEED2Ev@Base 2.3.0~svn544
 _ZN7blocxx812COWReferenceINSt7__debug6vectorINS_18IntrusiveReferenceINS_26LogMessagePatternFormatter9ConverterEEESaIS6_EEEEptEv@Base 2.3.0~svn544
 _ZN7blocxx812COWReferenceINSt7__debug6vectorINS_18IntrusiveReferenceINS_6ThreadEEESaIS5_EEEE12getWriteLockEv@Base 2.3.0~svn544
 _ZN7blocxx812COWReferenceINSt7__debug6vectorINS_18IntrusiveReferenceINS_6ThreadEEESaIS5_EEEE6decRefEv@Base 2.3.0~svn544
 _ZN7blocxx812COWReferenceINSt7__debug6vectorINS_18IntrusiveReferenceINS_6ThreadEEESaIS5_EEEEC1EPS7_@Base 2.3.0~svn544
 _ZN7blocxx812COWReferenceINSt7__debug6vectorINS_18IntrusiveReferenceINS_6ThreadEEESaIS5_EEEEC2EPS7_@Base 2.3.0~svn544
 _ZN7blocxx812COWReferenceINSt7__debug6vectorINS_18IntrusiveReferenceINS_6ThreadEEESaIS5_EEEED1Ev@Base 2.3.0~svn544
 _ZN7blocxx812COWReferenceINSt7__debug6vectorINS_18IntrusiveReferenceINS_6ThreadEEESaIS5_EEEED2Ev@Base 2.3.0~svn544
 _ZN7blocxx812COWReferenceINSt7__debug6vectorINS_18IntrusiveReferenceINS_6ThreadEEESaIS5_EEEEptEv@Base 2.3.0~svn544
 _ZN7blocxx812COWReferenceINSt7__debug6vectorINS_18IntrusiveReferenceINS_7ProcessEEESaIS5_EEEE12getWriteLockEv@Base 2.3.0~svn544
 _ZN7blocxx812COWReferenceINSt7__debug6vectorINS_18IntrusiveReferenceINS_7ProcessEEESaIS5_EEEE6decRefEv@Base 2.3.0~svn544
 _ZN7blocxx812COWReferenceINSt7__debug6vectorINS_18IntrusiveReferenceINS_7ProcessEEESaIS5_EEEEC1EPS7_@Base 2.3.0~svn544
 _ZN7blocxx812COWReferenceINSt7__debug6vectorINS_18IntrusiveReferenceINS_7ProcessEEESaIS5_EEEEC2EPS7_@Base 2.3.0~svn544
 _ZN7blocxx812COWReferenceINSt7__debug6vectorINS_18IntrusiveReferenceINS_7ProcessEEESaIS5_EEEED1Ev@Base 2.3.0~svn544
 _ZN7blocxx812COWReferenceINSt7__debug6vectorINS_18IntrusiveReferenceINS_7ProcessEEESaIS5_EEEED2Ev@Base 2.3.0~svn544
 _ZN7blocxx812COWReferenceINSt7__debug6vectorINS_18IntrusiveReferenceINS_7ProcessEEESaIS5_EEEEptEv@Base 2.3.0~svn544
 _ZN7blocxx812COWReferenceINSt7__debug6vectorINS_5ArrayIcEESaIS4_EEEE12getWriteLockEv@Base 2.3.0~svn544
 _ZN7blocxx812COWReferenceINSt7__debug6vectorINS_5ArrayIcEESaIS4_EEEE6decRefEv@Base 2.3.0~svn544
 _ZN7blocxx812COWReferenceINSt7__debug6vectorINS_5ArrayIcEESaIS4_EEEEC1EPS6_@Base 2.3.0~svn544
 _ZN7blocxx812COWReferenceINSt7__debug6vectorINS_5ArrayIcEESaIS4_EEEEC2EPS6_@Base 2.3.0~svn544
 _ZN7blocxx812COWReferenceINSt7__debug6vectorINS_5ArrayIcEESaIS4_EEEED1Ev@Base 2.3.0~svn544
 _ZN7blocxx812COWReferenceINSt7__debug6vectorINS_5ArrayIcEESaIS4_EEEED2Ev@Base 2.3.0~svn544
 _ZN7blocxx812COWReferenceINSt7__debug6vectorINS_5ArrayIcEESaIS4_EEEEptEv@Base 2.3.0~svn544
 _ZN7blocxx812COWReferenceINSt7__debug6vectorINS_6Select12SelectObjectESaIS4_EEEE12getWriteLockEv@Base 2.3.0~svn544
 _ZN7blocxx812COWReferenceINSt7__debug6vectorINS_6Select12SelectObjectESaIS4_EEEE6decRefEv@Base 2.3.0~svn544
 _ZN7blocxx812COWReferenceINSt7__debug6vectorINS_6Select12SelectObjectESaIS4_EEEEC1EPS6_@Base 2.3.0~svn544
 _ZN7blocxx812COWReferenceINSt7__debug6vectorINS_6Select12SelectObjectESaIS4_EEEEC2EPS6_@Base 2.3.0~svn544
 _ZN7blocxx812COWReferenceINSt7__debug6vectorINS_6Select12SelectObjectESaIS4_EEEED1Ev@Base 2.3.0~svn544
 _ZN7blocxx812COWReferenceINSt7__debug6vectorINS_6Select12SelectObjectESaIS4_EEEED2Ev@Base 2.3.0~svn544
 _ZN7blocxx812COWReferenceINSt7__debug6vectorINS_6Select12SelectObjectESaIS4_EEEEptEv@Base 2.3.0~svn544
 _ZN7blocxx812COWReferenceINSt7__debug6vectorINS_6StringESaIS3_EEEE12getWriteLockEv@Base 2.3.0~svn544
 _ZN7blocxx812COWReferenceINSt7__debug6vectorINS_6StringESaIS3_EEEE4swapERS6_@Base 2.3.0~svn544
 _ZN7blocxx812COWReferenceINSt7__debug6vectorINS_6StringESaIS3_EEEE6decRefEv@Base 2.3.0~svn544
 _ZN7blocxx812COWReferenceINSt7__debug6vectorINS_6StringESaIS3_EEEEC1EPS5_@Base 2.3.0~svn544
 _ZN7blocxx812COWReferenceINSt7__debug6vectorINS_6StringESaIS3_EEEEC1ERKS6_@Base 2.3.0~svn544
 _ZN7blocxx812COWReferenceINSt7__debug6vectorINS_6StringESaIS3_EEEEC2EPS5_@Base 2.3.0~svn544
 _ZN7blocxx812COWReferenceINSt7__debug6vectorINS_6StringESaIS3_EEEEC2ERKS6_@Base 2.3.0~svn544
 _ZN7blocxx812COWReferenceINSt7__debug6vectorINS_6StringESaIS3_EEEED1Ev@Base 2.3.0~svn544
 _ZN7blocxx812COWReferenceINSt7__debug6vectorINS_6StringESaIS3_EEEED2Ev@Base 2.3.0~svn544
 _ZN7blocxx812COWReferenceINSt7__debug6vectorINS_6StringESaIS3_EEEEaSERKS6_@Base 2.3.0~svn544
 _ZN7blocxx812COWReferenceINSt7__debug6vectorINS_6StringESaIS3_EEEEptEv@Base 2.3.0~svn544
 _ZN7blocxx812COWReferenceINSt7__debug6vectorINS_9PerlRegEx7match_tESaIS4_EEEE12getWriteLockEv@Base 2.3.0~svn544
 _ZN7blocxx812COWReferenceINSt7__debug6vectorINS_9PerlRegEx7match_tESaIS4_EEEE6decRefEv@Base 2.3.0~svn544
 _ZN7blocxx812COWReferenceINSt7__debug6vectorINS_9PerlRegEx7match_tESaIS4_EEEEC1EPS6_@Base 2.3.0~svn544
 _ZN7blocxx812COWReferenceINSt7__debug6vectorINS_9PerlRegEx7match_tESaIS4_EEEEC2EPS6_@Base 2.3.0~svn544
 _ZN7blocxx812COWReferenceINSt7__debug6vectorINS_9PerlRegEx7match_tESaIS4_EEEED1Ev@Base 2.3.0~svn544
 _ZN7blocxx812COWReferenceINSt7__debug6vectorINS_9PerlRegEx7match_tESaIS4_EEEED2Ev@Base 2.3.0~svn544
 _ZN7blocxx812COWReferenceINSt7__debug6vectorINS_9PerlRegEx7match_tESaIS4_EEEEptEv@Base 2.3.0~svn544
 _ZN7blocxx812COWReferenceINSt7__debug6vectorINS_9ReferenceINS_22DelayedFormatInternals26DelayedFormatReferenceBaseEEESaIS6_EEEE6decRefEv@Base 2.3.0~svn544
 _ZN7blocxx812COWReferenceINSt7__debug6vectorINS_9ReferenceINS_22DelayedFormatInternals26DelayedFormatReferenceBaseEEESaIS6_EEEEC1EPS8_@Base 2.3.0~svn544
 _ZN7blocxx812COWReferenceINSt7__debug6vectorINS_9ReferenceINS_22DelayedFormatInternals26DelayedFormatReferenceBaseEEESaIS6_EEEEC2EPS8_@Base 2.3.0~svn544
 _ZN7blocxx812COWReferenceINSt7__debug6vectorINS_9ReferenceINS_22DelayedFormatInternals26DelayedFormatReferenceBaseEEESaIS6_EEEED1Ev@Base 2.3.0~svn544
 _ZN7blocxx812COWReferenceINSt7__debug6vectorINS_9ReferenceINS_22DelayedFormatInternals26DelayedFormatReferenceBaseEEESaIS6_EEEED2Ev@Base 2.3.0~svn544
 _ZN7blocxx812COWReferenceINSt7__debug6vectorIP7x509_stSaIS4_EEEE6decRefEv@Base 2.3.0~svn544
 _ZN7blocxx812COWReferenceINSt7__debug6vectorIP7x509_stSaIS4_EEEEC1EPS6_@Base 2.3.0~svn544
 _ZN7blocxx812COWReferenceINSt7__debug6vectorIP7x509_stSaIS4_EEEEC2EPS6_@Base 2.3.0~svn544
 _ZN7blocxx812COWReferenceINSt7__debug6vectorIP7x509_stSaIS4_EEEED1Ev@Base 2.3.0~svn544
 _ZN7blocxx812COWReferenceINSt7__debug6vectorIP7x509_stSaIS4_EEEED2Ev@Base 2.3.0~svn544
 _ZN7blocxx812COWReferenceINSt7__debug6vectorIPKcSaIS4_EEEE12getWriteLockEv@Base 2.3.0~svn544
 _ZN7blocxx812COWReferenceINSt7__debug6vectorIPKcSaIS4_EEEE6decRefEv@Base 2.3.0~svn544
 _ZN7blocxx812COWReferenceINSt7__debug6vectorIPKcSaIS4_EEEEC1EPS6_@Base 2.3.0~svn544
 _ZN7blocxx812COWReferenceINSt7__debug6vectorIPKcSaIS4_EEEEC2EPS6_@Base 2.3.0~svn544
 _ZN7blocxx812COWReferenceINSt7__debug6vectorIPKcSaIS4_EEEED1Ev@Base 2.3.0~svn544
 _ZN7blocxx812COWReferenceINSt7__debug6vectorIPKcSaIS4_EEEED2Ev@Base 2.3.0~svn544
 _ZN7blocxx812COWReferenceINSt7__debug6vectorIPKcSaIS4_EEEEptEv@Base 2.3.0~svn544
 _ZN7blocxx812COWReferenceINSt7__debug6vectorISt4pairINS_6StringENS_17EFileStatusReturnEESaIS6_EEEE12getWriteLockEv@Base 2.3.0~svn544
 _ZN7blocxx812COWReferenceINSt7__debug6vectorISt4pairINS_6StringENS_17EFileStatusReturnEESaIS6_EEEE6decRefEv@Base 2.3.0~svn544
 _ZN7blocxx812COWReferenceINSt7__debug6vectorISt4pairINS_6StringENS_17EFileStatusReturnEESaIS6_EEEEC1EPS8_@Base 2.3.0~svn544
 _ZN7blocxx812COWReferenceINSt7__debug6vectorISt4pairINS_6StringENS_17EFileStatusReturnEESaIS6_EEEEC2EPS8_@Base 2.3.0~svn544
 _ZN7blocxx812COWReferenceINSt7__debug6vectorISt4pairINS_6StringENS_17EFileStatusReturnEESaIS6_EEEED1Ev@Base 2.3.0~svn544
 _ZN7blocxx812COWReferenceINSt7__debug6vectorISt4pairINS_6StringENS_17EFileStatusReturnEESaIS6_EEEED2Ev@Base 2.3.0~svn544
 _ZN7blocxx812COWReferenceINSt7__debug6vectorISt4pairINS_6StringENS_17EFileStatusReturnEESaIS6_EEEEptEv@Base 2.3.0~svn544
 _ZN7blocxx812COWReferenceINSt7__debug6vectorISt4pairIiNS_12SelectEngine4DataEESaIS6_EEEE12getWriteLockEv@Base 2.3.0~svn544
 _ZN7blocxx812COWReferenceINSt7__debug6vectorISt4pairIiNS_12SelectEngine4DataEESaIS6_EEEEptEv@Base 2.3.0~svn544
 _ZN7blocxx812COWReferenceINSt7__debug6vectorISt4pairIiNS_5ArrayINS_6StringEEEESaIS7_EEEE12getWriteLockEv@Base 2.3.0~svn544
 _ZN7blocxx812COWReferenceINSt7__debug6vectorISt4pairIiNS_5ArrayINS_6StringEEEESaIS7_EEEE4swapERSA_@Base 2.3.0~svn544
 _ZN7blocxx812COWReferenceINSt7__debug6vectorISt4pairIiNS_5ArrayINS_6StringEEEESaIS7_EEEE6decRefEv@Base 2.3.0~svn544
 _ZN7blocxx812COWReferenceINSt7__debug6vectorISt4pairIiNS_5ArrayINS_6StringEEEESaIS7_EEEEC1EPS9_@Base 2.3.0~svn544
 _ZN7blocxx812COWReferenceINSt7__debug6vectorISt4pairIiNS_5ArrayINS_6StringEEEESaIS7_EEEEC1ERKSA_@Base 2.3.0~svn544
 _ZN7blocxx812COWReferenceINSt7__debug6vectorISt4pairIiNS_5ArrayINS_6StringEEEESaIS7_EEEEC2EPS9_@Base 2.3.0~svn544
 _ZN7blocxx812COWReferenceINSt7__debug6vectorISt4pairIiNS_5ArrayINS_6StringEEEESaIS7_EEEEC2ERKSA_@Base 2.3.0~svn544
 _ZN7blocxx812COWReferenceINSt7__debug6vectorISt4pairIiNS_5ArrayINS_6StringEEEESaIS7_EEEED1Ev@Base 2.3.0~svn544
 _ZN7blocxx812COWReferenceINSt7__debug6vectorISt4pairIiNS_5ArrayINS_6StringEEEESaIS7_EEEED2Ev@Base 2.3.0~svn544
 _ZN7blocxx812COWReferenceINSt7__debug6vectorISt4pairIiNS_5ArrayINS_6StringEEEESaIS7_EEEEaSERKSA_@Base 2.3.0~svn544
 _ZN7blocxx812COWReferenceINSt7__debug6vectorISt4pairIiNS_5ArrayINS_6StringEEEESaIS7_EEEEptEv@Base 2.3.0~svn544
 _ZN7blocxx812COWReferenceINSt7__debug6vectorIcSaIcEEEE12getWriteLockEv@Base 2.3.0~svn544
 _ZN7blocxx812COWReferenceINSt7__debug6vectorIcSaIcEEEE6decRefEv@Base 2.3.0~svn544
 _ZN7blocxx812COWReferenceINSt7__debug6vectorIcSaIcEEEEC1EPS4_@Base 2.3.0~svn544
 _ZN7blocxx812COWReferenceINSt7__debug6vectorIcSaIcEEEEC1ERKS5_@Base 2.3.0~svn544
 _ZN7blocxx812COWReferenceINSt7__debug6vectorIcSaIcEEEEC2EPS4_@Base 2.3.0~svn544
 _ZN7blocxx812COWReferenceINSt7__debug6vectorIcSaIcEEEEC2ERKS5_@Base 2.3.0~svn544
 _ZN7blocxx812COWReferenceINSt7__debug6vectorIcSaIcEEEED1Ev@Base 2.3.0~svn544
 _ZN7blocxx812COWReferenceINSt7__debug6vectorIcSaIcEEEED2Ev@Base 2.3.0~svn544
 _ZN7blocxx812COWReferenceINSt7__debug6vectorIcSaIcEEEEptEv@Base 2.3.0~svn544
 _ZN7blocxx812COWReferenceINSt7__debug6vectorIiSaIiEEEE12getWriteLockEv@Base 2.3.0~svn544
 _ZN7blocxx812COWReferenceINSt7__debug6vectorIiSaIiEEEE6decRefEv@Base 2.3.0~svn544
 _ZN7blocxx812COWReferenceINSt7__debug6vectorIiSaIiEEEEC1EPS4_@Base 2.3.0~svn544
 _ZN7blocxx812COWReferenceINSt7__debug6vectorIiSaIiEEEEC2EPS4_@Base 2.3.0~svn544
 _ZN7blocxx812COWReferenceINSt7__debug6vectorIiSaIiEEEED1Ev@Base 2.3.0~svn544
 _ZN7blocxx812COWReferenceINSt7__debug6vectorIiSaIiEEEED2Ev@Base 2.3.0~svn544
 _ZN7blocxx812COWReferenceINSt7__debug6vectorIiSaIiEEEEptEv@Base 2.3.0~svn544
 _ZN7blocxx812COWReferenceINSt7__debug6vectorItSaItEEEE12getWriteLockEv@Base 2.3.0~svn544
 _ZN7blocxx812COWReferenceINSt7__debug6vectorItSaItEEEE6decRefEv@Base 2.3.0~svn544
 _ZN7blocxx812COWReferenceINSt7__debug6vectorItSaItEEEEC1EPS4_@Base 2.3.0~svn544
 _ZN7blocxx812COWReferenceINSt7__debug6vectorItSaItEEEEC2EPS4_@Base 2.3.0~svn544
 _ZN7blocxx812COWReferenceINSt7__debug6vectorItSaItEEEED1Ev@Base 2.3.0~svn544
 _ZN7blocxx812COWReferenceINSt7__debug6vectorItSaItEEEED2Ev@Base 2.3.0~svn544
 _ZN7blocxx812COWReferenceINSt7__debug6vectorItSaItEEEEptEv@Base 2.3.0~svn544
 _ZN7blocxx812CerrAppender27STR_DEFAULT_MESSAGE_PATTERNE@Base 2.3.0~svn544
 _ZN7blocxx812CerrAppenderC1ERKNS_5ArrayINS_6StringEEES5_RKS2_@Base 2.3.0~svn544
 _ZN7blocxx812CerrAppenderC1Ev@Base 2.3.0~svn544
 _ZN7blocxx812CerrAppenderC2ERKNS_5ArrayINS_6StringEEES5_RKS2_@Base 2.3.0~svn544
 _ZN7blocxx812CerrAppenderC2Ev@Base 2.3.0~svn544
 _ZN7blocxx812CerrAppenderD0Ev@Base 2.3.0~svn544
 _ZN7blocxx812CerrAppenderD1Ev@Base 2.3.0~svn544
 _ZN7blocxx812CerrAppenderD2Ev@Base 2.3.0~svn544
 _ZN7blocxx812FileAppender27STR_DEFAULT_MESSAGE_PATTERNE@Base 2.3.0~svn544
 _ZN7blocxx812FileAppenderC1ERKNS_5ArrayINS_6StringEEES5_PKcRKS2_mjb@Base 2.3.0~svn544
 _ZN7blocxx812FileAppenderC2ERKNS_5ArrayINS_6StringEEES5_PKcRKS2_mjb@Base 2.3.0~svn544
 _ZN7blocxx812FileAppenderD0Ev@Base 2.3.0~svn544
 _ZN7blocxx812FileAppenderD1Ev@Base 2.3.0~svn544
 _ZN7blocxx812FileAppenderD2Ev@Base 2.3.0~svn544
 _ZN7blocxx812MD5ExceptionC1EPKciS2_iPKNS_9ExceptionEi@Base 2.3.0~svn544
 _ZN7blocxx812MD5ExceptionC1ERKS0_@Base 2.3.0~svn544
 _ZN7blocxx812MD5ExceptionC2EPKciS2_iPKNS_9ExceptionEi@Base 2.3.0~svn544
 _ZN7blocxx812MD5ExceptionC2ERKS0_@Base 2.3.0~svn544
 _ZN7blocxx812MD5ExceptionD0Ev@Base 2.3.0~svn544
 _ZN7blocxx812MD5ExceptionD1Ev@Base 2.3.0~svn544
 _ZN7blocxx812MD5ExceptionD2Ev@Base 2.3.0~svn544
 _ZN7blocxx812NullAppender27STR_DEFAULT_MESSAGE_PATTERNE@Base 2.3.0~svn544
 _ZN7blocxx812NullAppenderC1ERKNS_5ArrayINS_6StringEEES5_RKS2_@Base 2.3.0~svn544
 _ZN7blocxx812NullAppenderC1Ev@Base 2.3.0~svn544
 _ZN7blocxx812NullAppenderC2ERKNS_5ArrayINS_6StringEEES5_RKS2_@Base 2.3.0~svn544
 _ZN7blocxx812NullAppenderC2Ev@Base 2.3.0~svn544
 _ZN7blocxx812NullAppenderD0Ev@Base 2.3.0~svn544
 _ZN7blocxx812NullAppenderD1Ev@Base 2.3.0~svn544
 _ZN7blocxx812NullAppenderD2Ev@Base 2.3.0~svn544
 _ZN7blocxx812OWSSLContextC1Ev@Base 2.3.0~svn544
 _ZN7blocxx812OWSSLContextC2Ev@Base 2.3.0~svn544
 _ZN7blocxx812OWSSLContextD1Ev@Base 2.3.0~svn544
 _ZN7blocxx812OWSSLContextD2Ev@Base 2.3.0~svn544
 _ZN7blocxx812RandomNumber13getNextNumberEv@Base 2.3.0~svn544
 _ZN7blocxx812RandomNumber14initRandomnessEv@Base 2.3.0~svn544
 _ZN7blocxx812RandomNumber15saveRandomStateEv@Base 2.3.0~svn544
 _ZN7blocxx812RandomNumberC1Eii@Base 2.3.0~svn544
 _ZN7blocxx812RandomNumberC2Eii@Base 2.3.0~svn544
 _ZN7blocxx812SSLClientCtxC1ERKNS_7SSLOptsE@Base 2.3.0~svn544
 _ZN7blocxx812SSLClientCtxC2ERKNS_7SSLOptsE@Base 2.3.0~svn544
 _ZN7blocxx812SSLClientCtxD0Ev@Base 2.3.0~svn544
 _ZN7blocxx812SSLClientCtxD1Ev@Base 2.3.0~svn544
 _ZN7blocxx812SSLClientCtxD2Ev@Base 2.3.0~svn544
 _ZN7blocxx812SSLExceptionC1EPKciS2_iPKNS_9ExceptionEi@Base 2.3.0~svn544
 _ZN7blocxx812SSLExceptionC1ERKS0_@Base 2.3.0~svn544
 _ZN7blocxx812SSLExceptionC2EPKciS2_iPKNS_9ExceptionEi@Base 2.3.0~svn544
 _ZN7blocxx812SSLExceptionC2ERKS0_@Base 2.3.0~svn544
 _ZN7blocxx812SSLExceptionD0Ev@Base 2.3.0~svn544
 _ZN7blocxx812SSLExceptionD1Ev@Base 2.3.0~svn544
 _ZN7blocxx812SSLExceptionD2Ev@Base 2.3.0~svn544
 _ZN7blocxx812SSLServerCtxC1ERKNS_7SSLOptsE@Base 2.3.0~svn544
 _ZN7blocxx812SSLServerCtxC2ERKNS_7SSLOptsE@Base 2.3.0~svn544
 _ZN7blocxx812SSLServerCtxD0Ev@Base 2.3.0~svn544
 _ZN7blocxx812SSLServerCtxD1Ev@Base 2.3.0~svn544
 _ZN7blocxx812SSLServerCtxD2Ev@Base 2.3.0~svn544
 _ZN7blocxx812SelectEngine19addSelectableObjectERKiRKNS_18IntrusiveReferenceINS_21SelectableCallbackIFCEEENS4_10EEventTypeE@Base 2.3.0~svn544
 _ZN7blocxx812SelectEngine22removeSelectableObjectERKiNS_21SelectableCallbackIFC10EEventTypeE@Base 2.3.0~svn544
 _ZN7blocxx812SelectEngine2goERKNS_7TimeoutE@Base 2.3.0~svn544
 _ZN7blocxx812SelectEngine4DataC1ERKNS_18IntrusiveReferenceINS_21SelectableCallbackIFCEEENS3_10EEventTypeE@Base 2.3.0~svn544
 _ZN7blocxx812SelectEngine4DataC1ERKS1_@Base 2.3.0~svn544
 _ZN7blocxx812SelectEngine4DataC2ERKNS_18IntrusiveReferenceINS_21SelectableCallbackIFCEEENS3_10EEventTypeE@Base 2.3.0~svn544
 _ZN7blocxx812SelectEngine4DataC2ERKS1_@Base 2.3.0~svn544
 _ZN7blocxx812SelectEngine4DataD1Ev@Base 2.3.0~svn544
 _ZN7blocxx812SelectEngine4DataD2Ev@Base 2.3.0~svn544
 _ZN7blocxx812SelectEngine4DataaSERKS1_@Base 2.3.0~svn544
 _ZN7blocxx812SelectEngine4stopEv@Base 2.3.0~svn544
 _ZN7blocxx812ServerSocket15getLocalAddressEv@Base 2.3.0~svn544
 _ZN7blocxx812ServerSocket5closeEv@Base 2.3.0~svn544
 _ZN7blocxx812ServerSocket6acceptERKNS_7TimeoutE@Base 2.3.0~svn544
 _ZN7blocxx812ServerSocket8doListenERKNS_6StringEib@Base 2.3.0~svn544
 _ZN7blocxx812ServerSocket8doListenEtiRKNS_6StringENS_11SocketFlags14EReuseAddrFlagE@Base 2.3.0~svn544
 _ZN7blocxx812ServerSocketC1ENS_11SocketFlags8ESSLFlagE@Base 2.3.0~svn544
 _ZN7blocxx812ServerSocketC1ENS_18IntrusiveReferenceINS_12SSLServerCtxEEE@Base 2.3.0~svn544
 _ZN7blocxx812ServerSocketC1ERKS0_@Base 2.3.0~svn544
 _ZN7blocxx812ServerSocketC2ENS_11SocketFlags8ESSLFlagE@Base 2.3.0~svn544
 _ZN7blocxx812ServerSocketC2ENS_18IntrusiveReferenceINS_12SSLServerCtxEEE@Base 2.3.0~svn544
 _ZN7blocxx812ServerSocketC2ERKS0_@Base 2.3.0~svn544
 _ZN7blocxx812ServerSocketD0Ev@Base 2.3.0~svn544
 _ZN7blocxx812ServerSocketD1Ev@Base 2.3.0~svn544
 _ZN7blocxx812StringBuffer10checkAvailEm@Base 2.3.0~svn544
 _ZN7blocxx812StringBuffer13releaseStringEv@Base 2.3.0~svn544
 _ZN7blocxx812StringBuffer4chopEv@Base 2.3.0~svn544
 _ZN7blocxx812StringBuffer4swapERS0_@Base 2.3.0~svn544
 _ZN7blocxx812StringBuffer4trimEv@Base 2.3.0~svn544
 _ZN7blocxx812StringBuffer5resetEv@Base 2.3.0~svn544
 _ZN7blocxx812StringBuffer6appendEPKc@Base 2.3.0~svn544
 _ZN7blocxx812StringBuffer6appendEPKcm@Base 2.3.0~svn544
 _ZN7blocxx812StringBuffer6appendERKNS_6StringE@Base 2.3.0~svn544
 _ZN7blocxx812StringBuffer6appendERKS0_@Base 2.3.0~svn544
 _ZN7blocxx812StringBuffer6appendEc@Base 2.3.0~svn544
 _ZN7blocxx812StringBuffer7getLineERSib@Base 2.3.0~svn544
 _ZN7blocxx812StringBuffer8truncateEm@Base 2.3.0~svn544
 _ZN7blocxx812StringBufferC1EPKc@Base 2.3.0~svn544
 _ZN7blocxx812StringBufferC1ERKNS_6StringE@Base 2.3.0~svn544
 _ZN7blocxx812StringBufferC1ERKS0_@Base 2.3.0~svn544
 _ZN7blocxx812StringBufferC1Em@Base 2.3.0~svn544
 _ZN7blocxx812StringBufferC2EPKc@Base 2.3.0~svn544
 _ZN7blocxx812StringBufferC2ERKNS_6StringE@Base 2.3.0~svn544
 _ZN7blocxx812StringBufferC2ERKS0_@Base 2.3.0~svn544
 _ZN7blocxx812StringBufferC2Em@Base 2.3.0~svn544
 _ZN7blocxx812StringBufferD1Ev@Base 2.3.0~svn544
 _ZN7blocxx812StringBufferD2Ev@Base 2.3.0~svn544
 _ZN7blocxx812StringBufferaSEPKc@Base 2.3.0~svn544
 _ZN7blocxx812StringBufferaSERKNS_6StringE@Base 2.3.0~svn544
 _ZN7blocxx812StringBufferaSERKS0_@Base 2.3.0~svn544
 _ZN7blocxx812StringBufferpLENS_4BoolE@Base 2.3.0~svn544
 _ZN7blocxx812StringBufferpLEPKc@Base 2.3.0~svn544
 _ZN7blocxx812StringBufferpLERKNS_6StringE@Base 2.3.0~svn544
 _ZN7blocxx812StringBufferpLERKS0_@Base 2.3.0~svn544
 _ZN7blocxx812StringBufferpLEa@Base 2.3.0~svn544
 _ZN7blocxx812StringBufferpLEc@Base 2.3.0~svn544
 _ZN7blocxx812StringBufferpLEd@Base 2.3.0~svn544
 _ZN7blocxx812StringBufferpLEf@Base 2.3.0~svn544
 _ZN7blocxx812StringBufferpLEh@Base 2.3.0~svn544
 _ZN7blocxx812StringBufferpLEi@Base 2.3.0~svn544
 _ZN7blocxx812StringBufferpLEj@Base 2.3.0~svn544
 _ZN7blocxx812StringBufferpLEl@Base 2.3.0~svn544
 _ZN7blocxx812StringBufferpLEm@Base 2.3.0~svn544
 _ZN7blocxx812StringBufferpLEs@Base 2.3.0~svn544
 _ZN7blocxx812StringBufferpLEt@Base 2.3.0~svn544
 _ZN7blocxx812TimeoutTimer11resetOnLoopEv@Base 2.3.0~svn544
 _ZN7blocxx812TimeoutTimer4loopEv@Base 2.3.0~svn544
 _ZN7blocxx812TimeoutTimer5startEv@Base 2.3.0~svn544
 _ZN7blocxx812TimeoutTimerC1ERKNS_7TimeoutE@Base 2.3.0~svn544
 _ZN7blocxx812TimeoutTimerC2ERKNS_7TimeoutE@Base 2.3.0~svn544
 _ZN7blocxx812TimeoutTimerD0Ev@Base 2.3.0~svn544
 _ZN7blocxx812TimeoutTimerD1Ev@Base 2.3.0~svn544
 _ZN7blocxx812TimeoutTimerD2Ev@Base 2.3.0~svn544
 _ZN7blocxx813CmdLineParser10addOptionsEPKNS0_6OptionE@Base 2.3.0~svn544
 _ZN7blocxx813CmdLineParser15addOptionWithIDEicRKNS_6StringENS0_17EArgumentTypeFlagES3_NS0_25EOptionVisibilityTypeFlagE@Base 2.3.0~svn544
 _ZN7blocxx813CmdLineParser15addOptionWithIDEicRKNS_6StringES3_S3_NS0_25EOptionVisibilityTypeFlagE@Base 2.3.0~svn544
 _ZN7blocxx813CmdLineParser5parseERKNS_5ArrayINS_6StringEEENS0_23EAllowNonOptionArgsFlagE@Base 2.3.0~svn544
 _ZN7blocxx813CmdLineParser5parseEiPKPKcNS0_23EAllowNonOptionArgsFlagE@Base 2.3.0~svn544
 _ZN7blocxx813CmdLineParser8getUsageEPKNS0_6OptionEjNS0_20EUsageVisibilityFlagE@Base 2.3.0~svn544
 _ZN7blocxx813CmdLineParser9addOptionEcRKNS_6StringENS0_17EArgumentTypeFlagES3_NS0_25EOptionVisibilityTypeFlagE@Base 2.3.0~svn544
 _ZN7blocxx813CmdLineParser9addOptionEcRKNS_6StringES3_S3_NS0_25EOptionVisibilityTypeFlagE@Base 2.3.0~svn544
 _ZN7blocxx813CmdLineParserC1EPKNS0_6OptionEcRKNS_6StringEcNS0_20ECaseSensitivityFlagE@Base 2.3.0~svn544
 _ZN7blocxx813CmdLineParserC1ERKS0_@Base 2.3.0~svn544
 _ZN7blocxx813CmdLineParserC1EcRKNS_6StringEcNS0_20ECaseSensitivityFlagE@Base 2.3.0~svn544
 _ZN7blocxx813CmdLineParserC1EiPKPKcPKNS0_6OptionENS0_23EAllowNonOptionArgsFlagEcRKNS_6StringEcNS0_20ECaseSensitivityFlagE@Base 2.3.0~svn544
 _ZN7blocxx813CmdLineParserC2EPKNS0_6OptionEcRKNS_6StringEcNS0_20ECaseSensitivityFlagE@Base 2.3.0~svn544
 _ZN7blocxx813CmdLineParserC2ERKS0_@Base 2.3.0~svn544
 _ZN7blocxx813CmdLineParserC2EcRKNS_6StringEcNS0_20ECaseSensitivityFlagE@Base 2.3.0~svn544
 _ZN7blocxx813CmdLineParserC2EiPKPKcPKNS0_6OptionENS0_23EAllowNonOptionArgsFlagEcRKNS_6StringEcNS0_20ECaseSensitivityFlagE@Base 2.3.0~svn544
 _ZN7blocxx813CmdLineParserD1Ev@Base 2.3.0~svn544
 _ZN7blocxx813CmdLineParserD2Ev@Base 2.3.0~svn544
 _ZN7blocxx813CmdLineParseraSERKS0_@Base 2.3.0~svn544
 _ZN7blocxx813DelayedFormatC1ERKNS_6StringE@Base 2.3.0~svn544
 _ZN7blocxx813DelayedFormatC2ERKNS_6StringE@Base 2.3.0~svn544
 _ZN7blocxx813DelayedFormatD1Ev@Base 2.3.0~svn544
 _ZN7blocxx813DelayedFormatD2Ev@Base 2.3.0~svn544
 _ZN7blocxx813IStringStreamC1ERKNS_6StringE@Base 2.3.0~svn544
 _ZN7blocxx813IStringStreamC2ERKNS_6StringE@Base 2.3.0~svn544
 _ZN7blocxx813IStringStreamD0Ev@Base 2.3.0~svn544
 _ZN7blocxx813IStringStreamD1Ev@Base 2.3.0~svn544
 _ZN7blocxx813IStringStreamD2Ev@Base 2.3.0~svn544
 _ZN7blocxx813MultiAppender14addLogAppenderERKNS_18IntrusiveReferenceINS_11LogAppenderEEE@Base 2.3.0~svn544
 _ZN7blocxx813MultiAppenderC1ERKNS_18IntrusiveReferenceINS_11LogAppenderEEE@Base 2.3.0~svn544
 _ZN7blocxx813MultiAppenderC1ERKNS_5ArrayINS_18IntrusiveReferenceINS_11LogAppenderEEEEE@Base 2.3.0~svn544
 _ZN7blocxx813MultiAppenderC2ERKNS_18IntrusiveReferenceINS_11LogAppenderEEE@Base 2.3.0~svn544
 _ZN7blocxx813MultiAppenderC2ERKNS_5ArrayINS_18IntrusiveReferenceINS_11LogAppenderEEEEE@Base 2.3.0~svn544
 _ZN7blocxx813MultiAppenderD0Ev@Base 2.3.0~svn544
 _ZN7blocxx813MultiAppenderD1Ev@Base 2.3.0~svn544
 _ZN7blocxx813MultiAppenderD2Ev@Base 2.3.0~svn544
 _ZN7blocxx813OStringStream13releaseStringEv@Base 2.3.0~svn544
 _ZN7blocxx813OStringStream5resetEv@Base 2.3.0~svn544
 _ZN7blocxx813OStringStreamC1ERKS0_@Base 2.3.0~svn544
 _ZN7blocxx813OStringStreamC1Em@Base 2.3.0~svn544
 _ZN7blocxx813OStringStreamC2ERKS0_@Base 2.3.0~svn544
 _ZN7blocxx813OStringStreamC2Em@Base 2.3.0~svn544
 _ZN7blocxx813OStringStreamD0Ev@Base 2.3.0~svn544
 _ZN7blocxx813OStringStreamD1Ev@Base 2.3.0~svn544
 _ZN7blocxx813OStringStreamD2Ev@Base 2.3.0~svn544
 _ZN7blocxx813OStringStreamaSERKS0_@Base 2.3.0~svn544
 _ZN7blocxx813ReferenceBase4swapERS0_@Base 2.3.0~svn544
 _ZN7blocxx813ReferenceBase6decRefEv@Base 2.3.0~svn544
 _ZN7blocxx813ReferenceBaseC1ERKS0_@Base 2.3.0~svn544
 _ZN7blocxx813ReferenceBaseC1Ev@Base 2.3.0~svn544
 _ZN7blocxx813ReferenceBaseC2ERKS0_@Base 2.3.0~svn544
 _ZN7blocxx813ReferenceBaseC2Ev@Base 2.3.0~svn544
 _ZN7blocxx813SSLSocketImpl10connectSSLEv@Base 2.3.0~svn544
 _ZN7blocxx813SSLSocketImpl10disconnectEv@Base 2.3.0~svn544
 _ZN7blocxx813SSLSocketImpl12waitForInputERKNS_7TimeoutE@Base 2.3.0~svn544
 _ZN7blocxx813SSLSocketImpl7connectERKNS_13SocketAddressE@Base 2.3.0~svn544
 _ZN7blocxx813SSLSocketImpl7readAuxEPvi@Base 2.3.0~svn544
 _ZN7blocxx813SSLSocketImpl8writeAuxEPKvi@Base 2.3.0~svn544
 _ZN7blocxx813SSLSocketImplC1ENS_18IntrusiveReferenceINS_12SSLClientCtxEEE@Base 2.3.0~svn544
 _ZN7blocxx813SSLSocketImplC1ERKNS_13SocketAddressE@Base 2.3.0~svn544
 _ZN7blocxx813SSLSocketImplC1EiNS_13SocketAddress11AddressTypeE@Base 2.3.0~svn544
 _ZN7blocxx813SSLSocketImplC1EiNS_13SocketAddress11AddressTypeERKNS_18IntrusiveReferenceINS_12SSLServerCtxEEE@Base 2.3.0~svn544
 _ZN7blocxx813SSLSocketImplC2ENS_18IntrusiveReferenceINS_12SSLClientCtxEEE@Base 2.3.0~svn544
 _ZN7blocxx813SSLSocketImplC2ERKNS_13SocketAddressE@Base 2.3.0~svn544
 _ZN7blocxx813SSLSocketImplC2EiNS_13SocketAddress11AddressTypeE@Base 2.3.0~svn544
 _ZN7blocxx813SSLSocketImplC2EiNS_13SocketAddress11AddressTypeERKNS_18IntrusiveReferenceINS_12SSLServerCtxEEE@Base 2.3.0~svn544
 _ZN7blocxx813SSLSocketImplD0Ev@Base 2.3.0~svn544
 _ZN7blocxx813SSLSocketImplD1Ev@Base 2.3.0~svn544
 _ZN7blocxx813SSLSocketImplD2Ev@Base 2.3.0~svn544
 _ZN7blocxx813SSLTrustStore14addCertificateEP7x509_stRKNS_6StringES5_@Base 2.3.0~svn544
 _ZN7blocxx813SSLTrustStore21getCertMD5FingerprintEP7x509_st@Base 2.3.0~svn544
 _ZN7blocxx813SSLTrustStore7getUserERKNS_6StringERS1_S4_@Base 2.3.0~svn544
 _ZN7blocxx813SSLTrustStore7readMapEv@Base 2.3.0~svn544
 _ZN7blocxx813SSLTrustStore8UserInfoC1ERKS1_@Base 2.3.0~svn544
 _ZN7blocxx813SSLTrustStore8UserInfoC1Ev@Base 2.3.0~svn544
 _ZN7blocxx813SSLTrustStore8UserInfoC2ERKS1_@Base 2.3.0~svn544
 _ZN7blocxx813SSLTrustStore8UserInfoC2Ev@Base 2.3.0~svn544
 _ZN7blocxx813SSLTrustStore8UserInfoD1Ev@Base 2.3.0~svn544
 _ZN7blocxx813SSLTrustStore8UserInfoD2Ev@Base 2.3.0~svn544
 _ZN7blocxx813SSLTrustStore8UserInfoaSERKS1_@Base 2.3.0~svn544
 _ZN7blocxx813SSLTrustStore8writeMapEv@Base 2.3.0~svn544
 _ZN7blocxx813SSLTrustStoreC1ERKNS_6StringE@Base 2.3.0~svn544
 _ZN7blocxx813SSLTrustStoreC2ERKNS_6StringE@Base 2.3.0~svn544
 _ZN7blocxx813SSLTrustStoreD0Ev@Base 2.3.0~svn544
 _ZN7blocxx813SSLTrustStoreD1Ev@Base 2.3.0~svn544
 _ZN7blocxx813SSLTrustStoreD2Ev@Base 2.3.0~svn544
 _ZN7blocxx813SelectableIFCC2Ev@Base 2.3.0~svn544
 _ZN7blocxx813SelectableIFCD0Ev@Base 2.3.0~svn544
 _ZN7blocxx813SelectableIFCD1Ev@Base 2.3.0~svn544
 _ZN7blocxx813SelectableIFCD2Ev@Base 2.3.0~svn544
 _ZN7blocxx813SharedLibraryC1Ev@Base 2.3.0~svn544
 _ZN7blocxx813SharedLibraryC2Ev@Base 2.3.0~svn544
 _ZN7blocxx813SharedLibraryD0Ev@Base 2.3.0~svn544
 _ZN7blocxx813SharedLibraryD1Ev@Base 2.3.0~svn544
 _ZN7blocxx813SharedLibraryD2Ev@Base 2.3.0~svn544
 _ZN7blocxx813SocketAddress15getAnyLocalHostEt@Base 2.3.0~svn544
 _ZN7blocxx813SocketAddress17allocEmptyAddressENS0_11AddressTypeE@Base 2.3.0~svn544
 _ZN7blocxx813SocketAddress17getFromNativeFormERK11sockaddr_un@Base 2.3.0~svn544
 _ZN7blocxx813SocketAddress17getFromNativeFormERK16sockaddr_storage@Base 2.3.0~svn544
 _ZN7blocxx813SocketAddress17getFromNativeFormERK7in_addrtRKNS_6StringE@Base 2.3.0~svn544
 _ZN7blocxx813SocketAddress19ALL_LOCAL_ADDRESSESE@Base 2.3.0~svn544
 _ZN7blocxx813SocketAddress20assignFromNativeFormEPK11sockaddr_unm@Base 2.3.0~svn544
 _ZN7blocxx813SocketAddress20assignFromNativeFormEPK16sockaddr_storagem@Base 2.3.0~svn544
 _ZN7blocxx813SocketAddress6getUDSERKNS_6StringE@Base 2.3.0~svn544
 _ZN7blocxx813SocketAddress9getByNameERKNS_6StringEt@Base 2.3.0~svn544
 _ZN7blocxx813SocketAddressC1ERK11sockaddr_un@Base 2.3.0~svn544
 _ZN7blocxx813SocketAddressC1ERK16sockaddr_storage@Base 2.3.0~svn544
 _ZN7blocxx813SocketAddressC1ERKS0_@Base 2.3.0~svn544
 _ZN7blocxx813SocketAddressC1Ev@Base 2.3.0~svn544
 _ZN7blocxx813SocketAddressC2ERK11sockaddr_un@Base 2.3.0~svn544
 _ZN7blocxx813SocketAddressC2ERK16sockaddr_storage@Base 2.3.0~svn544
 _ZN7blocxx813SocketAddressC2ERKS0_@Base 2.3.0~svn544
 _ZN7blocxx813SocketAddressC2Ev@Base 2.3.0~svn544
 _ZN7blocxx813SocketAddressD1Ev@Base 2.3.0~svn544
 _ZN7blocxx813SocketAddressD2Ev@Base 2.3.0~svn544
 _ZN7blocxx813SocketAddressaSERKS0_@Base 2.3.0~svn544
 _ZN7blocxx813ThreadBarrier4waitEv@Base 2.3.0~svn544
 _ZN7blocxx813ThreadBarrierC1ERKS0_@Base 2.3.0~svn544
 _ZN7blocxx813ThreadBarrierC1Ej@Base 2.3.0~svn544
 _ZN7blocxx813ThreadBarrierC2ERKS0_@Base 2.3.0~svn544
 _ZN7blocxx813ThreadBarrierC2Ej@Base 2.3.0~svn544
 _ZN7blocxx813ThreadBarrierD1Ev@Base 2.3.0~svn544
 _ZN7blocxx813ThreadBarrierD2Ev@Base 2.3.0~svn544
 _ZN7blocxx813ThreadBarrieraSERKS0_@Base 2.3.0~svn544
 _ZN7blocxx813ThreadCounter10waitForAllERKNS_7TimeoutE@Base 2.3.0~svn544
 _ZN7blocxx813ThreadCounter14decThreadCountEv@Base 2.3.0~svn544
 _ZN7blocxx813ThreadCounter14getThreadCountEv@Base 2.3.0~svn544
 _ZN7blocxx813ThreadCounter14incThreadCountERKNS_7TimeoutE@Base 2.3.0~svn544
 _ZN7blocxx813ThreadCounter6setMaxEi@Base 2.3.0~svn544
 _ZN7blocxx813ThreadCounterC1Ei@Base 2.3.0~svn544
 _ZN7blocxx813ThreadCounterC2Ei@Base 2.3.0~svn544
 _ZN7blocxx813ThreadCounterD0Ev@Base 2.3.0~svn544
 _ZN7blocxx813ThreadCounterD1Ev@Base 2.3.0~svn544
 _ZN7blocxx813ThreadCounterD2Ev@Base 2.3.0~svn544
 _ZN7blocxx813UUIDExceptionC1EPKciS2_iPKNS_9ExceptionEi@Base 2.3.0~svn544
 _ZN7blocxx813UUIDExceptionC1ERKS0_@Base 2.3.0~svn544
 _ZN7blocxx813UUIDExceptionC2EPKciS2_iPKNS_9ExceptionEi@Base 2.3.0~svn544
 _ZN7blocxx813UUIDExceptionC2ERKS0_@Base 2.3.0~svn544
 _ZN7blocxx813UUIDExceptionD0Ev@Base 2.3.0~svn544
 _ZN7blocxx813UUIDExceptionD1Ev@Base 2.3.0~svn544
 _ZN7blocxx813UUIDExceptionD2Ev@Base 2.3.0~svn544
 _ZN7blocxx813check_grp_othERKNS_10FileSystem15FileInformationE@Base 2.3.0~svn544
 _ZN7blocxx813getFileStatusERKNS_10FileSystem15FileInformationEjbRKNS_6StringE@Base 2.3.0~svn544
 _ZN7blocxx814AppenderLogger14addLogAppenderERKNS_18IntrusiveReferenceINS_11LogAppenderEEE@Base 2.3.0~svn544
 _ZN7blocxx814AppenderLogger8getLevelERKNS_5ArrayINS_18IntrusiveReferenceINS_11LogAppenderEEEEE@Base 2.3.0~svn544
 _ZN7blocxx814AppenderLoggerC1ERKNS_6StringENS_9ELogLevelERKNS_18IntrusiveReferenceINS_11LogAppenderEEE@Base 2.3.0~svn544
 _ZN7blocxx814AppenderLoggerC1ERKNS_6StringENS_9ELogLevelERKNS_5ArrayINS_18IntrusiveReferenceINS_11LogAppenderEEEEE@Base 2.3.0~svn544
 _ZN7blocxx814AppenderLoggerC1ERKNS_6StringERKNS_18IntrusiveReferenceINS_11LogAppenderEEE@Base 2.3.0~svn544
 _ZN7blocxx814AppenderLoggerC1ERKNS_6StringERKNS_5ArrayINS_18IntrusiveReferenceINS_11LogAppenderEEEEE@Base 2.3.0~svn544
 _ZN7blocxx814AppenderLoggerC2ERKNS_6StringENS_9ELogLevelERKNS_18IntrusiveReferenceINS_11LogAppenderEEE@Base 2.3.0~svn544
 _ZN7blocxx814AppenderLoggerC2ERKNS_6StringENS_9ELogLevelERKNS_5ArrayINS_18IntrusiveReferenceINS_11LogAppenderEEEEE@Base 2.3.0~svn544
 _ZN7blocxx814AppenderLoggerC2ERKNS_6StringERKNS_18IntrusiveReferenceINS_11LogAppenderEEE@Base 2.3.0~svn544
 _ZN7blocxx814AppenderLoggerC2ERKNS_6StringERKNS_5ArrayINS_18IntrusiveReferenceINS_11LogAppenderEEEEE@Base 2.3.0~svn544
 _ZN7blocxx814AppenderLoggerD0Ev@Base 2.3.0~svn544
 _ZN7blocxx814AppenderLoggerD1Ev@Base 2.3.0~svn544
 _ZN7blocxx814AppenderLoggerD2Ev@Base 2.3.0~svn544
 _ZN7blocxx814DataIStreamBuf7seekoffElSt12_Ios_SeekdirSt13_Ios_Openmode@Base 2.3.0~svn544
 _ZN7blocxx814DataIStreamBuf7seekposESt4fposI11__mbstate_tESt13_Ios_Openmode@Base 2.3.0~svn544
 _ZN7blocxx814DataIStreamBuf9underflowEv@Base 2.3.0~svn544
 _ZN7blocxx814DataIStreamBufD0Ev@Base 2.3.0~svn544
 _ZN7blocxx814DataIStreamBufD1Ev@Base 2.3.0~svn544
 _ZN7blocxx814DataIStreamBufD2Ev@Base 2.3.0~svn544
 _ZN7blocxx814DataOStreamBuf6xsputnEPKcl@Base 2.3.0~svn544
 _ZN7blocxx814DataOStreamBuf8overflowEi@Base 2.3.0~svn544
 _ZN7blocxx814DataOStreamBufC1Em@Base 2.3.0~svn544
 _ZN7blocxx814DataOStreamBufC2Em@Base 2.3.0~svn544
 _ZN7blocxx814DataOStreamBufD0Ev@Base 2.3.0~svn544
 _ZN7blocxx814DataOStreamBufD1Ev@Base 2.3.0~svn544
 _ZN7blocxx814DataOStreamBufD2Ev@Base 2.3.0~svn544
 _ZN7blocxx814ExecMockObject29executeProcessAndGatherOutputEPKPKcRNS_6StringES4_RKNS_7TimeoutEiS2_@Base 2.3.0~svn544
 _ZN7blocxx814ExecMockObject30executeProcessAndGatherOutput2EPKPKcRNS_6StringES6_S4_RKNS_7TimeoutEiS2_@Base 2.3.0~svn544
 _ZN7blocxx814ExecMockObjectD0Ev@Base 2.3.0~svn544
 _ZN7blocxx814ExecMockObjectD1Ev@Base 2.3.0~svn544
 _ZN7blocxx814ExecMockObjectD2Ev@Base 2.3.0~svn544
 _ZN7blocxx814MD5OStreamBaseC1EPNS_3MD5E@Base 2.3.0~svn544
 _ZN7blocxx814MD5OStreamBaseC2EPNS_3MD5E@Base 2.3.0~svn544
 _ZN7blocxx814MD5OStreamBaseD1Ev@Base 2.3.0~svn544
 _ZN7blocxx814MD5OStreamBaseD2Ev@Base 2.3.0~svn544
 _ZN7blocxx814SocketBaseImpl10disconnectEv@Base 2.3.0~svn544
 _ZN7blocxx814SocketBaseImpl11getIOStreamEv@Base 2.3.0~svn544
 _ZN7blocxx814SocketBaseImpl12setDumpFilesERKNS_6StringES3_@Base 2.3.0~svn544
 _ZN7blocxx814SocketBaseImpl12waitForInputERKNS_7TimeoutE@Base 2.3.0~svn544
 _ZN7blocxx814SocketBaseImpl13m_traceFileInE@Base 2.3.0~svn544
 _ZN7blocxx814SocketBaseImpl13waitForOutputERKNS_7TimeoutE@Base 2.3.0~svn544
 _ZN7blocxx814SocketBaseImpl14getInputStreamEv@Base 2.3.0~svn544
 _ZN7blocxx814SocketBaseImpl14m_traceFileOutE@Base 2.3.0~svn544
 _ZN7blocxx814SocketBaseImpl15getOutputStreamEv@Base 2.3.0~svn544
 _ZN7blocxx814SocketBaseImpl17fillInetAddrParmsEv@Base 2.3.0~svn544
 _ZN7blocxx814SocketBaseImpl17fillUnixAddrParmsEv@Base 2.3.0~svn544
 _ZN7blocxx814SocketBaseImpl4readEPviNS_5IOIFC11ErrorActionE@Base 2.3.0~svn544
 _ZN7blocxx814SocketBaseImpl5writeEPKviNS_5IOIFC11ErrorActionE@Base 2.3.0~svn544
 _ZN7blocxx814SocketBaseImpl7connectERKNS_13SocketAddressE@Base 2.3.0~svn544
 _ZN7blocxx814SocketBaseImplC1ERKNS_13SocketAddressE@Base 2.3.0~svn544
 _ZN7blocxx814SocketBaseImplC1EiNS_13SocketAddress11AddressTypeE@Base 2.3.0~svn544
 _ZN7blocxx814SocketBaseImplC1Ev@Base 2.3.0~svn544
 _ZN7blocxx814SocketBaseImplC2ERKNS_13SocketAddressE@Base 2.3.0~svn544
 _ZN7blocxx814SocketBaseImplC2EiNS_13SocketAddress11AddressTypeE@Base 2.3.0~svn544
 _ZN7blocxx814SocketBaseImplC2Ev@Base 2.3.0~svn544
 _ZN7blocxx814SocketBaseImplD0Ev@Base 2.3.0~svn544
 _ZN7blocxx814SocketBaseImplD1Ev@Base 2.3.0~svn544
 _ZN7blocxx814SocketBaseImplD2Ev@Base 2.3.0~svn544
 _ZN7blocxx814SyslogAppender13calledOpenLogE@Base 2.3.0~svn544
 _ZN7blocxx814SyslogAppender27STR_DEFAULT_MESSAGE_PATTERNE@Base 2.3.0~svn544
 _ZN7blocxx814SyslogAppenderC1ERKNS_5ArrayINS_6StringEEES5_RKS2_S7_S7_@Base 2.3.0~svn544
 _ZN7blocxx814SyslogAppenderC2ERKNS_5ArrayINS_6StringEEES5_RKS2_S7_S7_@Base 2.3.0~svn544
 _ZN7blocxx814SyslogAppenderD0Ev@Base 2.3.0~svn544
 _ZN7blocxx814SyslogAppenderD1Ev@Base 2.3.0~svn544
 _ZN7blocxx814SyslogAppenderD2Ev@Base 2.3.0~svn544
 _ZN7blocxx814TempFileBuffer10buffer_outEv@Base 2.3.0~svn544
 _ZN7blocxx814TempFileBuffer11initBuffersEv@Base 2.3.0~svn544
 _ZN7blocxx814TempFileBuffer13initGetBufferEv@Base 2.3.0~svn544
 _ZN7blocxx814TempFileBuffer13initPutBufferEv@Base 2.3.0~svn544
 _ZN7blocxx814TempFileBuffer16buffer_to_deviceEPKci@Base 2.3.0~svn544
 _ZN7blocxx814TempFileBuffer18buffer_from_deviceEPci@Base 2.3.0~svn544
 _ZN7blocxx814TempFileBuffer19releaseFileAndResetEv@Base 2.3.0~svn544
 _ZN7blocxx814TempFileBuffer5resetEv@Base 2.3.0~svn544
 _ZN7blocxx814TempFileBuffer6rewindEv@Base 2.3.0~svn544
 _ZN7blocxx814TempFileBuffer6xsputnEPKcl@Base 2.3.0~svn544
 _ZN7blocxx814TempFileBuffer7getSizeEv@Base 2.3.0~svn544
 _ZN7blocxx814TempFileBuffer8overflowEi@Base 2.3.0~svn544
 _ZN7blocxx814TempFileBuffer9buffer_inEv@Base 2.3.0~svn544
 _ZN7blocxx814TempFileBuffer9underflowEv@Base 2.3.0~svn544
 _ZN7blocxx814TempFileBufferC1ERKNS_6StringEmNS0_13EKeepFileFlagE@Base 2.3.0~svn544
 _ZN7blocxx814TempFileBufferC1EmNS0_13EKeepFileFlagE@Base 2.3.0~svn544
 _ZN7blocxx814TempFileBufferC2ERKNS_6StringEmNS0_13EKeepFileFlagE@Base 2.3.0~svn544
 _ZN7blocxx814TempFileBufferC2EmNS0_13EKeepFileFlagE@Base 2.3.0~svn544
 _ZN7blocxx814TempFileBufferD0Ev@Base 2.3.0~svn544
 _ZN7blocxx814TempFileBufferD1Ev@Base 2.3.0~svn544
 _ZN7blocxx814TempFileBufferD2Ev@Base 2.3.0~svn544
 _ZN7blocxx814TempFileStream19releaseFileAndResetEv@Base 2.3.0~svn544
 _ZN7blocxx814TempFileStream5resetEv@Base 2.3.0~svn544
 _ZN7blocxx814TempFileStream6rewindEv@Base 2.3.0~svn544
 _ZN7blocxx814TempFileStreamC1ERKNS_6StringEmNS_14TempFileBuffer13EKeepFileFlagE@Base 2.3.0~svn544
 _ZN7blocxx814TempFileStreamC1EmNS_14TempFileBuffer13EKeepFileFlagE@Base 2.3.0~svn544
 _ZN7blocxx814TempFileStreamC2ERKNS_6StringEmNS_14TempFileBuffer13EKeepFileFlagE@Base 2.3.0~svn544
 _ZN7blocxx814TempFileStreamC2EmNS_14TempFileBuffer13EKeepFileFlagE@Base 2.3.0~svn544
 _ZN7blocxx814TempFileStreamD0Ev@Base 2.3.0~svn544
 _ZN7blocxx814TempFileStreamD1Ev@Base 2.3.0~svn544
 _ZN7blocxx814TempFileStreamD2Ev@Base 2.3.0~svn544
 _ZN7blocxx814ThreadPoolImplC1Ev@Base 2.3.0~svn544
 _ZN7blocxx814ThreadPoolImplC2Ev@Base 2.3.0~svn544
 _ZN7blocxx814ThreadPoolImplD0Ev@Base 2.3.0~svn544
 _ZN7blocxx814ThreadPoolImplD1Ev@Base 2.3.0~svn544
 _ZN7blocxx814ThreadPoolImplD2Ev@Base 2.3.0~svn544
 _ZN7blocxx814isPathAbsoluteERKNS_6StringE@Base 2.3.0~svn544
 _ZN7blocxx814passDescriptorEiii@Base 2.3.0~svn544
 _ZN7blocxx814pollStatusImplEi@Base 2.3.0~svn544
 _ZN7blocxx815AutoResourceRefINS_20AutoDescriptorPolicyEEC1Ei@Base 2.3.0~svn544
 _ZN7blocxx815AutoResourceRefINS_20AutoDescriptorPolicyEEC2Ei@Base 2.3.0~svn544
 _ZN7blocxx815ExceptionDetail13FormatMsgImplC1Ev@Base 2.3.0~svn544
 _ZN7blocxx815ExceptionDetail13FormatMsgImplC2Ev@Base 2.3.0~svn544
 _ZN7blocxx815ExceptionDetail13FormatMsgImplD1Ev@Base 2.3.0~svn544
 _ZN7blocxx815ExceptionDetail13FormatMsgImplD2Ev@Base 2.3.0~svn544
 _ZN7blocxx815ExceptionDetail15strerror_r_wrapINS0_5dummyEEEiPFPciS3_mEiS3_jT_@Base 2.3.0~svn544
 _ZN7blocxx815ExceptionDetail19portable_strerror_rEiPcj@Base 2.3.0~svn544
 _ZN7blocxx815ExceptionDetail5ErrnoINS_11IOExceptionEE6formatEPKciS5_i@Base 2.3.0~svn544
 _ZN7blocxx815ExceptionDetail5ErrnoINS_11IOExceptionEE6formatINS_6FormatEEES2_PKciRKT_i@Base 2.3.0~svn544
 _ZN7blocxx815ExceptionDetail5ErrnoINS_12SSLExceptionEE6formatEPKciS5_i@Base 2.3.0~svn544
 _ZN7blocxx815ExceptionDetail5ErrnoINS_15SelectExceptionEE6formatEPKciS5_i@Base 2.3.0~svn544
 _ZN7blocxx815ExceptionDetail5ErrnoINS_15SocketExceptionEE6formatEPKciS5_i@Base 2.3.0~svn544
 _ZN7blocxx815ExceptionDetail5ErrnoINS_15ThreadExceptionEE6formatEPKciS5_i@Base 2.3.0~svn544
 _ZN7blocxx815ExceptionDetail5ErrnoINS_18AssertionExceptionEE6formatEPKciS5_i@Base 2.3.0~svn544
 _ZN7blocxx815ExceptionDetail5ErrnoINS_18ExecErrorExceptionEE6formatEPKciS5_i@Base 2.3.0~svn544
 _ZN7blocxx815ExceptionDetail5ErrnoINS_19FileSystemExceptionEE6formatEPKciS5_i@Base 2.3.0~svn544
 _ZN7blocxx815ExceptionDetail5ErrnoINS_19FileSystemExceptionEE6formatINS_6StringEEES2_PKciRKT_i@Base 2.3.0~svn544
 _ZN7blocxx815ExceptionDetail5ErrnoINS_19FileSystemExceptionEE6simpleEPKcii@Base 2.3.0~svn544
 _ZN7blocxx815ExceptionDetail5ErrnoINS_20UnnamedPipeExceptionEE6formatEPKciS5_i@Base 2.3.0~svn544
 _ZN7blocxx815ExceptionDetail5ErrnoINS_21ProcessErrorExceptionEE6formatEPKciS5_i@Base 2.3.0~svn544
 _ZN7blocxx815ExceptionDetail5ErrnoINS_26ConditionResourceExceptionEE6formatEPKciS5_i@Base 2.3.0~svn544
 _ZN7blocxx815ExceptionDetail5ErrnoINS_6Secure21ProcessAbortExceptionEE6formatEPKciS6_i@Base 2.3.0~svn544
 _ZN7blocxx815ExceptionDetail9FormatMsgC1EPKci@Base 2.3.0~svn544
 _ZN7blocxx815ExceptionDetail9FormatMsgC2EPKci@Base 2.3.0~svn544
 _ZN7blocxx815ExceptionDetail9FormatMsgD1Ev@Base 2.3.0~svn544
 _ZN7blocxx815ExceptionDetail9FormatMsgD2Ev@Base 2.3.0~svn544
 _ZN7blocxx815FormatExceptionC1EPKciS2_iPKNS_9ExceptionEi@Base 2.3.0~svn544
 _ZN7blocxx815FormatExceptionC1ERKS0_@Base 2.3.0~svn544
 _ZN7blocxx815FormatExceptionC2EPKciS2_iPKNS_9ExceptionEi@Base 2.3.0~svn544
 _ZN7blocxx815FormatExceptionC2ERKS0_@Base 2.3.0~svn544
 _ZN7blocxx815FormatExceptionD0Ev@Base 2.3.0~svn544
 _ZN7blocxx815FormatExceptionD1Ev@Base 2.3.0~svn544
 _ZN7blocxx815FormatExceptionD2Ev@Base 2.3.0~svn544
 _ZN7blocxx815LoggerExceptionC1EPKciS2_iPKNS_9ExceptionEi@Base 2.3.0~svn544
 _ZN7blocxx815LoggerExceptionC1ERKS0_@Base 2.3.0~svn544
 _ZN7blocxx815LoggerExceptionC2EPKciS2_iPKNS_9ExceptionEi@Base 2.3.0~svn544
 _ZN7blocxx815LoggerExceptionC2ERKS0_@Base 2.3.0~svn544
 _ZN7blocxx815LoggerExceptionD0Ev@Base 2.3.0~svn544
 _ZN7blocxx815LoggerExceptionD1Ev@Base 2.3.0~svn544
 _ZN7blocxx815LoggerExceptionD2Ev@Base 2.3.0~svn544
 _ZN7blocxx815MD5StreamBuffer6xsputnEPKcl@Base 2.3.0~svn544
 _ZN7blocxx815MD5StreamBuffer8overflowEi@Base 2.3.0~svn544
 _ZN7blocxx815MD5StreamBufferC1EPNS_3MD5E@Base 2.3.0~svn544
 _ZN7blocxx815MD5StreamBufferC2EPNS_3MD5E@Base 2.3.0~svn544
 _ZN7blocxx815MD5StreamBufferD0Ev@Base 2.3.0~svn544
 _ZN7blocxx815MD5StreamBufferD1Ev@Base 2.3.0~svn544
 _ZN7blocxx815MD5StreamBufferD2Ev@Base 2.3.0~svn544
 _ZN7blocxx815SelectExceptionC1EPKciS2_iPKNS_9ExceptionEi@Base 2.3.0~svn544
 _ZN7blocxx815SelectExceptionC1ERKS0_@Base 2.3.0~svn544
 _ZN7blocxx815SelectExceptionC2EPKciS2_iPKNS_9ExceptionEi@Base 2.3.0~svn544
 _ZN7blocxx815SelectExceptionC2ERKS0_@Base 2.3.0~svn544
 _ZN7blocxx815SelectExceptionD0Ev@Base 2.3.0~svn544
 _ZN7blocxx815SelectExceptionD1Ev@Base 2.3.0~svn544
 _ZN7blocxx815SelectExceptionD2Ev@Base 2.3.0~svn544
 _ZN7blocxx815SocketExceptionC1EPKciS2_iPKNS_9ExceptionEi@Base 2.3.0~svn544
 _ZN7blocxx815SocketExceptionC1ERKS0_@Base 2.3.0~svn544
 _ZN7blocxx815SocketExceptionC2EPKciS2_iPKNS_9ExceptionEi@Base 2.3.0~svn544
 _ZN7blocxx815SocketExceptionC2ERKS0_@Base 2.3.0~svn544
 _ZN7blocxx815SocketExceptionD0Ev@Base 2.3.0~svn544
 _ZN7blocxx815SocketExceptionD1Ev@Base 2.3.0~svn544
 _ZN7blocxx815SocketExceptionD2Ev@Base 2.3.0~svn544
 _ZN7blocxx815SortedVectorMapINS_6StringES1_NS_26SortedVectorMapDataCompareIS1_S1_St4lessIS1_EEEE10equivalentERKS1_S8_@Base 2.3.0~svn544
 _ZN7blocxx815SortedVectorMapIiNS_12SelectEngine4DataENS_26SortedVectorMapDataCompareIiS2_St4lessIiEEEE10equivalentERKiS9_@Base 2.3.0~svn544
 _ZN7blocxx815SortedVectorMapIiNS_12SelectEngine4DataENS_26SortedVectorMapDataCompareIiS2_St4lessIiEEEE3endEv@Base 2.3.0~svn544
 _ZN7blocxx815SortedVectorMapIiNS_12SelectEngine4DataENS_26SortedVectorMapDataCompareIiS2_St4lessIiEEEE4findERKi@Base 2.3.0~svn544
 _ZN7blocxx815SortedVectorMapIiNS_12SelectEngine4DataENS_26SortedVectorMapDataCompareIiS2_St4lessIiEEEE5beginEv@Base 2.3.0~svn544
 _ZN7blocxx815SortedVectorMapIiNS_12SelectEngine4DataENS_26SortedVectorMapDataCompareIiS2_St4lessIiEEEE5eraseERKi@Base 2.3.0~svn544
 _ZN7blocxx815SortedVectorMapIiNS_12SelectEngine4DataENS_26SortedVectorMapDataCompareIiS2_St4lessIiEEEE6insertERKSt4pairIKiS2_E@Base 2.3.0~svn544
 _ZN7blocxx815SortedVectorMapIiNS_5ArrayINS_6StringEEENS_26SortedVectorMapDataCompareIiS3_St4lessIiEEEE10equivalentERKiSA_@Base 2.3.0~svn544
 _ZN7blocxx815SortedVectorMapIiNS_5ArrayINS_6StringEEENS_26SortedVectorMapDataCompareIiS3_St4lessIiEEEE5clearEv@Base 2.3.0~svn544
 _ZN7blocxx815SortedVectorMapIiNS_5ArrayINS_6StringEEENS_26SortedVectorMapDataCompareIiS3_St4lessIiEEEEC1ERKS8_@Base 2.3.0~svn544
 _ZN7blocxx815SortedVectorMapIiNS_5ArrayINS_6StringEEENS_26SortedVectorMapDataCompareIiS3_St4lessIiEEEEC1Ev@Base 2.3.0~svn544
 _ZN7blocxx815SortedVectorMapIiNS_5ArrayINS_6StringEEENS_26SortedVectorMapDataCompareIiS3_St4lessIiEEEEC2ERKS8_@Base 2.3.0~svn544
 _ZN7blocxx815SortedVectorMapIiNS_5ArrayINS_6StringEEENS_26SortedVectorMapDataCompareIiS3_St4lessIiEEEEC2Ev@Base 2.3.0~svn544
 _ZN7blocxx815SortedVectorMapIiNS_5ArrayINS_6StringEEENS_26SortedVectorMapDataCompareIiS3_St4lessIiEEEED1Ev@Base 2.3.0~svn544
 _ZN7blocxx815SortedVectorMapIiNS_5ArrayINS_6StringEEENS_26SortedVectorMapDataCompareIiS3_St4lessIiEEEED2Ev@Base 2.3.0~svn544
 _ZN7blocxx815SortedVectorMapIiNS_5ArrayINS_6StringEEENS_26SortedVectorMapDataCompareIiS3_St4lessIiEEEEaSERKS8_@Base 2.3.0~svn544
 _ZN7blocxx815SortedVectorMapIiNS_5ArrayINS_6StringEEENS_26SortedVectorMapDataCompareIiS3_St4lessIiEEEEixERKi@Base 2.3.0~svn544
 _ZN7blocxx815SortedVectorSetINS_6StringESt4lessIS1_EE10equivalentERKS1_S6_@Base 2.3.0~svn544
 _ZN7blocxx815SortedVectorSetINS_6StringESt4lessIS1_EEC1IN11__gnu_debug14_Safe_iteratorIN9__gnu_cxx17__normal_iteratorIPKS1_NSt9__cxx19986vectorIS1_SaIS1_EEEEENSt7__debug6vectorIS1_SE_EEEEEET_SL_@Base 2.3.0~svn544
 _ZN7blocxx815SortedVectorSetINS_6StringESt4lessIS1_EEC2IN11__gnu_debug14_Safe_iteratorIN9__gnu_cxx17__normal_iteratorIPKS1_NSt9__cxx19986vectorIS1_SaIS1_EEEEENSt7__debug6vectorIS1_SE_EEEEEET_SL_@Base 2.3.0~svn544
 _ZN7blocxx815SortedVectorSetINS_6StringESt4lessIS1_EED1Ev@Base 2.3.0~svn544
 _ZN7blocxx815SortedVectorSetINS_6StringESt4lessIS1_EED2Ev@Base 2.3.0~svn544
 _ZN7blocxx815ThreadExceptionC1EPKciS2_iPKNS_9ExceptionEi@Base 2.3.0~svn544
 _ZN7blocxx815ThreadExceptionC1ERKS0_@Base 2.3.0~svn544
 _ZN7blocxx815ThreadExceptionC2EPKciS2_iPKNS_9ExceptionEi@Base 2.3.0~svn544
 _ZN7blocxx815ThreadExceptionC2ERKS0_@Base 2.3.0~svn544
 _ZN7blocxx815ThreadExceptionD0Ev@Base 2.3.0~svn544
 _ZN7blocxx815ThreadExceptionD1Ev@Base 2.3.0~svn544
 _ZN7blocxx815ThreadExceptionD2Ev@Base 2.3.0~svn544
 _ZN7blocxx815dlSharedLibrary13isFakeLibraryERKNS_6StringE@Base 2.3.0~svn544
 _ZN7blocxx815dlSharedLibrary14s_call_dlcloseE@Base 2.3.0~svn544
 _ZN7blocxx815dlSharedLibraryC1EPvRKNS_6StringE@Base 2.3.0~svn544
 _ZN7blocxx815dlSharedLibraryC2EPvRKNS_6StringE@Base 2.3.0~svn544
 _ZN7blocxx815dlSharedLibraryD0Ev@Base 2.3.0~svn544
 _ZN7blocxx815dlSharedLibraryD1Ev@Base 2.3.0~svn544
 _ZN7blocxx815dlSharedLibraryD2Ev@Base 2.3.0~svn544
 _ZN7blocxx816AtomicDecAndTestERNS_8Atomic_tE@Base 2.3.0~svn544
 _ZN7blocxx816BaseStreamBuffer10buffer_outEv@Base 2.3.0~svn544
 _ZN7blocxx816BaseStreamBuffer11initBuffersEv@Base 2.3.0~svn544
 _ZN7blocxx816BaseStreamBuffer13initGetBufferEv@Base 2.3.0~svn544
 _ZN7blocxx816BaseStreamBuffer13initPutBufferEv@Base 2.3.0~svn544
 _ZN7blocxx816BaseStreamBuffer16buffer_to_deviceEPKci@Base 2.3.0~svn544
 _ZN7blocxx816BaseStreamBuffer18buffer_from_deviceEPci@Base 2.3.0~svn544
 _ZN7blocxx816BaseStreamBuffer4syncEv@Base 2.3.0~svn544
 _ZN7blocxx816BaseStreamBuffer6xsputnEPKcl@Base 2.3.0~svn544
 _ZN7blocxx816BaseStreamBuffer8overflowEi@Base 2.3.0~svn544
 _ZN7blocxx816BaseStreamBuffer9buffer_inEv@Base 2.3.0~svn544
 _ZN7blocxx816BaseStreamBuffer9underflowEv@Base 2.3.0~svn544
 _ZN7blocxx816BaseStreamBufferC1ENS0_14EDirectionFlagEm@Base 2.3.0~svn544
 _ZN7blocxx816BaseStreamBufferC2ENS0_14EDirectionFlagEm@Base 2.3.0~svn544
 _ZN7blocxx816BaseStreamBufferD0Ev@Base 2.3.0~svn544
 _ZN7blocxx816BaseStreamBufferD1Ev@Base 2.3.0~svn544
 _ZN7blocxx816BaseStreamBufferD2Ev@Base 2.3.0~svn544
 _ZN7blocxx816COWReferenceBase12getWriteLockEv@Base 2.3.0~svn544
 _ZN7blocxx816COWReferenceBase4swapERS0_@Base 2.3.0~svn544
 _ZN7blocxx816COWReferenceBase6decRefEv@Base 2.3.0~svn544
 _ZN7blocxx816COWReferenceBase6incRefEv@Base 2.3.0~svn544
 _ZN7blocxx816COWReferenceBaseC1ERKS0_@Base 2.3.0~svn544
 _ZN7blocxx816COWReferenceBaseC1Ev@Base 2.3.0~svn544
 _ZN7blocxx816COWReferenceBaseC2ERKS0_@Base 2.3.0~svn544
 _ZN7blocxx816COWReferenceBaseC2Ev@Base 2.3.0~svn544
 _ZN7blocxx816IStringStreamBuf9underflowEv@Base 2.3.0~svn544
 _ZN7blocxx816IStringStreamBufC1ERKNS_6StringE@Base 2.3.0~svn544
 _ZN7blocxx816IStringStreamBufC2ERKNS_6StringE@Base 2.3.0~svn544
 _ZN7blocxx816IStringStreamBufD0Ev@Base 2.3.0~svn544
 _ZN7blocxx816IStringStreamBufD1Ev@Base 2.3.0~svn544
 _ZN7blocxx816IStringStreamBufD2Ev@Base 2.3.0~svn544
 _ZN7blocxx816LogAppenderScopeC1ERKNS_18IntrusiveReferenceINS_11LogAppenderEEE@Base 2.3.0~svn544
 _ZN7blocxx816LogAppenderScopeC2ERKNS_18IntrusiveReferenceINS_11LogAppenderEEE@Base 2.3.0~svn544
 _ZN7blocxx816LogAppenderScopeD1Ev@Base 2.3.0~svn544
 _ZN7blocxx816LogAppenderScopeD2Ev@Base 2.3.0~svn544
 _ZN7blocxx816LogConfigOptions10g_defaultsE@Base 2.3.0~svn544
 _ZN7blocxx816LogConfigOptions13g_defaultsEndE@Base 2.3.0~svn544
 _ZN7blocxx816LogConfigOptions15LOG_1_FLUSH_optE@Base 2.3.0~svn544
 _ZN7blocxx816LogConfigOptions18LOG_1_LOCATION_optE@Base 2.3.0~svn544
 _ZN7blocxx816LogConfigOptions23LOG_1_MAX_FILE_SIZE_optE@Base 2.3.0~svn544
 _ZN7blocxx816LogConfigOptions25LOG_1_SYSLOG_FACILITY_optE@Base 2.3.0~svn544
 _ZN7blocxx816LogConfigOptions25LOG_1_SYSLOG_IDENTITY_optE@Base 2.3.0~svn544
 _ZN7blocxx816LogConfigOptions26LOG_1_MAX_BACKUP_INDEX_optE@Base 2.3.0~svn544
 _ZN7blocxx816OStringStreamBuf13releaseStringEv@Base 2.3.0~svn544
 _ZN7blocxx816OStringStreamBuf16buffer_to_deviceEPKci@Base 2.3.0~svn544
 _ZN7blocxx816OStringStreamBuf5resetEv@Base 2.3.0~svn544
 _ZN7blocxx816OStringStreamBufC1Em@Base 2.3.0~svn544
 _ZN7blocxx816OStringStreamBufC2Em@Base 2.3.0~svn544
 _ZN7blocxx816OStringStreamBufD0Ev@Base 2.3.0~svn544
 _ZN7blocxx816OStringStreamBufD1Ev@Base 2.3.0~svn544
 _ZN7blocxx816OStringStreamBufD2Ev@Base 2.3.0~svn544
 _ZN7blocxx816ParserOptionImplC1ERKNS_13CmdLineParser6OptionE@Base 2.3.0~svn544
 _ZN7blocxx816ParserOptionImplC1EicRKNS_6StringENS_13CmdLineParser17EArgumentTypeFlagEbS3_S3_NS4_25EOptionVisibilityTypeFlagE@Base 2.3.0~svn544
 _ZN7blocxx816ParserOptionImplC1Ev@Base 2.3.0~svn544
 _ZN7blocxx816ParserOptionImplC2ERKNS_13CmdLineParser6OptionE@Base 2.3.0~svn544
 _ZN7blocxx816ParserOptionImplC2EicRKNS_6StringENS_13CmdLineParser17EArgumentTypeFlagEbS3_S3_NS4_25EOptionVisibilityTypeFlagE@Base 2.3.0~svn544
 _ZN7blocxx816ParserOptionImplC2Ev@Base 2.3.0~svn544
 _ZN7blocxx816ParserOptionImplD0Ev@Base 2.3.0~svn544
 _ZN7blocxx816ParserOptionImplD1Ev@Base 2.3.0~svn544
 _ZN7blocxx816ParserOptionImplD2Ev@Base 2.3.0~svn544
 _ZN7blocxx816PosixUnnamedPipe11setBlockingENS_11UnnamedPipe13EBlockingModeE@Base 2.3.0~svn544
 _ZN7blocxx816PosixUnnamedPipe14passDescriptorEiRKNS_18IntrusiveReferenceINS_11UnnamedPipeEEERKNS1_INS_7ProcessEEE@Base 2.3.0~svn544
 _ZN7blocxx816PosixUnnamedPipe15setReadBlockingENS_11UnnamedPipe13EBlockingModeE@Base 2.3.0~svn544
 _ZN7blocxx816PosixUnnamedPipe16closeInputHandleEv@Base 2.3.0~svn544
 _ZN7blocxx816PosixUnnamedPipe16setWriteBlockingENS_11UnnamedPipe13EBlockingModeE@Base 2.3.0~svn544
 _ZN7blocxx816PosixUnnamedPipe17closeOutputHandleEv@Base 2.3.0~svn544
 _ZN7blocxx816PosixUnnamedPipe17receiveDescriptorERKNS_18IntrusiveReferenceINS_11UnnamedPipeEEE@Base 2.3.0~svn544
 _ZN7blocxx816PosixUnnamedPipe4openEv@Base 2.3.0~svn544
 _ZN7blocxx816PosixUnnamedPipe4readEPviNS_5IOIFC11ErrorActionE@Base 2.3.0~svn544
 _ZN7blocxx816PosixUnnamedPipe5closeEv@Base 2.3.0~svn544
 _ZN7blocxx816PosixUnnamedPipe5writeEPKviNS_5IOIFC11ErrorActionE@Base 2.3.0~svn544
 _ZN7blocxx816PosixUnnamedPipeC1ENS_11UnnamedPipe5EOpenE@Base 2.3.0~svn544
 _ZN7blocxx816PosixUnnamedPipeC1ENS_12AutoResourceINS_20AutoDescriptorPolicyEEES3_@Base 2.3.0~svn544
 _ZN7blocxx816PosixUnnamedPipeC2ENS_11UnnamedPipe5EOpenE@Base 2.3.0~svn544
 _ZN7blocxx816PosixUnnamedPipeC2ENS_12AutoResourceINS_20AutoDescriptorPolicyEEES3_@Base 2.3.0~svn544
 _ZN7blocxx816PosixUnnamedPipeD0Ev@Base 2.3.0~svn544
 _ZN7blocxx816PosixUnnamedPipeD1Ev@Base 2.3.0~svn544
 _ZN7blocxx816PosixUnnamedPipeD2Ev@Base 2.3.0~svn544
 _ZN7blocxx816ReferenceHelpers18throwNULLExceptionEv@Base 2.3.0~svn544
 _ZN7blocxx816ReferenceHelpers9checkNullEPKv@Base 2.3.0~svn544
 _ZN7blocxx816ServerSocketImpl11doListenUDSERKNS_6StringEib@Base 2.3.0~svn544
 _ZN7blocxx816ServerSocketImpl12doListenIPv4EtiRKNS_6StringE@Base 2.3.0~svn544
 _ZN7blocxx816ServerSocketImpl12doListenIPv6EtiRKNS_6StringE@Base 2.3.0~svn544
 _ZN7blocxx816ServerSocketImpl13fillAddrParmsEv@Base 2.3.0~svn544
 _ZN7blocxx816ServerSocketImpl15getLocalAddressEv@Base 2.3.0~svn544
 _ZN7blocxx816ServerSocketImpl5closeEv@Base 2.3.0~svn544
 _ZN7blocxx816ServerSocketImpl6acceptERKNS_7TimeoutE@Base 2.3.0~svn544
 _ZN7blocxx816ServerSocketImpl8doListenEtiRKNS_6StringENS_11SocketFlags14EReuseAddrFlagE@Base 2.3.0~svn544
 _ZN7blocxx816ServerSocketImplC1ENS_11SocketFlags8ESSLFlagE@Base 2.3.0~svn544
 _ZN7blocxx816ServerSocketImplC1ENS_18IntrusiveReferenceINS_12SSLServerCtxEEE@Base 2.3.0~svn544
 _ZN7blocxx816ServerSocketImplC2ENS_11SocketFlags8ESSLFlagE@Base 2.3.0~svn544
 _ZN7blocxx816ServerSocketImplC2ENS_18IntrusiveReferenceINS_12SSLServerCtxEEE@Base 2.3.0~svn544
 _ZN7blocxx816ServerSocketImplD0Ev@Base 2.3.0~svn544
 _ZN7blocxx816ServerSocketImplD1Ev@Base 2.3.0~svn544
 _ZN7blocxx816ServerSocketImplD2Ev@Base 2.3.0~svn544
 _ZN7blocxx816TimeoutExceptionC1EPKciS2_iPKNS_9ExceptionEi@Base 2.3.0~svn544
 _ZN7blocxx816TimeoutExceptionC1ERKS0_@Base 2.3.0~svn544
 _ZN7blocxx816TimeoutExceptionC2EPKciS2_iPKNS_9ExceptionEi@Base 2.3.0~svn544
 _ZN7blocxx816TimeoutExceptionC2ERKS0_@Base 2.3.0~svn544
 _ZN7blocxx816TimeoutExceptionD0Ev@Base 2.3.0~svn544
 _ZN7blocxx816TimeoutExceptionD1Ev@Base 2.3.0~svn544
 _ZN7blocxx816TimeoutExceptionD2Ev@Base 2.3.0~svn544
 _ZN7blocxx816WaitpidThreadFix12spawnProcessEPKcPKS2_S4_RNS_4Exec7PreExecE@Base 2.3.0~svn544
 _ZN7blocxx816WaitpidThreadFix25shouldUseWaitpidThreadFixEv@Base 2.3.0~svn544
 _ZN7blocxx816WaitpidThreadFix26setWaitpidThreadFixEnabledEb@Base 2.3.0~svn544
 _ZN7blocxx816WaitpidThreadFix7waitPidERKi@Base 2.3.0~svn544
 _ZN7blocxx816demangleTypeNameEPKc@Base 2.3.0~svn544
 _ZN7blocxx816demangleTypeNameINS_9ReferenceINS_12StringBufferEEEEENS_6StringERKT_@Base 2.3.0~svn544
 _ZN7blocxx816demangleTypeNameINS_9ReferenceINS_13DelayedFormatEEEEENS_6StringERKT_@Base 2.3.0~svn544
 _ZN7blocxx816demangleTypeNameINS_9ReferenceINS_22DelayedFormatInternals26DelayedFormatReferenceBaseEEEEENS_6StringERKT_@Base 2.3.0~svn544
 _ZN7blocxx817COWReferenceCloneI10regmatch_tEEPNSt7__debug6vectorIT_SaIS4_EEES7_@Base 2.3.0~svn544
 _ZN7blocxx817COWReferenceCloneINS_18IntrusiveReferenceINS_11LogAppenderEEEEEPNSt7__debug6vectorIT_SaIS6_EEES9_@Base 2.3.0~svn544
 _ZN7blocxx817COWReferenceCloneINS_18IntrusiveReferenceINS_16ParserOptionImplEEEEEPNSt7__debug6vectorIT_SaIS6_EEES9_@Base 2.3.0~svn544
 _ZN7blocxx817COWReferenceCloneINS_18IntrusiveReferenceINS_26LogMessagePatternFormatter9ConverterEEEEEPNSt7__debug6vectorIT_SaIS7_EEESA_@Base 2.3.0~svn544
 _ZN7blocxx817COWReferenceCloneINS_18IntrusiveReferenceINS_6ThreadEEEEEPNSt7__debug6vectorIT_SaIS6_EEES9_@Base 2.3.0~svn544
 _ZN7blocxx817COWReferenceCloneINS_18IntrusiveReferenceINS_7ProcessEEEEEPNSt7__debug6vectorIT_SaIS6_EEES9_@Base 2.3.0~svn544
 _ZN7blocxx817COWReferenceCloneINS_5ArrayIcEEEEPNSt7__debug6vectorIT_SaIS5_EEES8_@Base 2.3.0~svn544
 _ZN7blocxx817COWReferenceCloneINS_6Select12SelectObjectEEEPNSt7__debug6vectorIT_SaIS5_EEES8_@Base 2.3.0~svn544
 _ZN7blocxx817COWReferenceCloneINS_6StringEEEPNSt7__debug6vectorIT_SaIS4_EEES7_@Base 2.3.0~svn544
 _ZN7blocxx817COWReferenceCloneINS_6StringENS_13SSLTrustStore8UserInfoESt4lessIS1_EEEPNSt7__debug3mapIT_T0_T1_SaISt4pairIKS8_S9_EEEESG_@Base 2.3.0~svn544
 _ZN7blocxx817COWReferenceCloneINS_6StringES1_St4lessIS1_EEEPNSt7__debug3mapIT_T0_T1_SaISt4pairIKS6_S7_EEEESE_@Base 2.3.0~svn544
 _ZN7blocxx817COWReferenceCloneINS_9PerlRegEx7match_tEEEPNSt7__debug6vectorIT_SaIS5_EEES8_@Base 2.3.0~svn544
 _ZN7blocxx817COWReferenceCloneIPKcEEPNSt7__debug6vectorIT_SaIS5_EEES8_@Base 2.3.0~svn544
 _ZN7blocxx817COWReferenceCloneISt4pairINS_6StringENS_17EFileStatusReturnEEEEPNSt7__debug6vectorIT_SaIS7_EEESA_@Base 2.3.0~svn544
 _ZN7blocxx817COWReferenceCloneISt4pairIiNS_12SelectEngine4DataEEEEPNSt7__debug6vectorIT_SaIS7_EEESA_@Base 2.3.0~svn544
 _ZN7blocxx817COWReferenceCloneISt4pairIiNS_5ArrayINS_6StringEEEEEEPNSt7__debug6vectorIT_SaIS8_EEESB_@Base 2.3.0~svn544
 _ZN7blocxx817COWReferenceCloneIcEEPNSt7__debug6vectorIT_SaIS3_EEES6_@Base 2.3.0~svn544
 _ZN7blocxx817COWReferenceCloneIiEEPNSt7__debug6vectorIT_SaIS3_EEES6_@Base 2.3.0~svn544
 _ZN7blocxx817COWReferenceCloneItEEPNSt7__debug6vectorIT_SaIS3_EEES6_@Base 2.3.0~svn544
 _ZN7blocxx817DateTimeExceptionC1EPKciS2_iPKNS_9ExceptionEi@Base 2.3.0~svn544
 _ZN7blocxx817DateTimeExceptionC1ERKS0_@Base 2.3.0~svn544
 _ZN7blocxx817DateTimeExceptionC2EPKciS2_iPKNS_9ExceptionEi@Base 2.3.0~svn544
 _ZN7blocxx817DateTimeExceptionC2ERKS0_@Base 2.3.0~svn544
 _ZN7blocxx817DateTimeExceptionD0Ev@Base 2.3.0~svn544
 _ZN7blocxx817DateTimeExceptionD1Ev@Base 2.3.0~svn544
 _ZN7blocxx817DateTimeExceptionD2Ev@Base 2.3.0~svn544
 _ZN7blocxx817DeadlockExceptionC1EPKciS2_iPKNS_9ExceptionEi@Base 2.3.0~svn544
 _ZN7blocxx817DeadlockExceptionC1ERKS0_@Base 2.3.0~svn544
 _ZN7blocxx817DeadlockExceptionC2EPKciS2_iPKNS_9ExceptionEi@Base 2.3.0~svn544
 _ZN7blocxx817DeadlockExceptionC2ERKS0_@Base 2.3.0~svn544
 _ZN7blocxx817DeadlockExceptionD0Ev@Base 2.3.0~svn544
 _ZN7blocxx817DeadlockExceptionD1Ev@Base 2.3.0~svn544
 _ZN7blocxx817DeadlockExceptionD2Ev@Base 2.3.0~svn544
 _ZN7blocxx817GenericRWLockImplImNS_8RWLocker14ThreadComparerEE15acquireReadLockEmRKNS_7TimeoutE@Base 2.3.0~svn544
 _ZN7blocxx817GenericRWLockImplImNS_8RWLocker14ThreadComparerEE15releaseReadLockEm@Base 2.3.0~svn544
 _ZN7blocxx817GenericRWLockImplImNS_8RWLocker14ThreadComparerEE16acquireWriteLockEmRKNS_7TimeoutE@Base 2.3.0~svn544
 _ZN7blocxx817GenericRWLockImplImNS_8RWLocker14ThreadComparerEE16releaseWriteLockEm@Base 2.3.0~svn544
 _ZN7blocxx817GenericRWLockImplImNS_8RWLocker14ThreadComparerEEC1Ev@Base 2.3.0~svn544
 _ZN7blocxx817GenericRWLockImplImNS_8RWLocker14ThreadComparerEEC2Ev@Base 2.3.0~svn544
 _ZN7blocxx817GenericRWLockImplImNS_8RWLocker14ThreadComparerEED1Ev@Base 2.3.0~svn544
 _ZN7blocxx817GenericRWLockImplImNS_8RWLocker14ThreadComparerEED2Ev@Base 2.3.0~svn544
 _ZN7blocxx817IOIFCStreamBuffer14setErrorActionENS_5IOIFC11ErrorActionE@Base 2.3.0~svn544
 _ZN7blocxx817IOIFCStreamBuffer16buffer_to_deviceEPKci@Base 2.3.0~svn544
 _ZN7blocxx817IOIFCStreamBuffer18buffer_from_deviceEPci@Base 2.3.0~svn544
 _ZN7blocxx817IOIFCStreamBuffer3tieEPSt15basic_streambufIcSt11char_traitsIcEE@Base 2.3.0~svn544
 _ZN7blocxx817IOIFCStreamBuffer5resetEv@Base 2.3.0~svn544
 _ZN7blocxx817IOIFCStreamBufferC1EPNS_5IOIFCENS_16BaseStreamBuffer14EDirectionFlagEi@Base 2.3.0~svn544
 _ZN7blocxx817IOIFCStreamBufferC2EPNS_5IOIFCENS_16BaseStreamBuffer14EDirectionFlagEi@Base 2.3.0~svn544
 _ZN7blocxx817IOIFCStreamBufferD0Ev@Base 2.3.0~svn544
 _ZN7blocxx817IOIFCStreamBufferD1Ev@Base 2.3.0~svn544
 _ZN7blocxx817IOIFCStreamBufferD2Ev@Base 2.3.0~svn544
 _ZN7blocxx817IStringStreamBaseC1ERKNS_6StringE@Base 2.3.0~svn544
 _ZN7blocxx817IStringStreamBaseC2ERKNS_6StringE@Base 2.3.0~svn544
 _ZN7blocxx817IStringStreamBaseD1Ev@Base 2.3.0~svn544
 _ZN7blocxx817IStringStreamBaseD2Ev@Base 2.3.0~svn544
 _ZN7blocxx817NonRecursiveMutex16conditionPreWaitERNS_26NonRecursiveMutexLockStateE@Base 2.3.0~svn544
 _ZN7blocxx817NonRecursiveMutex17conditionPostWaitERNS_26NonRecursiveMutexLockStateE@Base 2.3.0~svn544
 _ZN7blocxx817NonRecursiveMutex7acquireEv@Base 2.3.0~svn544
 _ZN7blocxx817NonRecursiveMutex7releaseEv@Base 2.3.0~svn544
 _ZN7blocxx817NonRecursiveMutexC1Ev@Base 2.3.0~svn544
 _ZN7blocxx817NonRecursiveMutexC2Ev@Base 2.3.0~svn544
 _ZN7blocxx817NonRecursiveMutexD1Ev@Base 2.3.0~svn544
 _ZN7blocxx817NonRecursiveMutexD2Ev@Base 2.3.0~svn544
 _ZN7blocxx817OStringStreamBaseC1Em@Base 2.3.0~svn544
 _ZN7blocxx817OStringStreamBaseC2Em@Base 2.3.0~svn544
 _ZN7blocxx817OStringStreamBaseD1Ev@Base 2.3.0~svn544
 _ZN7blocxx817OStringStreamBaseD2Ev@Base 2.3.0~svn544
 _ZN7blocxx817RWLockerExceptionC1EPKciS2_iPKNS_9ExceptionEi@Base 2.3.0~svn544
 _ZN7blocxx817RWLockerExceptionC1ERKS0_@Base 2.3.0~svn544
 _ZN7blocxx817RWLockerExceptionC2EPKciS2_iPKNS_9ExceptionEi@Base 2.3.0~svn544
 _ZN7blocxx817RWLockerExceptionC2ERKS0_@Base 2.3.0~svn544
 _ZN7blocxx817RWLockerExceptionD0Ev@Base 2.3.0~svn544
 _ZN7blocxx817RWLockerExceptionD1Ev@Base 2.3.0~svn544
 _ZN7blocxx817RWLockerExceptionD2Ev@Base 2.3.0~svn544
 _ZN7blocxx817ThreadBarrierImpl4waitEv@Base 2.3.0~svn544
 _ZN7blocxx817ThreadBarrierImplC1Ej@Base 2.3.0~svn544
 _ZN7blocxx817ThreadBarrierImplC2Ej@Base 2.3.0~svn544
 _ZN7blocxx817ThreadBarrierImplD0Ev@Base 2.3.0~svn544
 _ZN7blocxx817ThreadBarrierImplD1Ev@Base 2.3.0~svn544
 _ZN7blocxx817ThreadBarrierImplD2Ev@Base 2.3.0~svn544
 _ZN7blocxx817ThreadSafeProcess13processStatusEv@Base 2.3.0~svn544
 _ZN7blocxx817ThreadSafeProcess13waitCloseTermERKNS_7TimeoutES3_S3_NS_7Process25ETerminationSelectionFlagE@Base 2.3.0~svn544
 _ZN7blocxx817ThreadSafeProcess13waitCloseTermEfff@Base 2.3.0~svn544
 _ZN7blocxx817ThreadSafeProcess7releaseEv@Base 2.3.0~svn544
 _ZN7blocxx817ThreadSafeProcessC1ERKNS_18IntrusiveReferenceINS_7ProcessEEE@Base 2.3.0~svn544
 _ZN7blocxx817ThreadSafeProcessC2ERKNS_18IntrusiveReferenceINS_7ProcessEEE@Base 2.3.0~svn544
 _ZN7blocxx817ThreadSafeProcessD0Ev@Base 2.3.0~svn544
 _ZN7blocxx817ThreadSafeProcessD1Ev@Base 2.3.0~svn544
 _ZN7blocxx817ThreadSafeProcessD2Ev@Base 2.3.0~svn544
 _ZN7blocxx817convertToRealTypeIdEET_RKNS_6StringE@Base 2.3.0~svn544
 _ZN7blocxx817convertToRealTypeIfEET_RKNS_6StringE@Base 2.3.0~svn544
 _ZN7blocxx817receiveDescriptorEi@Base 2.3.0~svn544
 _ZN7blocxx817receiveDescriptorEiPcm@Base 2.3.0~svn544
 _ZN7blocxx818AssertionExceptionC1EPKciS2_iPKNS_9ExceptionEi@Base 2.3.0~svn544
 _ZN7blocxx818AssertionExceptionC1ERKS0_@Base 2.3.0~svn544
 _ZN7blocxx818AssertionExceptionC2EPKciS2_iPKNS_9ExceptionEi@Base 2.3.0~svn544
 _ZN7blocxx818AssertionExceptionC2ERKS0_@Base 2.3.0~svn544
 _ZN7blocxx818AssertionExceptionD0Ev@Base 2.3.0~svn544
 _ZN7blocxx818AssertionExceptionD1Ev@Base 2.3.0~svn544
 _ZN7blocxx818AssertionExceptionD2Ev@Base 2.3.0~svn544
 _ZN7blocxx818ExecErrorExceptionC1EPKciS2_iPKNS_9ExceptionEi@Base 2.3.0~svn544
 _ZN7blocxx818ExecErrorExceptionC1ERKS0_@Base 2.3.0~svn544
 _ZN7blocxx818ExecErrorExceptionC2EPKciS2_iPKNS_9ExceptionEi@Base 2.3.0~svn544
 _ZN7blocxx818ExecErrorExceptionC2ERKS0_@Base 2.3.0~svn544
 _ZN7blocxx818ExecErrorExceptionD0Ev@Base 2.3.0~svn544
 _ZN7blocxx818ExecErrorExceptionD1Ev@Base 2.3.0~svn544
 _ZN7blocxx818ExecErrorExceptionD2Ev@Base 2.3.0~svn544
 _ZN7blocxx818IntrusiveReferenceINS_11LogAppenderEE4swapERS2_@Base 2.3.0~svn544
 _ZN7blocxx818IntrusiveReferenceINS_11LogAppenderEEC1EPS1_b@Base 2.3.0~svn544
 _ZN7blocxx818IntrusiveReferenceINS_11LogAppenderEEC1ERKS2_@Base 2.3.0~svn544
 _ZN7blocxx818IntrusiveReferenceINS_11LogAppenderEEC1Ev@Base 2.3.0~svn544
 _ZN7blocxx818IntrusiveReferenceINS_11LogAppenderEEC2EPS1_b@Base 2.3.0~svn544
 _ZN7blocxx818IntrusiveReferenceINS_11LogAppenderEEC2ERKS2_@Base 2.3.0~svn544
 _ZN7blocxx818IntrusiveReferenceINS_11LogAppenderEEC2Ev@Base 2.3.0~svn544
 _ZN7blocxx818IntrusiveReferenceINS_11LogAppenderEED1Ev@Base 2.3.0~svn544
 _ZN7blocxx818IntrusiveReferenceINS_11LogAppenderEED2Ev@Base 2.3.0~svn544
 _ZN7blocxx818IntrusiveReferenceINS_11LogAppenderEEaSEPS1_@Base 2.3.0~svn544
 _ZN7blocxx818IntrusiveReferenceINS_11LogAppenderEEaSERKS2_@Base 2.3.0~svn544
 _ZN7blocxx818IntrusiveReferenceINS_11ProcessImplEEC1EPS1_b@Base 2.3.0~svn544
 _ZN7blocxx818IntrusiveReferenceINS_11ProcessImplEEC1ERKS2_@Base 2.3.0~svn544
 _ZN7blocxx818IntrusiveReferenceINS_11ProcessImplEEC2EPS1_b@Base 2.3.0~svn544
 _ZN7blocxx818IntrusiveReferenceINS_11ProcessImplEEC2ERKS2_@Base 2.3.0~svn544
 _ZN7blocxx818IntrusiveReferenceINS_11ProcessImplEED1Ev@Base 2.3.0~svn544
 _ZN7blocxx818IntrusiveReferenceINS_11ProcessImplEED2Ev@Base 2.3.0~svn544
 _ZN7blocxx818IntrusiveReferenceINS_11UnnamedPipeEE4swapERS2_@Base 2.3.0~svn544
 _ZN7blocxx818IntrusiveReferenceINS_11UnnamedPipeEEC1EPS1_b@Base 2.3.0~svn544
 _ZN7blocxx818IntrusiveReferenceINS_11UnnamedPipeEEC1ERKS2_@Base 2.3.0~svn544
 _ZN7blocxx818IntrusiveReferenceINS_11UnnamedPipeEEC1Ev@Base 2.3.0~svn544
 _ZN7blocxx818IntrusiveReferenceINS_11UnnamedPipeEEC2EPS1_b@Base 2.3.0~svn544
 _ZN7blocxx818IntrusiveReferenceINS_11UnnamedPipeEEC2ERKS2_@Base 2.3.0~svn544
 _ZN7blocxx818IntrusiveReferenceINS_11UnnamedPipeEEC2Ev@Base 2.3.0~svn544
 _ZN7blocxx818IntrusiveReferenceINS_11UnnamedPipeEED1Ev@Base 2.3.0~svn544
 _ZN7blocxx818IntrusiveReferenceINS_11UnnamedPipeEED2Ev@Base 2.3.0~svn544
 _ZN7blocxx818IntrusiveReferenceINS_11UnnamedPipeEEaSEPS1_@Base 2.3.0~svn544
 _ZN7blocxx818IntrusiveReferenceINS_11UnnamedPipeEEaSERKS2_@Base 2.3.0~svn544
 _ZN7blocxx818IntrusiveReferenceINS_12SSLClientCtxEEC1ERKS2_@Base 2.3.0~svn544
 _ZN7blocxx818IntrusiveReferenceINS_12SSLClientCtxEEC1Ev@Base 2.3.0~svn544
 _ZN7blocxx818IntrusiveReferenceINS_12SSLClientCtxEEC2ERKS2_@Base 2.3.0~svn544
 _ZN7blocxx818IntrusiveReferenceINS_12SSLClientCtxEEC2Ev@Base 2.3.0~svn544
 _ZN7blocxx818IntrusiveReferenceINS_12SSLClientCtxEED1Ev@Base 2.3.0~svn544
 _ZN7blocxx818IntrusiveReferenceINS_12SSLClientCtxEED2Ev@Base 2.3.0~svn544
 _ZN7blocxx818IntrusiveReferenceINS_12SSLServerCtxEEC1ERKS2_@Base 2.3.0~svn544
 _ZN7blocxx818IntrusiveReferenceINS_12SSLServerCtxEEC1Ev@Base 2.3.0~svn544
 _ZN7blocxx818IntrusiveReferenceINS_12SSLServerCtxEEC2ERKS2_@Base 2.3.0~svn544
 _ZN7blocxx818IntrusiveReferenceINS_12SSLServerCtxEEC2Ev@Base 2.3.0~svn544
 _ZN7blocxx818IntrusiveReferenceINS_12SSLServerCtxEED1Ev@Base 2.3.0~svn544
 _ZN7blocxx818IntrusiveReferenceINS_12SSLServerCtxEED2Ev@Base 2.3.0~svn544
 _ZN7blocxx818IntrusiveReferenceINS_13MultiAppenderEEC1EPS1_b@Base 2.3.0~svn544
 _ZN7blocxx818IntrusiveReferenceINS_13MultiAppenderEEC2EPS1_b@Base 2.3.0~svn544
 _ZN7blocxx818IntrusiveReferenceINS_13MultiAppenderEED1Ev@Base 2.3.0~svn544
 _ZN7blocxx818IntrusiveReferenceINS_13MultiAppenderEED2Ev@Base 2.3.0~svn544
 _ZN7blocxx818IntrusiveReferenceINS_13SSLSocketImplEEC1EPS1_b@Base 2.3.0~svn544
 _ZN7blocxx818IntrusiveReferenceINS_13SSLSocketImplEEC2EPS1_b@Base 2.3.0~svn544
 _ZN7blocxx818IntrusiveReferenceINS_13SSLSocketImplEED1Ev@Base 2.3.0~svn544
 _ZN7blocxx818IntrusiveReferenceINS_13SSLSocketImplEED2Ev@Base 2.3.0~svn544
 _ZN7blocxx818IntrusiveReferenceINS_13SharedLibraryEEC1EPS1_b@Base 2.3.0~svn544
 _ZN7blocxx818IntrusiveReferenceINS_13SharedLibraryEEC2EPS1_b@Base 2.3.0~svn544
 _ZN7blocxx818IntrusiveReferenceINS_13ThreadCounterEEC1ERKS2_@Base 2.3.0~svn544
 _ZN7blocxx818IntrusiveReferenceINS_13ThreadCounterEEC2ERKS2_@Base 2.3.0~svn544
 _ZN7blocxx818IntrusiveReferenceINS_13ThreadCounterEED1Ev@Base 2.3.0~svn544
 _ZN7blocxx818IntrusiveReferenceINS_13ThreadCounterEED2Ev@Base 2.3.0~svn544
 _ZN7blocxx818IntrusiveReferenceINS_14SocketBaseImplEE4swapERS2_@Base 2.3.0~svn544
 _ZN7blocxx818IntrusiveReferenceINS_14SocketBaseImplEEC1EPS1_b@Base 2.3.0~svn544
 _ZN7blocxx818IntrusiveReferenceINS_14SocketBaseImplEEC1ERKS2_@Base 2.3.0~svn544
 _ZN7blocxx818IntrusiveReferenceINS_14SocketBaseImplEEC1Ev@Base 2.3.0~svn544
 _ZN7blocxx818IntrusiveReferenceINS_14SocketBaseImplEEC2EPS1_b@Base 2.3.0~svn544
 _ZN7blocxx818IntrusiveReferenceINS_14SocketBaseImplEEC2ERKS2_@Base 2.3.0~svn544
 _ZN7blocxx818IntrusiveReferenceINS_14SocketBaseImplEEC2Ev@Base 2.3.0~svn544
 _ZN7blocxx818IntrusiveReferenceINS_14SocketBaseImplEED1Ev@Base 2.3.0~svn544
 _ZN7blocxx818IntrusiveReferenceINS_14SocketBaseImplEED2Ev@Base 2.3.0~svn544
 _ZN7blocxx818IntrusiveReferenceINS_14SocketBaseImplEEaSERKS2_@Base 2.3.0~svn544
 _ZN7blocxx818IntrusiveReferenceINS_14ThreadPoolImplEE4swapERS2_@Base 2.3.0~svn544
 _ZN7blocxx818IntrusiveReferenceINS_14ThreadPoolImplEEC1EPS1_b@Base 2.3.0~svn544
 _ZN7blocxx818IntrusiveReferenceINS_14ThreadPoolImplEEC1ERKS2_@Base 2.3.0~svn544
 _ZN7blocxx818IntrusiveReferenceINS_14ThreadPoolImplEEC1Ev@Base 2.3.0~svn544
 _ZN7blocxx818IntrusiveReferenceINS_14ThreadPoolImplEEC2EPS1_b@Base 2.3.0~svn544
 _ZN7blocxx818IntrusiveReferenceINS_14ThreadPoolImplEEC2ERKS2_@Base 2.3.0~svn544
 _ZN7blocxx818IntrusiveReferenceINS_14ThreadPoolImplEEC2Ev@Base 2.3.0~svn544
 _ZN7blocxx818IntrusiveReferenceINS_14ThreadPoolImplEED1Ev@Base 2.3.0~svn544
 _ZN7blocxx818IntrusiveReferenceINS_14ThreadPoolImplEED2Ev@Base 2.3.0~svn544
 _ZN7blocxx818IntrusiveReferenceINS_14ThreadPoolImplEEaSEPS1_@Base 2.3.0~svn544
 _ZN7blocxx818IntrusiveReferenceINS_14ThreadPoolImplEEaSERKS2_@Base 2.3.0~svn544
 _ZN7blocxx818IntrusiveReferenceINS_16ParserOptionImplEE4swapERS2_@Base 2.3.0~svn544
 _ZN7blocxx818IntrusiveReferenceINS_16ParserOptionImplEEC1EPS1_b@Base 2.3.0~svn544
 _ZN7blocxx818IntrusiveReferenceINS_16ParserOptionImplEEC1ERKS2_@Base 2.3.0~svn544
 _ZN7blocxx818IntrusiveReferenceINS_16ParserOptionImplEEC2EPS1_b@Base 2.3.0~svn544
 _ZN7blocxx818IntrusiveReferenceINS_16ParserOptionImplEEC2ERKS2_@Base 2.3.0~svn544
 _ZN7blocxx818IntrusiveReferenceINS_16ParserOptionImplEED1Ev@Base 2.3.0~svn544
 _ZN7blocxx818IntrusiveReferenceINS_16ParserOptionImplEED2Ev@Base 2.3.0~svn544
 _ZN7blocxx818IntrusiveReferenceINS_16ParserOptionImplEEaSERKS2_@Base 2.3.0~svn544
 _ZN7blocxx818IntrusiveReferenceINS_16PosixUnnamedPipeEE4swapERS2_@Base 2.3.0~svn544
 _ZN7blocxx818IntrusiveReferenceINS_16PosixUnnamedPipeEEC1EPS1_b@Base 2.3.0~svn544
 _ZN7blocxx818IntrusiveReferenceINS_16PosixUnnamedPipeEEC1ERKS2_@Base 2.3.0~svn544
 _ZN7blocxx818IntrusiveReferenceINS_16PosixUnnamedPipeEEC1Ev@Base 2.3.0~svn544
 _ZN7blocxx818IntrusiveReferenceINS_16PosixUnnamedPipeEEC2EPS1_b@Base 2.3.0~svn544
 _ZN7blocxx818IntrusiveReferenceINS_16PosixUnnamedPipeEEC2ERKS2_@Base 2.3.0~svn544
 _ZN7blocxx818IntrusiveReferenceINS_16PosixUnnamedPipeEEC2Ev@Base 2.3.0~svn544
 _ZN7blocxx818IntrusiveReferenceINS_16PosixUnnamedPipeEED1Ev@Base 2.3.0~svn544
 _ZN7blocxx818IntrusiveReferenceINS_16PosixUnnamedPipeEED2Ev@Base 2.3.0~svn544
 _ZN7blocxx818IntrusiveReferenceINS_16PosixUnnamedPipeEEaSERKS2_@Base 2.3.0~svn544
 _ZN7blocxx818IntrusiveReferenceINS_16ServerSocketImplEEC1EPS1_b@Base 2.3.0~svn544
 _ZN7blocxx818IntrusiveReferenceINS_16ServerSocketImplEEC1ERKS2_@Base 2.3.0~svn544
 _ZN7blocxx818IntrusiveReferenceINS_16ServerSocketImplEEC2EPS1_b@Base 2.3.0~svn544
 _ZN7blocxx818IntrusiveReferenceINS_16ServerSocketImplEEC2ERKS2_@Base 2.3.0~svn544
 _ZN7blocxx818IntrusiveReferenceINS_16ServerSocketImplEED1Ev@Base 2.3.0~svn544
 _ZN7blocxx818IntrusiveReferenceINS_16ServerSocketImplEED2Ev@Base 2.3.0~svn544
 _ZN7blocxx818IntrusiveReferenceINS_17ThreadBarrierImplEE4swapERS2_@Base 2.3.0~svn544
 _ZN7blocxx818IntrusiveReferenceINS_17ThreadBarrierImplEEC1EPS1_b@Base 2.3.0~svn544
 _ZN7blocxx818IntrusiveReferenceINS_17ThreadBarrierImplEEC1ERKS2_@Base 2.3.0~svn544
 _ZN7blocxx818IntrusiveReferenceINS_17ThreadBarrierImplEEC2EPS1_b@Base 2.3.0~svn544
 _ZN7blocxx818IntrusiveReferenceINS_17ThreadBarrierImplEEC2ERKS2_@Base 2.3.0~svn544
 _ZN7blocxx818IntrusiveReferenceINS_17ThreadBarrierImplEED1Ev@Base 2.3.0~svn544
 _ZN7blocxx818IntrusiveReferenceINS_17ThreadBarrierImplEED2Ev@Base 2.3.0~svn544
 _ZN7blocxx818IntrusiveReferenceINS_17ThreadBarrierImplEEaSERKS2_@Base 2.3.0~svn544
 _ZN7blocxx818IntrusiveReferenceINS_18ThreadDoneCallbackEEC1EPS1_b@Base 2.3.0~svn544
 _ZN7blocxx818IntrusiveReferenceINS_18ThreadDoneCallbackEEC1ERKS2_@Base 2.3.0~svn544
 _ZN7blocxx818IntrusiveReferenceINS_18ThreadDoneCallbackEEC2EPS1_b@Base 2.3.0~svn544
 _ZN7blocxx818IntrusiveReferenceINS_18ThreadDoneCallbackEEC2ERKS2_@Base 2.3.0~svn544
 _ZN7blocxx818IntrusiveReferenceINS_18ThreadDoneCallbackEED1Ev@Base 2.3.0~svn544
 _ZN7blocxx818IntrusiveReferenceINS_18ThreadDoneCallbackEED2Ev@Base 2.3.0~svn544
 _ZN7blocxx818IntrusiveReferenceINS_19SharedLibraryLoaderEEC1EPS1_b@Base 2.3.0~svn544
 _ZN7blocxx818IntrusiveReferenceINS_19SharedLibraryLoaderEEC2EPS1_b@Base 2.3.0~svn544
 _ZN7blocxx818IntrusiveReferenceINS_21SelectableCallbackIFCEE4swapERS2_@Base 2.3.0~svn544
 _ZN7blocxx818IntrusiveReferenceINS_21SelectableCallbackIFCEEC1ERKS2_@Base 2.3.0~svn544
 _ZN7blocxx818IntrusiveReferenceINS_21SelectableCallbackIFCEEC2ERKS2_@Base 2.3.0~svn544
 _ZN7blocxx818IntrusiveReferenceINS_21SelectableCallbackIFCEED1Ev@Base 2.3.0~svn544
 _ZN7blocxx818IntrusiveReferenceINS_21SelectableCallbackIFCEED2Ev@Base 2.3.0~svn544
 _ZN7blocxx818IntrusiveReferenceINS_21SelectableCallbackIFCEEaSERKS2_@Base 2.3.0~svn544
 _ZN7blocxx818IntrusiveReferenceINS_26LogMessagePatternFormatter9ConverterEE4swapERS3_@Base 2.3.0~svn544
 _ZN7blocxx818IntrusiveReferenceINS_26LogMessagePatternFormatter9ConverterEEC1EPS2_b@Base 2.3.0~svn544
 _ZN7blocxx818IntrusiveReferenceINS_26LogMessagePatternFormatter9ConverterEEC1ERKS3_@Base 2.3.0~svn544
 _ZN7blocxx818IntrusiveReferenceINS_26LogMessagePatternFormatter9ConverterEEC1Ev@Base 2.3.0~svn544
 _ZN7blocxx818IntrusiveReferenceINS_26LogMessagePatternFormatter9ConverterEEC2EPS2_b@Base 2.3.0~svn544
 _ZN7blocxx818IntrusiveReferenceINS_26LogMessagePatternFormatter9ConverterEEC2ERKS3_@Base 2.3.0~svn544
 _ZN7blocxx818IntrusiveReferenceINS_26LogMessagePatternFormatter9ConverterEEC2Ev@Base 2.3.0~svn544
 _ZN7blocxx818IntrusiveReferenceINS_26LogMessagePatternFormatter9ConverterEED1Ev@Base 2.3.0~svn544
 _ZN7blocxx818IntrusiveReferenceINS_26LogMessagePatternFormatter9ConverterEED2Ev@Base 2.3.0~svn544
 _ZN7blocxx818IntrusiveReferenceINS_26LogMessagePatternFormatter9ConverterEEaSEPS2_@Base 2.3.0~svn544
 _ZN7blocxx818IntrusiveReferenceINS_26LogMessagePatternFormatter9ConverterEEaSERKS3_@Base 2.3.0~svn544
 _ZN7blocxx818IntrusiveReferenceINS_6ThreadEE4swapERS2_@Base 2.3.0~svn544
 _ZN7blocxx818IntrusiveReferenceINS_6ThreadEEC1EPS1_b@Base 2.3.0~svn544
 _ZN7blocxx818IntrusiveReferenceINS_6ThreadEEC1ERKS2_@Base 2.3.0~svn544
 _ZN7blocxx818IntrusiveReferenceINS_6ThreadEEC1Ev@Base 2.3.0~svn544
 _ZN7blocxx818IntrusiveReferenceINS_6ThreadEEC2EPS1_b@Base 2.3.0~svn544
 _ZN7blocxx818IntrusiveReferenceINS_6ThreadEEC2ERKS2_@Base 2.3.0~svn544
 _ZN7blocxx818IntrusiveReferenceINS_6ThreadEEC2Ev@Base 2.3.0~svn544
 _ZN7blocxx818IntrusiveReferenceINS_6ThreadEED1Ev@Base 2.3.0~svn544
 _ZN7blocxx818IntrusiveReferenceINS_6ThreadEED2Ev@Base 2.3.0~svn544
 _ZN7blocxx818IntrusiveReferenceINS_6ThreadEEaSERKS2_@Base 2.3.0~svn544
 _ZN7blocxx818IntrusiveReferenceINS_7ProcessEE4swapERS2_@Base 2.3.0~svn544
 _ZN7blocxx818IntrusiveReferenceINS_7ProcessEEC1EPS1_b@Base 2.3.0~svn544
 _ZN7blocxx818IntrusiveReferenceINS_7ProcessEEC1ERKS2_@Base 2.3.0~svn544
 _ZN7blocxx818IntrusiveReferenceINS_7ProcessEEC1Ev@Base 2.3.0~svn544
 _ZN7blocxx818IntrusiveReferenceINS_7ProcessEEC2EPS1_b@Base 2.3.0~svn544
 _ZN7blocxx818IntrusiveReferenceINS_7ProcessEEC2ERKS2_@Base 2.3.0~svn544
 _ZN7blocxx818IntrusiveReferenceINS_7ProcessEEC2Ev@Base 2.3.0~svn544
 _ZN7blocxx818IntrusiveReferenceINS_7ProcessEED1Ev@Base 2.3.0~svn544
 _ZN7blocxx818IntrusiveReferenceINS_7ProcessEED2Ev@Base 2.3.0~svn544
 _ZN7blocxx818IntrusiveReferenceINS_7ProcessEEaSERKS2_@Base 2.3.0~svn544
 _ZN7blocxx818IntrusiveReferenceINS_8RunnableEE4swapERS2_@Base 2.3.0~svn544
 _ZN7blocxx818IntrusiveReferenceINS_8RunnableEEC1EPS1_b@Base 2.3.0~svn544
 _ZN7blocxx818IntrusiveReferenceINS_8RunnableEEC1ERKS2_@Base 2.3.0~svn544
 _ZN7blocxx818IntrusiveReferenceINS_8RunnableEEC1Ev@Base 2.3.0~svn544
 _ZN7blocxx818IntrusiveReferenceINS_8RunnableEEC2EPS1_b@Base 2.3.0~svn544
 _ZN7blocxx818IntrusiveReferenceINS_8RunnableEEC2ERKS2_@Base 2.3.0~svn544
 _ZN7blocxx818IntrusiveReferenceINS_8RunnableEEC2Ev@Base 2.3.0~svn544
 _ZN7blocxx818IntrusiveReferenceINS_8RunnableEED1Ev@Base 2.3.0~svn544
 _ZN7blocxx818IntrusiveReferenceINS_8RunnableEED2Ev@Base 2.3.0~svn544
 _ZN7blocxx818IntrusiveReferenceINS_8RunnableEEaSEPS1_@Base 2.3.0~svn544
 _ZN7blocxx818IntrusiveReferenceINS_8RunnableEEaSERKS2_@Base 2.3.0~svn544
 _ZN7blocxx818NULLValueExceptionC1EPKciS2_iPKNS_9ExceptionEi@Base 2.3.0~svn544
 _ZN7blocxx818NULLValueExceptionC1ERKS0_@Base 2.3.0~svn544
 _ZN7blocxx818NULLValueExceptionC2EPKciS2_iPKNS_9ExceptionEi@Base 2.3.0~svn544
 _ZN7blocxx818NULLValueExceptionC2ERKS0_@Base 2.3.0~svn544
 _ZN7blocxx818NULLValueExceptionD0Ev@Base 2.3.0~svn544
 _ZN7blocxx818NULLValueExceptionD1Ev@Base 2.3.0~svn544
 _ZN7blocxx818NULLValueExceptionD2Ev@Base 2.3.0~svn544
 _ZN7blocxx818SocketStreamBufferC1EPNS_14SocketBaseImplE@Base 2.3.0~svn544
 _ZN7blocxx818SocketStreamBufferC2EPNS_14SocketBaseImplE@Base 2.3.0~svn544
 _ZN7blocxx818SocketStreamBufferD0Ev@Base 2.3.0~svn544
 _ZN7blocxx818SocketStreamBufferD1Ev@Base 2.3.0~svn544
 _ZN7blocxx818SocketStreamBufferD2Ev@Base 2.3.0~svn544
 _ZN7blocxx818ThreadDoneCallback16notifyThreadDoneEPNS_6ThreadE@Base 2.3.0~svn544
 _ZN7blocxx818ThreadDoneCallbackC1Ev@Base 2.3.0~svn544
 _ZN7blocxx818ThreadDoneCallbackC2Ev@Base 2.3.0~svn544
 _ZN7blocxx818ThreadDoneCallbackD0Ev@Base 2.3.0~svn544
 _ZN7blocxx818ThreadDoneCallbackD1Ev@Base 2.3.0~svn544
 _ZN7blocxx818ThreadDoneCallbackD2Ev@Base 2.3.0~svn544
 _ZN7blocxx819BinarySerialization10writeArrayINS_5ArrayINS_6StringEEEEEvRSt15basic_streambufIcSt11char_traitsIcEERKT_@Base 2.3.0~svn544
 _ZN7blocxx819BinarySerialization15verifySignatureERSt15basic_streambufIcSt11char_traitsIcEEh@Base 2.3.0~svn544
 _ZN7blocxx819BinarySerialization16writeStringArrayERSt15basic_streambufIcSt11char_traitsIcEEPKNS_5ArrayINS_6StringEEE@Base 2.3.0~svn544
 _ZN7blocxx819BinarySerialization16writeStringArrayERSt15basic_streambufIcSt11char_traitsIcEERKNS_5ArrayINS_6StringEEE@Base 2.3.0~svn544
 _ZN7blocxx819BinarySerialization4readERSt15basic_streambufIcSt11char_traitsIcEEPvm@Base 2.3.0~svn544
 _ZN7blocxx819BinarySerialization4readERSt15basic_streambufIcSt11char_traitsIcEERh@Base 2.3.0~svn544
 _ZN7blocxx819BinarySerialization4readERSt15basic_streambufIcSt11char_traitsIcEERt@Base 2.3.0~svn544
 _ZN7blocxx819BinarySerialization5writeERSt15basic_streambufIcSt11char_traitsIcEEPKvm@Base 2.3.0~svn544
 _ZN7blocxx819BinarySerialization5writeERSt15basic_streambufIcSt11char_traitsIcEEh@Base 2.3.0~svn544
 _ZN7blocxx819BinarySerialization5writeERSt15basic_streambufIcSt11char_traitsIcEEt@Base 2.3.0~svn544
 _ZN7blocxx819BinarySerialization7readLenERSt15basic_streambufIcSt11char_traitsIcEERj@Base 2.3.0~svn544
 _ZN7blocxx819BinarySerialization8writeLenERSt15basic_streambufIcSt11char_traitsIcEEj@Base 2.3.0~svn544
 _ZN7blocxx819BinarySerialization9writeBoolERSt15basic_streambufIcSt11char_traitsIcEENS_4BoolE@Base 2.3.0~svn544
 _ZN7blocxx819FileSystemExceptionC1EPKciS2_iPKNS_9ExceptionEi@Base 2.3.0~svn544
 _ZN7blocxx819FileSystemExceptionC1ERKS0_@Base 2.3.0~svn544
 _ZN7blocxx819FileSystemExceptionC2EPKciS2_iPKNS_9ExceptionEi@Base 2.3.0~svn544
 _ZN7blocxx819FileSystemExceptionC2ERKS0_@Base 2.3.0~svn544
 _ZN7blocxx819FileSystemExceptionD0Ev@Base 2.3.0~svn544
 _ZN7blocxx819FileSystemExceptionD1Ev@Base 2.3.0~svn544
 _ZN7blocxx819FileSystemExceptionD2Ev@Base 2.3.0~svn544
 _ZN7blocxx819SecureRandExceptionC1EPKciS2_iPKNS_9ExceptionEi@Base 2.3.0~svn544
 _ZN7blocxx819SecureRandExceptionC1ERKS0_@Base 2.3.0~svn544
 _ZN7blocxx819SecureRandExceptionC2EPKciS2_iPKNS_9ExceptionEi@Base 2.3.0~svn544
 _ZN7blocxx819SecureRandExceptionC2ERKS0_@Base 2.3.0~svn544
 _ZN7blocxx819SecureRandExceptionD0Ev@Base 2.3.0~svn544
 _ZN7blocxx819SecureRandExceptionD1Ev@Base 2.3.0~svn544
 _ZN7blocxx819SecureRandExceptionD2Ev@Base 2.3.0~svn544
 _ZN7blocxx819SelectEngineStopper10doSelectedERiNS_21SelectableCallbackIFC10EEventTypeE@Base 2.3.0~svn544
 _ZN7blocxx819SelectEngineStopperC1ERNS_12SelectEngineE@Base 2.3.0~svn544
 _ZN7blocxx819SelectEngineStopperC2ERNS_12SelectEngineE@Base 2.3.0~svn544
 _ZN7blocxx819SelectEngineStopperD0Ev@Base 2.3.0~svn544
 _ZN7blocxx819SelectEngineStopperD1Ev@Base 2.3.0~svn544
 _ZN7blocxx819SharedLibraryLoader25createSharedLibraryLoaderEv@Base 2.3.0~svn544
 _ZN7blocxx819SharedLibraryLoaderC1Ev@Base 2.3.0~svn544
 _ZN7blocxx819SharedLibraryLoaderC2Ev@Base 2.3.0~svn544
 _ZN7blocxx819SharedLibraryLoaderD0Ev@Base 2.3.0~svn544
 _ZN7blocxx819SharedLibraryLoaderD1Ev@Base 2.3.0~svn544
 _ZN7blocxx819SharedLibraryLoaderD2Ev@Base 2.3.0~svn544
 _ZN7blocxx819ThreadPoolExceptionC1EPKciS2_iPKNS_9ExceptionEi@Base 2.3.0~svn544
 _ZN7blocxx819ThreadPoolExceptionC1ERKS0_@Base 2.3.0~svn544
 _ZN7blocxx819ThreadPoolExceptionC2EPKciS2_iPKNS_9ExceptionEi@Base 2.3.0~svn544
 _ZN7blocxx819ThreadPoolExceptionC2ERKS0_@Base 2.3.0~svn544
 _ZN7blocxx819ThreadPoolExceptionD0Ev@Base 2.3.0~svn544
 _ZN7blocxx819ThreadPoolExceptionD1Ev@Base 2.3.0~svn544
 _ZN7blocxx819ThreadPoolExceptionD2Ev@Base 2.3.0~svn544
 _ZN7blocxx820AutoDescriptorPolicy4freeEi@Base 2.3.0~svn544
 _ZN7blocxx820AutoDescriptorPolicy4nullEv@Base 2.3.0~svn544
 _ZN7blocxx820AutoDescriptorPolicy5equalEii@Base 2.3.0~svn544
 _ZN7blocxx820EnumerationExceptionC1EPKciS2_iPKNS_9ExceptionEi@Base 2.3.0~svn544
 _ZN7blocxx820EnumerationExceptionC1ERKS0_@Base 2.3.0~svn544
 _ZN7blocxx820EnumerationExceptionC2EPKciS2_iPKNS_9ExceptionEi@Base 2.3.0~svn544
 _ZN7blocxx820EnumerationExceptionC2ERKS0_@Base 2.3.0~svn544
 _ZN7blocxx820EnumerationExceptionD0Ev@Base 2.3.0~svn544
 _ZN7blocxx820EnumerationExceptionD1Ev@Base 2.3.0~svn544
 _ZN7blocxx820EnumerationExceptionD2Ev@Base 2.3.0~svn544
 _ZN7blocxx820ExecTimeoutExceptionC1EPKciS2_iPKNS_9ExceptionEi@Base 2.3.0~svn544
 _ZN7blocxx820ExecTimeoutExceptionC1ERKS0_@Base 2.3.0~svn544
 _ZN7blocxx820ExecTimeoutExceptionC2EPKciS2_iPKNS_9ExceptionEi@Base 2.3.0~svn544
 _ZN7blocxx820ExecTimeoutExceptionC2ERKS0_@Base 2.3.0~svn544
 _ZN7blocxx820ExecTimeoutExceptionD0Ev@Base 2.3.0~svn544
 _ZN7blocxx820ExecTimeoutExceptionD1Ev@Base 2.3.0~svn544
 _ZN7blocxx820ExecTimeoutExceptionD2Ev@Base 2.3.0~svn544
 _ZN7blocxx820FileSystemMockObject10createFileERKNS_6StringE@Base 2.3.0~svn544
 _ZN7blocxx820FileSystemMockObject10removeFileERKNS_6StringE@Base 2.3.0~svn544
 _ZN7blocxx820FileSystemMockObject10renameFileERKNS_6StringES3_@Base 2.3.0~svn544
 _ZN7blocxx820FileSystemMockObject11getFileSizeERKNS_6StringERl@Base 2.3.0~svn544
 _ZN7blocxx820FileSystemMockObject11isDirectoryERKNS_6StringE@Base 2.3.0~svn544
 _ZN7blocxx820FileSystemMockObject12getFileLinesERKNS_6StringE@Base 2.3.0~svn544
 _ZN7blocxx820FileSystemMockObject12isExecutableERKNS_6StringE@Base 2.3.0~svn544
 _ZN7blocxx820FileSystemMockObject13makeDirectoryERKNS_6StringEi@Base 2.3.0~svn544
 _ZN7blocxx820FileSystemMockObject14createTempFileERKNS_6StringE@Base 2.3.0~svn544
 _ZN7blocxx820FileSystemMockObject14createTempFileERNS_6StringERKS1_@Base 2.3.0~svn544
 _ZN7blocxx820FileSystemMockObject15changeDirectoryERKNS_6StringE@Base 2.3.0~svn544
 _ZN7blocxx820FileSystemMockObject15changeFileOwnerERKNS_6StringERKj@Base 2.3.0~svn544
 _ZN7blocxx820FileSystemMockObject15getFileContentsERKNS_6StringE@Base 2.3.0~svn544
 _ZN7blocxx820FileSystemMockObject15removeDirectoryERKNS_6StringE@Base 2.3.0~svn544
 _ZN7blocxx820FileSystemMockObject16openOrCreateFileERKNS_6StringE@Base 2.3.0~svn544
 _ZN7blocxx820FileSystemMockObject16readSymbolicLinkERKNS_6StringE@Base 2.3.0~svn544
 _ZN7blocxx820FileSystemMockObject18getFileInformationERKNS_6StringE@Base 2.3.0~svn544
 _ZN7blocxx820FileSystemMockObject20getDirectoryContentsERKNS_6StringERNS_5ArrayIS1_EE@Base 2.3.0~svn544
 _ZN7blocxx820FileSystemMockObject25openForAppendOrCreateFileERKNS_6StringE@Base 2.3.0~svn544
 _ZN7blocxx820FileSystemMockObject26getCurrentWorkingDirectoryEv@Base 2.3.0~svn544
 _ZN7blocxx820FileSystemMockObject4readERKiPvml@Base 2.3.0~svn544
 _ZN7blocxx820FileSystemMockObject4seekERKili@Base 2.3.0~svn544
 _ZN7blocxx820FileSystemMockObject4tellERKi@Base 2.3.0~svn544
 _ZN7blocxx820FileSystemMockObject5closeERKi@Base 2.3.0~svn544
 _ZN7blocxx820FileSystemMockObject5flushERi@Base 2.3.0~svn544
 _ZN7blocxx820FileSystemMockObject5writeEiPKvml@Base 2.3.0~svn544
 _ZN7blocxx820FileSystemMockObject6existsERKNS_6StringE@Base 2.3.0~svn544
 _ZN7blocxx820FileSystemMockObject6isLinkERKNS_6StringE@Base 2.3.0~svn544
 _ZN7blocxx820FileSystemMockObject6rewindERKi@Base 2.3.0~svn544
 _ZN7blocxx820FileSystemMockObject7canReadERKNS_6StringE@Base 2.3.0~svn544
 _ZN7blocxx820FileSystemMockObject7dirnameERKNS_6StringE@Base 2.3.0~svn544
 _ZN7blocxx820FileSystemMockObject8basenameERKNS_6StringE@Base 2.3.0~svn544
 _ZN7blocxx820FileSystemMockObject8canWriteERKNS_6StringE@Base 2.3.0~svn544
 _ZN7blocxx820FileSystemMockObject8fileSizeEi@Base 2.3.0~svn544
 _ZN7blocxx820FileSystemMockObject8openFileERKNS_6StringE@Base 2.3.0~svn544
 _ZN7blocxx820FileSystemMockObject8openFileERKNS_6StringENS_10FileSystem13EOpenModeFlagE@Base 2.3.0~svn544
 _ZN7blocxx820FileSystemMockObject8realPathERKNS_6StringE@Base 2.3.0~svn544
 _ZN7blocxx820FileSystemMockObject8securityERKNS_6StringE@Base 2.3.0~svn544
 _ZN7blocxx820FileSystemMockObject8securityERKNS_6StringES3_@Base 2.3.0~svn544
 _ZN7blocxx820FileSystemMockObject8securityERKNS_6StringES3_j@Base 2.3.0~svn544
 _ZN7blocxx820FileSystemMockObject8securityERKNS_6StringEj@Base 2.3.0~svn544
 _ZN7blocxx820FileSystemMockObjectD0Ev@Base 2.3.0~svn544
 _ZN7blocxx820FileSystemMockObjectD1Ev@Base 2.3.0~svn544
 _ZN7blocxx820FileSystemMockObjectD2Ev@Base 2.3.0~svn544
 _ZN7blocxx820InvalidUTF8ExceptionC1EPKciS2_iPKNS_9ExceptionEi@Base 2.3.0~svn544
 _ZN7blocxx820InvalidUTF8ExceptionC1ERKS0_@Base 2.3.0~svn544
 _ZN7blocxx820InvalidUTF8ExceptionC2EPKciS2_iPKNS_9ExceptionEi@Base 2.3.0~svn544
 _ZN7blocxx820InvalidUTF8ExceptionC2ERKS0_@Base 2.3.0~svn544
 _ZN7blocxx820InvalidUTF8ExceptionD0Ev@Base 2.3.0~svn544
 _ZN7blocxx820InvalidUTF8ExceptionD1Ev@Base 2.3.0~svn544
 _ZN7blocxx820InvalidUTF8ExceptionD2Ev@Base 2.3.0~svn544
 _ZN7blocxx820OutOfBoundsExceptionC1EPKciS2_iPKNS_9ExceptionEi@Base 2.3.0~svn544
 _ZN7blocxx820OutOfBoundsExceptionC1ERKS0_@Base 2.3.0~svn544
 _ZN7blocxx820OutOfBoundsExceptionC2EPKciS2_iPKNS_9ExceptionEi@Base 2.3.0~svn544
 _ZN7blocxx820OutOfBoundsExceptionC2ERKS0_@Base 2.3.0~svn544
 _ZN7blocxx820OutOfBoundsExceptionD0Ev@Base 2.3.0~svn544
 _ZN7blocxx820OutOfBoundsExceptionD1Ev@Base 2.3.0~svn544
 _ZN7blocxx820OutOfBoundsExceptionD2Ev@Base 2.3.0~svn544
 _ZN7blocxx820UnknownHostExceptionC1EPKciS2_iPKNS_9ExceptionEi@Base 2.3.0~svn544
 _ZN7blocxx820UnknownHostExceptionC1ERKS0_@Base 2.3.0~svn544
 _ZN7blocxx820UnknownHostExceptionC2EPKciS2_iPKNS_9ExceptionEi@Base 2.3.0~svn544
 _ZN7blocxx820UnknownHostExceptionC2ERKS0_@Base 2.3.0~svn544
 _ZN7blocxx820UnknownHostExceptionD0Ev@Base 2.3.0~svn544
 _ZN7blocxx820UnknownHostExceptionD1Ev@Base 2.3.0~svn544
 _ZN7blocxx820UnknownHostExceptionD2Ev@Base 2.3.0~svn544
 _ZN7blocxx820UnnamedPipeExceptionC1EPKciS2_iPKNS_9ExceptionEi@Base 2.3.0~svn544
 _ZN7blocxx820UnnamedPipeExceptionC1ERKS0_@Base 2.3.0~svn544
 _ZN7blocxx820UnnamedPipeExceptionC2EPKciS2_iPKNS_9ExceptionEi@Base 2.3.0~svn544
 _ZN7blocxx820UnnamedPipeExceptionC2ERKS0_@Base 2.3.0~svn544
 _ZN7blocxx820UnnamedPipeExceptionD0Ev@Base 2.3.0~svn544
 _ZN7blocxx820UnnamedPipeExceptionD1Ev@Base 2.3.0~svn544
 _ZN7blocxx820UnnamedPipeExceptionD2Ev@Base 2.3.0~svn544
 _ZN7blocxx821BadSignatureExceptionC1EPKciS2_iPKNS_9ExceptionEi@Base 2.3.0~svn544
 _ZN7blocxx821BadSignatureExceptionC1ERKS0_@Base 2.3.0~svn544
 _ZN7blocxx821BadSignatureExceptionC2EPKciS2_iPKNS_9ExceptionEi@Base 2.3.0~svn544
 _ZN7blocxx821BadSignatureExceptionC2ERKS0_@Base 2.3.0~svn544
 _ZN7blocxx821BadSignatureExceptionD0Ev@Base 2.3.0~svn544
 _ZN7blocxx821BadSignatureExceptionD1Ev@Base 2.3.0~svn544
 _ZN7blocxx821BadSignatureExceptionD2Ev@Base 2.3.0~svn544
 _ZN7blocxx821COWIntrusiveReferenceINS_6String7ByteBufEE12getWriteLockEv@Base 2.3.0~svn544
 _ZN7blocxx821COWIntrusiveReferenceINS_6String7ByteBufEE4swapERS3_@Base 2.3.0~svn544
 _ZN7blocxx821COWIntrusiveReferenceINS_6String7ByteBufEEC1EPS2_b@Base 2.3.0~svn544
 _ZN7blocxx821COWIntrusiveReferenceINS_6String7ByteBufEEC1ERKS3_@Base 2.3.0~svn544
 _ZN7blocxx821COWIntrusiveReferenceINS_6String7ByteBufEEC2EPS2_b@Base 2.3.0~svn544
 _ZN7blocxx821COWIntrusiveReferenceINS_6String7ByteBufEEC2ERKS3_@Base 2.3.0~svn544
 _ZN7blocxx821COWIntrusiveReferenceINS_6String7ByteBufEED1Ev@Base 2.3.0~svn544
 _ZN7blocxx821COWIntrusiveReferenceINS_6String7ByteBufEED2Ev@Base 2.3.0~svn544
 _ZN7blocxx821COWIntrusiveReferenceINS_6String7ByteBufEEaSEPS2_@Base 2.3.0~svn544
 _ZN7blocxx821COWIntrusiveReferenceINS_6String7ByteBufEEaSERKS3_@Base 2.3.0~svn544
 _ZN7blocxx821COWIntrusiveReferenceINS_6String7ByteBufEEptEv@Base 2.3.0~svn544
 _ZN7blocxx821NonRecursiveMutexImpl11createMutexERNS_19NonRecursiveMutex_tE@Base 2.3.0~svn544
 _ZN7blocxx821NonRecursiveMutexImpl12acquireMutexERNS_19NonRecursiveMutex_tE@Base 2.3.0~svn544
 _ZN7blocxx821NonRecursiveMutexImpl12destroyMutexERNS_19NonRecursiveMutex_tE@Base 2.3.0~svn544
 _ZN7blocxx821NonRecursiveMutexImpl12releaseMutexERNS_19NonRecursiveMutex_tE@Base 2.3.0~svn544
 _ZN7blocxx821NonRecursiveMutexImpl16conditionPreWaitERNS_19NonRecursiveMutex_tERNS_26NonRecursiveMutexLockStateE@Base 2.3.0~svn544
 _ZN7blocxx821NonRecursiveMutexImpl17conditionPostWaitERNS_19NonRecursiveMutex_tERNS_26NonRecursiveMutexLockStateE@Base 2.3.0~svn544
 _ZN7blocxx821NonRecursiveMutexLock4lockEv@Base 2.3.0~svn544
 _ZN7blocxx821NonRecursiveMutexLock7releaseEv@Base 2.3.0~svn544
 _ZN7blocxx821NonRecursiveMutexLockC1ERNS_17NonRecursiveMutexEb@Base 2.3.0~svn544
 _ZN7blocxx821NonRecursiveMutexLockC2ERNS_17NonRecursiveMutexEb@Base 2.3.0~svn544
 _ZN7blocxx821NonRecursiveMutexLockD1Ev@Base 2.3.0~svn544
 _ZN7blocxx821NonRecursiveMutexLockD2Ev@Base 2.3.0~svn544
 _ZN7blocxx821ProcessErrorExceptionC1EPKciS2_iPKNS_9ExceptionEi@Base 2.3.0~svn544
 _ZN7blocxx821ProcessErrorExceptionC1ERKS0_@Base 2.3.0~svn544
 _ZN7blocxx821ProcessErrorExceptionC2EPKciS2_iPKNS_9ExceptionEi@Base 2.3.0~svn544
 _ZN7blocxx821ProcessErrorExceptionC2ERKS0_@Base 2.3.0~svn544
 _ZN7blocxx821ProcessErrorExceptionD0Ev@Base 2.3.0~svn544
 _ZN7blocxx821ProcessErrorExceptionD1Ev@Base 2.3.0~svn544
 _ZN7blocxx821ProcessErrorExceptionD2Ev@Base 2.3.0~svn544
 _ZN7blocxx821RegExCompileExceptionC1EPKciS2_iPKNS_9ExceptionEi@Base 2.3.0~svn544
 _ZN7blocxx821RegExCompileExceptionC1ERKS0_@Base 2.3.0~svn544
 _ZN7blocxx821RegExCompileExceptionC2EPKciS2_iPKNS_9ExceptionEi@Base 2.3.0~svn544
 _ZN7blocxx821RegExCompileExceptionC2ERKS0_@Base 2.3.0~svn544
 _ZN7blocxx821RegExCompileExceptionD0Ev@Base 2.3.0~svn544
 _ZN7blocxx821RegExCompileExceptionD1Ev@Base 2.3.0~svn544
 _ZN7blocxx821RegExCompileExceptionD2Ev@Base 2.3.0~svn544
 _ZN7blocxx821RegExExecuteExceptionC1EPKciS2_iPKNS_9ExceptionEi@Base 2.3.0~svn544
 _ZN7blocxx821RegExExecuteExceptionC1ERKS0_@Base 2.3.0~svn544
 _ZN7blocxx821RegExExecuteExceptionC2EPKciS2_iPKNS_9ExceptionEi@Base 2.3.0~svn544
 _ZN7blocxx821RegExExecuteExceptionC2ERKS0_@Base 2.3.0~svn544
 _ZN7blocxx821RegExExecuteExceptionD0Ev@Base 2.3.0~svn544
 _ZN7blocxx821RegExExecuteExceptionD1Ev@Base 2.3.0~svn544
 _ZN7blocxx821RegExExecuteExceptionD2Ev@Base 2.3.0~svn544
 _ZN7blocxx821SelectableCallbackIFC8selectedERiNS0_10EEventTypeE@Base 2.3.0~svn544
 _ZN7blocxx821SelectableCallbackIFCC2Ev@Base 2.3.0~svn544
 _ZN7blocxx821SelectableCallbackIFCD0Ev@Base 2.3.0~svn544
 _ZN7blocxx821SelectableCallbackIFCD1Ev@Base 2.3.0~svn544
 _ZN7blocxx821SelectableCallbackIFCD2Ev@Base 2.3.0~svn544
 _ZN7blocxx821dlSharedLibraryLoaderC1Ev@Base 2.3.0~svn544
 _ZN7blocxx821dlSharedLibraryLoaderC2Ev@Base 2.3.0~svn544
 _ZN7blocxx821dlSharedLibraryLoaderD0Ev@Base 2.3.0~svn544
 _ZN7blocxx821dlSharedLibraryLoaderD1Ev@Base 2.3.0~svn544
 _ZN7blocxx821dlSharedLibraryLoaderD2Ev@Base 2.3.0~svn544
 _ZN7blocxx821dlSharedLibrary_guardE@Base 2.3.0~svn544
 _ZN7blocxx821logErroneousExceptionEPKc@Base 2.3.0~svn544
 _ZN7blocxx821logErroneousExceptionEPKcRKNS_9ExceptionE@Base 2.3.0~svn544
 _ZN7blocxx821logErroneousExceptionEPKcRKSt9exception@Base 2.3.0~svn544
 _ZN7blocxx822CmdLineParserExceptionC1EPKciS2_iPKNS_9ExceptionEi@Base 2.3.0~svn544
 _ZN7blocxx822CmdLineParserExceptionC1ERKS0_@Base 2.3.0~svn544
 _ZN7blocxx822CmdLineParserExceptionC2EPKciS2_iPKNS_9ExceptionEi@Base 2.3.0~svn544
 _ZN7blocxx822CmdLineParserExceptionC2ERKS0_@Base 2.3.0~svn544
 _ZN7blocxx822CmdLineParserExceptionD0Ev@Base 2.3.0~svn544
 _ZN7blocxx822CmdLineParserExceptionD1Ev@Base 2.3.0~svn544
 _ZN7blocxx822CmdLineParserExceptionD2Ev@Base 2.3.0~svn544
 _ZN7blocxx822ConditionLockExceptionC1EPKciS2_iPKNS_9ExceptionEi@Base 2.3.0~svn544
 _ZN7blocxx822ConditionLockExceptionC1ERKS0_@Base 2.3.0~svn544
 _ZN7blocxx822ConditionLockExceptionC2EPKciS2_iPKNS_9ExceptionEi@Base 2.3.0~svn544
 _ZN7blocxx822ConditionLockExceptionC2ERKS0_@Base 2.3.0~svn544
 _ZN7blocxx822ConditionLockExceptionD0Ev@Base 2.3.0~svn544
 _ZN7blocxx822ConditionLockExceptionD1Ev@Base 2.3.0~svn544
 _ZN7blocxx822ConditionLockExceptionD2Ev@Base 2.3.0~svn544
 _ZN7blocxx822DelayedFormatInternals26DelayedFormatReferenceBaseC1Ev@Base 2.3.0~svn544
 _ZN7blocxx822DelayedFormatInternals26DelayedFormatReferenceBaseC2Ev@Base 2.3.0~svn544
 _ZN7blocxx822DelayedFormatInternals26DelayedFormatReferenceBaseD0Ev@Base 2.3.0~svn544
 _ZN7blocxx822DelayedFormatInternals26DelayedFormatReferenceBaseD1Ev@Base 2.3.0~svn544
 _ZN7blocxx822DelayedFormatInternals26DelayedFormatReferenceBaseD2Ev@Base 2.3.0~svn544
 _ZN7blocxx822DelayedFormatInternalslsERSoRKNS0_26DelayedFormatReferenceBaseE@Base 2.3.0~svn544
 _ZN7blocxx822IntrusiveCountableBaseC1ERKS0_@Base 2.3.0~svn544
 _ZN7blocxx822IntrusiveCountableBaseC1Ev@Base 2.3.0~svn544
 _ZN7blocxx822IntrusiveCountableBaseC2ERKS0_@Base 2.3.0~svn544
 _ZN7blocxx822IntrusiveCountableBaseC2Ev@Base 2.3.0~svn544
 _ZN7blocxx822IntrusiveCountableBaseD0Ev@Base 2.3.0~svn544
 _ZN7blocxx822IntrusiveCountableBaseD1Ev@Base 2.3.0~svn544
 _ZN7blocxx822IntrusiveCountableBaseD2Ev@Base 2.3.0~svn544
 _ZN7blocxx822NULLReferenceExceptionC1EPKciS2_iPKNS_9ExceptionEi@Base 2.3.0~svn544
 _ZN7blocxx822NULLReferenceExceptionC1ERKS0_@Base 2.3.0~svn544
 _ZN7blocxx822NULLReferenceExceptionC2EPKciS2_iPKNS_9ExceptionEi@Base 2.3.0~svn544
 _ZN7blocxx822NULLReferenceExceptionC2ERKS0_@Base 2.3.0~svn544
 _ZN7blocxx822NULLReferenceExceptionD0Ev@Base 2.3.0~svn544
 _ZN7blocxx822NULLReferenceExceptionD1Ev@Base 2.3.0~svn544
 _ZN7blocxx822NULLReferenceExceptionD2Ev@Base 2.3.0~svn544
 _ZN7blocxx822SharedLibraryExceptionC1EPKciS2_iPKNS_9ExceptionEi@Base 2.3.0~svn544
 _ZN7blocxx822SharedLibraryExceptionC1ERKS0_@Base 2.3.0~svn544
 _ZN7blocxx822SharedLibraryExceptionC2EPKciS2_iPKNS_9ExceptionEi@Base 2.3.0~svn544
 _ZN7blocxx822SharedLibraryExceptionC2ERKS0_@Base 2.3.0~svn544
 _ZN7blocxx822SharedLibraryExceptionD0Ev@Base 2.3.0~svn544
 _ZN7blocxx822SharedLibraryExceptionD1Ev@Base 2.3.0~svn544
 _ZN7blocxx822SharedLibraryExceptionD2Ev@Base 2.3.0~svn544
 _ZN7blocxx822SocketAddressExceptionC1EPKciS2_iPKNS_9ExceptionEi@Base 2.3.0~svn544
 _ZN7blocxx822SocketAddressExceptionC1ERKS0_@Base 2.3.0~svn544
 _ZN7blocxx822SocketAddressExceptionC2EPKciS2_iPKNS_9ExceptionEi@Base 2.3.0~svn544
 _ZN7blocxx822SocketAddressExceptionC2ERKS0_@Base 2.3.0~svn544
 _ZN7blocxx822SocketAddressExceptionD0Ev@Base 2.3.0~svn544
 _ZN7blocxx822SocketAddressExceptionD1Ev@Base 2.3.0~svn544
 _ZN7blocxx822SocketAddressExceptionD2Ev@Base 2.3.0~svn544
 _ZN7blocxx822SocketTimeoutExceptionC1EPKciS2_iPKNS_9ExceptionEi@Base 2.3.0~svn544
 _ZN7blocxx822SocketTimeoutExceptionC1ERKS0_@Base 2.3.0~svn544
 _ZN7blocxx822SocketTimeoutExceptionC2EPKciS2_iPKNS_9ExceptionEi@Base 2.3.0~svn544
 _ZN7blocxx822SocketTimeoutExceptionC2ERKS0_@Base 2.3.0~svn544
 _ZN7blocxx822SocketTimeoutExceptionD0Ev@Base 2.3.0~svn544
 _ZN7blocxx822SocketTimeoutExceptionD1Ev@Base 2.3.0~svn544
 _ZN7blocxx822SocketTimeoutExceptionD2Ev@Base 2.3.0~svn544
 _ZN7blocxx822ThreadBarrierExceptionC1EPKciS2_iPKNS_9ExceptionEi@Base 2.3.0~svn544
 _ZN7blocxx822ThreadBarrierExceptionC1ERKS0_@Base 2.3.0~svn544
 _ZN7blocxx822ThreadBarrierExceptionC2EPKciS2_iPKNS_9ExceptionEi@Base 2.3.0~svn544
 _ZN7blocxx822ThreadBarrierExceptionC2ERKS0_@Base 2.3.0~svn544
 _ZN7blocxx822ThreadBarrierExceptionD0Ev@Base 2.3.0~svn544
 _ZN7blocxx822ThreadBarrierExceptionD1Ev@Base 2.3.0~svn544
 _ZN7blocxx822ThreadBarrierExceptionD2Ev@Base 2.3.0~svn544
 _ZN7blocxx822ThreadCountDecrementer18doNotifyThreadDoneEPNS_6ThreadE@Base 2.3.0~svn544
 _ZN7blocxx822ThreadCountDecrementerC1ERKNS_18IntrusiveReferenceINS_13ThreadCounterEEE@Base 2.3.0~svn544
 _ZN7blocxx822ThreadCountDecrementerC2ERKNS_18IntrusiveReferenceINS_13ThreadCounterEEE@Base 2.3.0~svn544
 _ZN7blocxx822ThreadCountDecrementerD0Ev@Base 2.3.0~svn544
 _ZN7blocxx822ThreadCountDecrementerD1Ev@Base 2.3.0~svn544
 _ZN7blocxx822ThreadCountDecrementerD2Ev@Base 2.3.0~svn544
 _ZN7blocxx822readWriteMemoryBarrierEv@Base 2.3.0~svn544
 _ZN7blocxx823ExecBufferFullExceptionC1EPKciS2_iPKNS_9ExceptionEi@Base 2.3.0~svn544
 _ZN7blocxx823ExecBufferFullExceptionC1ERKS0_@Base 2.3.0~svn544
 _ZN7blocxx823ExecBufferFullExceptionC2EPKciS2_iPKNS_9ExceptionEi@Base 2.3.0~svn544
 _ZN7blocxx823ExecBufferFullExceptionC2ERKS0_@Base 2.3.0~svn544
 _ZN7blocxx823ExecBufferFullExceptionD0Ev@Base 2.3.0~svn544
 _ZN7blocxx823ExecBufferFullExceptionD1Ev@Base 2.3.0~svn544
 _ZN7blocxx823ExecBufferFullExceptionD2Ev@Base 2.3.0~svn544
 _ZN7blocxx824IntrusiveReferenceAddRefEPNS_22IntrusiveCountableBaseE@Base 2.3.0~svn544
 _ZN7blocxx824MultiProcessFileAppenderC1ERKNS_5ArrayINS_6StringEEES5_RKS2_S7_mj@Base 2.3.0~svn544
 _ZN7blocxx824MultiProcessFileAppenderC2ERKNS_5ArrayINS_6StringEEES5_RKS2_S7_mj@Base 2.3.0~svn544
 _ZN7blocxx824MultiProcessFileAppenderD0Ev@Base 2.3.0~svn544
 _ZN7blocxx824MultiProcessFileAppenderD1Ev@Base 2.3.0~svn544
 _ZN7blocxx824MultiProcessFileAppenderD2Ev@Base 2.3.0~svn544
 _ZN7blocxx825COWIntrusiveCountableBaseC1ERKS0_@Base 2.3.0~svn544
 _ZN7blocxx825COWIntrusiveCountableBaseC1Ev@Base 2.3.0~svn544
 _ZN7blocxx825COWIntrusiveCountableBaseC2ERKS0_@Base 2.3.0~svn544
 _ZN7blocxx825COWIntrusiveCountableBaseC2Ev@Base 2.3.0~svn544
 _ZN7blocxx825COWIntrusiveCountableBaseD0Ev@Base 2.3.0~svn544
 _ZN7blocxx825COWIntrusiveCountableBaseD1Ev@Base 2.3.0~svn544
 _ZN7blocxx825COWIntrusiveCountableBaseD2Ev@Base 2.3.0~svn544
 _ZN7blocxx825IntrusiveReferenceReleaseEPNS_22IntrusiveCountableBaseE@Base 2.3.0~svn544
 _ZN7blocxx825StringConversionExceptionC1EPKciS2_iPKNS_9ExceptionEi@Base 2.3.0~svn544
 _ZN7blocxx825StringConversionExceptionC1ERKS0_@Base 2.3.0~svn544
 _ZN7blocxx825StringConversionExceptionC2EPKciS2_iPKNS_9ExceptionEi@Base 2.3.0~svn544
 _ZN7blocxx825StringConversionExceptionC2ERKS0_@Base 2.3.0~svn544
 _ZN7blocxx825StringConversionExceptionD0Ev@Base 2.3.0~svn544
 _ZN7blocxx825StringConversionExceptionD1Ev@Base 2.3.0~svn544
 _ZN7blocxx825StringConversionExceptionD2Ev@Base 2.3.0~svn544
 _ZN7blocxx826COWIntrusiveReferenceCloneINS_6String7ByteBufEEEPT_S4_@Base 2.3.0~svn544
 _ZN7blocxx826CallOnce_pthread_MutexLockC1EP15pthread_mutex_t@Base 2.3.0~svn544
 _ZN7blocxx826CallOnce_pthread_MutexLockC2EP15pthread_mutex_t@Base 2.3.0~svn544
 _ZN7blocxx826CallOnce_pthread_MutexLockD1Ev@Base 2.3.0~svn544
 _ZN7blocxx826CallOnce_pthread_MutexLockD2Ev@Base 2.3.0~svn544
 _ZN7blocxx826ConditionResourceExceptionC1EPKciS2_iPKNS_9ExceptionEi@Base 2.3.0~svn544
 _ZN7blocxx826ConditionResourceExceptionC1ERKS0_@Base 2.3.0~svn544
 _ZN7blocxx826ConditionResourceExceptionC2EPKciS2_iPKNS_9ExceptionEi@Base 2.3.0~svn544
 _ZN7blocxx826ConditionResourceExceptionC2ERKS0_@Base 2.3.0~svn544
 _ZN7blocxx826ConditionResourceExceptionD0Ev@Base 2.3.0~svn544
 _ZN7blocxx826ConditionResourceExceptionD1Ev@Base 2.3.0~svn544
 _ZN7blocxx826ConditionResourceExceptionD2Ev@Base 2.3.0~svn544
 _ZN7blocxx826GenericRWLockImplExceptionC1EPKciS2_iPKNS_9ExceptionEi@Base 2.3.0~svn544
 _ZN7blocxx826GenericRWLockImplExceptionC1ERKS0_@Base 2.3.0~svn544
 _ZN7blocxx826GenericRWLockImplExceptionC2EPKciS2_iPKNS_9ExceptionEi@Base 2.3.0~svn544
 _ZN7blocxx826GenericRWLockImplExceptionC2ERKS0_@Base 2.3.0~svn544
 _ZN7blocxx826GenericRWLockImplExceptionD0Ev@Base 2.3.0~svn544
 _ZN7blocxx826GenericRWLockImplExceptionD1Ev@Base 2.3.0~svn544
 _ZN7blocxx826GenericRWLockImplExceptionD2Ev@Base 2.3.0~svn544
 _ZN7blocxx826LogMessagePatternFormatter27STR_DEFAULT_MESSAGE_PATTERNE@Base 2.3.0~svn544
 _ZN7blocxx826LogMessagePatternFormatter9ConverterC1ERKNS_30LogMessagePatternFormatterImpl10FormattingE@Base 2.3.0~svn544
 _ZN7blocxx826LogMessagePatternFormatter9ConverterC1Ev@Base 2.3.0~svn544
 _ZN7blocxx826LogMessagePatternFormatter9ConverterC2ERKNS_30LogMessagePatternFormatterImpl10FormattingE@Base 2.3.0~svn544
 _ZN7blocxx826LogMessagePatternFormatter9ConverterC2Ev@Base 2.3.0~svn544
 _ZN7blocxx826LogMessagePatternFormatter9ConverterD0Ev@Base 2.3.0~svn544
 _ZN7blocxx826LogMessagePatternFormatter9ConverterD1Ev@Base 2.3.0~svn544
 _ZN7blocxx826LogMessagePatternFormatter9ConverterD2Ev@Base 2.3.0~svn544
 _ZN7blocxx826LogMessagePatternFormatterC1ERKNS_6StringE@Base 2.3.0~svn544
 _ZN7blocxx826LogMessagePatternFormatterC2ERKNS_6StringE@Base 2.3.0~svn544
 _ZN7blocxx826LogMessagePatternFormatterD1Ev@Base 2.3.0~svn544
 _ZN7blocxx826LogMessagePatternFormatterD2Ev@Base 2.3.0~svn544
 _ZN7blocxx827COWIntrusiveReferenceAddRefEPNS_25COWIntrusiveCountableBaseE@Base 2.3.0~svn544
 _ZN7blocxx827COWIntrusiveReferenceUniqueEPNS_25COWIntrusiveCountableBaseE@Base 2.3.0~svn544
 _ZN7blocxx827CancellationDeniedExceptionC1EPKciS2_iPKNS_9ExceptionEi@Base 2.3.0~svn544
 _ZN7blocxx827CancellationDeniedExceptionC1ERKS0_@Base 2.3.0~svn544
 _ZN7blocxx827CancellationDeniedExceptionC2EPKciS2_iPKNS_9ExceptionEi@Base 2.3.0~svn544
 _ZN7blocxx827CancellationDeniedExceptionC2ERKS0_@Base 2.3.0~svn544
 _ZN7blocxx827CancellationDeniedExceptionD0Ev@Base 2.3.0~svn544
 _ZN7blocxx827CancellationDeniedExceptionD1Ev@Base 2.3.0~svn544
 _ZN7blocxx827CancellationDeniedExceptionD2Ev@Base 2.3.0~svn544
 _ZN7blocxx827MersenneTwisterRandomNumber12getMaxNumberEv@Base 2.3.0~svn544
 _ZN7blocxx827MersenneTwisterRandomNumber13getNextNumberEj@Base 2.3.0~svn544
 _ZN7blocxx827MersenneTwisterRandomNumber7setSeedEj@Base 2.3.0~svn544
 _ZN7blocxx827MersenneTwisterRandomNumberC1ERKS0_@Base 2.3.0~svn544
 _ZN7blocxx827MersenneTwisterRandomNumberC1Ej@Base 2.3.0~svn544
 _ZN7blocxx827MersenneTwisterRandomNumberC1Ev@Base 2.3.0~svn544
 _ZN7blocxx827MersenneTwisterRandomNumberC2ERKS0_@Base 2.3.0~svn544
 _ZN7blocxx827MersenneTwisterRandomNumberC2Ej@Base 2.3.0~svn544
 _ZN7blocxx827MersenneTwisterRandomNumberC2Ev@Base 2.3.0~svn544
 _ZN7blocxx827MersenneTwisterRandomNumberaSERKS0_@Base 2.3.0~svn544
 _ZN7blocxx827TempFileEnumerationImplBase5clearEv@Base 2.3.0~svn544
 _ZN7blocxx827TempFileEnumerationImplBase8readSizeERKNS_6StringE@Base 2.3.0~svn544
 _ZN7blocxx827TempFileEnumerationImplBaseC1Ev@Base 2.3.0~svn544
 _ZN7blocxx827TempFileEnumerationImplBaseC2Ev@Base 2.3.0~svn544
 _ZN7blocxx827TempFileEnumerationImplBaseD0Ev@Base 2.3.0~svn544
 _ZN7blocxx827TempFileEnumerationImplBaseD1Ev@Base 2.3.0~svn544
 _ZN7blocxx827TempFileEnumerationImplBaseD2Ev@Base 2.3.0~svn544
 _ZN7blocxx828COWIntrusiveReferenceReleaseEPNS_25COWIntrusiveCountableBaseE@Base 2.3.0~svn544
 _ZN7blocxx829StringArrayConstructorFactory6createERKPKc@Base 2.3.0~svn544
 _ZN7blocxx830LogMessagePatternFormatterImpl10FormattingC1Ev@Base 2.3.0~svn544
 _ZN7blocxx830LogMessagePatternFormatterImpl10FormattingC2Ev@Base 2.3.0~svn544
 _ZN7blocxx830throwArrayOutOfBoundsExceptionEmm@Base 2.3.0~svn544
 _ZN7blocxx833DefaultConstructedVariableFactoryINS_5MutexEE6createERKi@Base 2.3.0~svn544
 _ZN7blocxx833DefaultVariableConstructorFactoryINS_6StringEKPKcE6createERS4_@Base 2.3.0~svn544
 _ZN7blocxx835LogMessagePatternFormatterExceptionC1EPKciS2_iPKNS_9ExceptionEi@Base 2.3.0~svn544
 _ZN7blocxx835LogMessagePatternFormatterExceptionC1ERKS0_@Base 2.3.0~svn544
 _ZN7blocxx835LogMessagePatternFormatterExceptionC2EPKciS2_iPKNS_9ExceptionEi@Base 2.3.0~svn544
 _ZN7blocxx835LogMessagePatternFormatterExceptionC2ERKS0_@Base 2.3.0~svn544
 _ZN7blocxx835LogMessagePatternFormatterExceptionD0Ev@Base 2.3.0~svn544
 _ZN7blocxx835LogMessagePatternFormatterExceptionD1Ev@Base 2.3.0~svn544
 _ZN7blocxx835LogMessagePatternFormatterExceptionD2Ev@Base 2.3.0~svn544
 _ZN7blocxx836ExecMockObjectUnimplementedExceptionC1EPKciS2_iPKNS_9ExceptionEi@Base 2.3.0~svn544
 _ZN7blocxx836ExecMockObjectUnimplementedExceptionC1ERKS0_@Base 2.3.0~svn544
 _ZN7blocxx836ExecMockObjectUnimplementedExceptionC2EPKciS2_iPKNS_9ExceptionEi@Base 2.3.0~svn544
 _ZN7blocxx836ExecMockObjectUnimplementedExceptionC2ERKS0_@Base 2.3.0~svn544
 _ZN7blocxx836ExecMockObjectUnimplementedExceptionD0Ev@Base 2.3.0~svn544
 _ZN7blocxx836ExecMockObjectUnimplementedExceptionD1Ev@Base 2.3.0~svn544
 _ZN7blocxx836ExecMockObjectUnimplementedExceptionD2Ev@Base 2.3.0~svn544
 _ZN7blocxx83MD515convertBinToHexEPKh@Base 2.3.0~svn544
 _ZN7blocxx83MD54initERKNS_6StringE@Base 2.3.0~svn544
 _ZN7blocxx83MD56updateERKNS_6StringE@Base 2.3.0~svn544
 _ZN7blocxx83MD57MD5InitEPNS0_7MD5_CTXE@Base 2.3.0~svn544
 _ZN7blocxx83MD58MD5FinalEPhPNS0_7MD5_CTXE@Base 2.3.0~svn544
 _ZN7blocxx83MD58toStringEv@Base 2.3.0~svn544
 _ZN7blocxx83MD59MD5UpdateEPNS0_7MD5_CTXEPKhj@Base 2.3.0~svn544
 _ZN7blocxx83MD59getDigestEv@Base 2.3.0~svn544
 _ZN7blocxx83MD5C1ERKNS_6StringE@Base 2.3.0~svn544
 _ZN7blocxx83MD5C1Ev@Base 2.3.0~svn544
 _ZN7blocxx83MD5C2ERKNS_6StringE@Base 2.3.0~svn544
 _ZN7blocxx83MD5C2Ev@Base 2.3.0~svn544
 _ZN7blocxx83MD5D0Ev@Base 2.3.0~svn544
 _ZN7blocxx83MD5D1Ev@Base 2.3.0~svn544
 _ZN7blocxx83MD5D2Ev@Base 2.3.0~svn544
 _ZN7blocxx83MapINS_6StringENS_13SSLTrustStore8UserInfoESt4lessIS1_EE3endEv@Base 2.3.0~svn544
 _ZN7blocxx83MapINS_6StringENS_13SSLTrustStore8UserInfoESt4lessIS1_EE4findERKS1_@Base 2.3.0~svn544
 _ZN7blocxx83MapINS_6StringENS_13SSLTrustStore8UserInfoESt4lessIS1_EE5beginEv@Base 2.3.0~svn544
 _ZN7blocxx83MapINS_6StringENS_13SSLTrustStore8UserInfoESt4lessIS1_EE6insertERKSt4pairIKS1_S3_E@Base 2.3.0~svn544
 _ZN7blocxx83MapINS_6StringENS_13SSLTrustStore8UserInfoESt4lessIS1_EEC1Ev@Base 2.3.0~svn544
 _ZN7blocxx83MapINS_6StringENS_13SSLTrustStore8UserInfoESt4lessIS1_EEC2Ev@Base 2.3.0~svn544
 _ZN7blocxx83MapINS_6StringENS_13SSLTrustStore8UserInfoESt4lessIS1_EED1Ev@Base 2.3.0~svn544
 _ZN7blocxx83MapINS_6StringENS_13SSLTrustStore8UserInfoESt4lessIS1_EED2Ev@Base 2.3.0~svn544
 _ZN7blocxx83MapINS_6StringENS_13SSLTrustStore8UserInfoESt4lessIS1_EEixERKS1_@Base 2.3.0~svn544
 _ZN7blocxx83MapINS_6StringES1_St4lessIS1_EE3endEv@Base 2.3.0~svn544
 _ZN7blocxx83MapINS_6StringES1_St4lessIS1_EE4findERKS1_@Base 2.3.0~svn544
 _ZN7blocxx83MapINS_6StringES1_St4lessIS1_EE5clearEv@Base 2.3.0~svn544
 _ZN7blocxx83MapINS_6StringES1_St4lessIS1_EE5eraseEN11__gnu_debug14_Safe_iteratorISt17_Rb_tree_iteratorISt4pairIKS1_S1_EENSt7__debug3mapIS1_S1_S3_SaISA_EEEEE@Base 2.3.0~svn544
 _ZN7blocxx83MapINS_6StringES1_St4lessIS1_EEC1Ev@Base 2.3.0~svn544
 _ZN7blocxx83MapINS_6StringES1_St4lessIS1_EEC2Ev@Base 2.3.0~svn544
 _ZN7blocxx83MapINS_6StringES1_St4lessIS1_EED1Ev@Base 2.3.0~svn544
 _ZN7blocxx83MapINS_6StringES1_St4lessIS1_EED2Ev@Base 2.3.0~svn544
 _ZN7blocxx83MapINS_6StringES1_St4lessIS1_EEixERKS1_@Base 2.3.0~svn544
 _ZN7blocxx842FileSystemMockObjectUnimplementedExceptionC1EPKciS2_iPKNS_9ExceptionEi@Base 2.3.0~svn544
 _ZN7blocxx842FileSystemMockObjectUnimplementedExceptionC1ERKS0_@Base 2.3.0~svn544
 _ZN7blocxx842FileSystemMockObjectUnimplementedExceptionC2EPKciS2_iPKNS_9ExceptionEi@Base 2.3.0~svn544
 _ZN7blocxx842FileSystemMockObjectUnimplementedExceptionC2ERKS0_@Base 2.3.0~svn544
 _ZN7blocxx842FileSystemMockObjectUnimplementedExceptionD0Ev@Base 2.3.0~svn544
 _ZN7blocxx842FileSystemMockObjectUnimplementedExceptionD1Ev@Base 2.3.0~svn544
 _ZN7blocxx842FileSystemMockObjectUnimplementedExceptionD2Ev@Base 2.3.0~svn544
 _ZN7blocxx84Bool10readObjectERSt15basic_streambufIcSt11char_traitsIcEE@Base 2.3.0~svn544
 _ZN7blocxx84BoolC1Eb@Base 2.3.0~svn544
 _ZN7blocxx84BoolC2Eb@Base 2.3.0~svn544
 _ZN7blocxx84Cstr11to_char_ptrINS_6StringEEEPKcRKT_@Base 2.3.0~svn544
 _ZN7blocxx84Cstr13CstrStringAuxINS_6StringELb0EE5c_strERKS2_@Base 2.3.0~svn544
 _ZN7blocxx84Cstr7CstrArrINS_5ArrayINS_6StringEEEEC1ERKS4_@Base 2.3.0~svn544
 _ZN7blocxx84Cstr7CstrArrINS_5ArrayINS_6StringEEEEC2ERKS4_@Base 2.3.0~svn544
 _ZN7blocxx84Cstr7CstrArrINS_5ArrayINS_6StringEEEED1Ev@Base 2.3.0~svn544
 _ZN7blocxx84Cstr7CstrArrINS_5ArrayINS_6StringEEEED2Ev@Base 2.3.0~svn544
 _ZN7blocxx84Cstr7CstrArrIPKPKcEC1ES5_@Base 2.3.0~svn544
 _ZN7blocxx84Cstr7CstrArrIPKPKcEC2ES5_@Base 2.3.0~svn544
 _ZN7blocxx84Cstr8ctassertILb1EEC1Ev@Base 2.3.0~svn544
 _ZN7blocxx84Cstr8ctassertILb1EEC2Ev@Base 2.3.0~svn544
 _ZN7blocxx84Exec12gatherOutputERNS_6StringERKNS_18IntrusiveReferenceINS_7ProcessEEERKNS_7TimeoutEi@Base 2.3.0~svn544
 _ZN7blocxx84Exec12gatherOutputERNS_6StringERKNS_18IntrusiveReferenceINS_7ProcessEEEii@Base 2.3.0~svn544
 _ZN7blocxx84Exec13InputCallback7getDataERNS_5ArrayIcEERKNS_18IntrusiveReferenceINS_7ProcessEEEm@Base 2.3.0~svn544
 _ZN7blocxx84Exec13InputCallbackC1Ev@Base 2.3.0~svn544
 _ZN7blocxx84Exec13InputCallbackC2Ev@Base 2.3.0~svn544
 _ZN7blocxx84Exec13InputCallbackD0Ev@Base 2.3.0~svn544
 _ZN7blocxx84Exec13InputCallbackD1Ev@Base 2.3.0~svn544
 _ZN7blocxx84Exec13InputCallbackD2Ev@Base 2.3.0~svn544
 _ZN7blocxx84Exec14OutputCallback10handleDataEPKcmNS0_13EOutputSourceERKNS_18IntrusiveReferenceINS_7ProcessEEEmRNS_5ArrayIcEE@Base 2.3.0~svn544
 _ZN7blocxx84Exec14OutputCallbackC1Ev@Base 2.3.0~svn544
 _ZN7blocxx84Exec14OutputCallbackC2Ev@Base 2.3.0~svn544
 _ZN7blocxx84Exec14OutputCallbackD0Ev@Base 2.3.0~svn544
 _ZN7blocxx84Exec14OutputCallbackD1Ev@Base 2.3.0~svn544
 _ZN7blocxx84Exec14OutputCallbackD2Ev@Base 2.3.0~svn544
 _ZN7blocxx84Exec16g_execMockObjectE@Base 2.3.0~svn544
 _ZN7blocxx84Exec18processInputOutputERKNS_6StringERS1_RKNS_18IntrusiveReferenceINS_7ProcessEEERKNS_7TimeoutEi@Base 2.3.0~svn544
 _ZN7blocxx84Exec18processInputOutputERNS0_14OutputCallbackERNS_5ArrayINS_18IntrusiveReferenceINS_7ProcessEEEEERNS0_13InputCallbackERKNS_7TimeoutE@Base 2.3.0~svn544
 _ZN7blocxx84Exec26feedProcessAndGatherOutputERKNS_18IntrusiveReferenceINS_7ProcessEEERNS_6StringERKNS_7TimeoutEiRKS6_@Base 2.3.0~svn544
 _ZN7blocxx84Exec26feedProcessAndGatherOutputERKNS_18IntrusiveReferenceINS_7ProcessEEERNS_6StringES7_RKNS_7TimeoutEiRKS6_@Base 2.3.0~svn544
 _ZN7blocxx84Exec29executeProcessAndGatherOutputEPKPKcRNS_6StringES4_RKNS_7TimeoutEiS2_@Base 2.3.0~svn544
 _ZN7blocxx84Exec29executeProcessAndGatherOutputEPKPKcRNS_6StringES6_S4_RKNS_7TimeoutEiS2_@Base 2.3.0~svn544
 _ZN7blocxx84Exec4Impl11NullFactory6createEv@Base 2.3.0~svn544
 _ZN7blocxx84Exec4Impl16close_child_endsEPNS_18IntrusiveReferenceINS_11UnnamedPipeEEE@Base 2.3.0~svn544
 _ZN7blocxx84Exec5spawnEPKPKcS4_@Base 2.3.0~svn544
 _ZN7blocxx84Exec5spawnEPKcPKS2_S4_RNS0_7PreExecE@Base 2.3.0~svn544
 _ZN7blocxx84Exec5spawnINS_5ArrayINS_6StringEEEEENS_18IntrusiveReferenceINS_7ProcessEEERKT_@Base 2.3.0~svn544
 _ZN7blocxx84Exec5spawnINS_5ArrayINS_6StringEEEPKPKcEENS_18IntrusiveReferenceINS_7ProcessEEERKT_RKT0_@Base 2.3.0~svn544
 _ZN7blocxx84Exec5spawnINS_6StringENS_5ArrayIS2_EEPKPKcEENS_18IntrusiveReferenceINS_7ProcessEEERKT_RKT0_RKT1_RNS0_7PreExecE@Base 2.3.0~svn544
 _ZN7blocxx84Exec6systemERKNS_5ArrayINS_6StringEEEPKPKcRKNS_7TimeoutE@Base 2.3.0~svn544
 _ZN7blocxx84Exec7PreExec12resetSignalsEv@Base 2.3.0~svn544
 _ZN7blocxx84Exec7PreExec16closePipesOnExecEPKPNS_11UnnamedPipeE@Base 2.3.0~svn544
 _ZN7blocxx84Exec7PreExec18setNewProcessGroupEv@Base 2.3.0~svn544
 _ZN7blocxx84Exec7PreExec22closeDescriptorsOnExecERKNSt7__debug6vectorIbSaIbEEE@Base 2.3.0~svn544
 _ZN7blocxx84Exec7PreExec24setupStandardDescriptorsEPKPNS_11UnnamedPipeE@Base 2.3.0~svn544
 _ZN7blocxx84Exec7PreExec9DontCatchD0Ev@Base 2.3.0~svn544
 _ZN7blocxx84Exec7PreExec9DontCatchD1Ev@Base 2.3.0~svn544
 _ZN7blocxx84Exec7PreExec9DontCatchD2Ev@Base 2.3.0~svn544
 _ZN7blocxx84Exec7PreExecC1Ebb@Base 2.3.0~svn544
 _ZN7blocxx84Exec7PreExecC2Ebb@Base 2.3.0~svn544
 _ZN7blocxx84Exec7PreExecD0Ev@Base 2.3.0~svn544
 _ZN7blocxx84Exec7PreExecD1Ev@Base 2.3.0~svn544
 _ZN7blocxx84Exec7PreExecD2Ev@Base 2.3.0~svn544
 _ZN7blocxx84Exec9spawnImplEPKcPKS2_S4_RNS0_7PreExecE@Base 2.3.0~svn544
 _ZN7blocxx84File17releaseDescriptorEv@Base 2.3.0~svn544
 _ZN7blocxx84File4swapERS0_@Base 2.3.0~svn544
 _ZN7blocxx84File5closeEv@Base 2.3.0~svn544
 _ZN7blocxx84File5flushEv@Base 2.3.0~svn544
 _ZN7blocxx84File5writeEPKvml@Base 2.3.0~svn544
 _ZN7blocxx84File6unlockEv@Base 2.3.0~svn544
 _ZN7blocxx84File7getLockENS0_9ELockTypeE@Base 2.3.0~svn544
 _ZN7blocxx84File7tryLockENS0_9ELockTypeE@Base 2.3.0~svn544
 _ZN7blocxx84FileC1ERKS0_@Base 2.3.0~svn544
 _ZN7blocxx84FileC1Ei@Base 2.3.0~svn544
 _ZN7blocxx84FileC1Ev@Base 2.3.0~svn544
 _ZN7blocxx84FileC2ERKS0_@Base 2.3.0~svn544
 _ZN7blocxx84FileC2Ei@Base 2.3.0~svn544
 _ZN7blocxx84FileC2Ev@Base 2.3.0~svn544
 _ZN7blocxx84FileD1Ev@Base 2.3.0~svn544
 _ZN7blocxx84FileD2Ev@Base 2.3.0~svn544
 _ZN7blocxx84FileaSERKS0_@Base 2.3.0~svn544
 _ZN7blocxx84Time10TimePeriodC1ERKNS_8DateTimeERKNS0_12TimeDurationE@Base 2.3.0~svn544
 _ZN7blocxx84Time10TimePeriodC1ERKNS_8DateTimeES4_@Base 2.3.0~svn544
 _ZN7blocxx84Time10TimePeriodC1ERKS1_@Base 2.3.0~svn544
 _ZN7blocxx84Time10TimePeriodC1Ev@Base 2.3.0~svn544
 _ZN7blocxx84Time10TimePeriodC2ERKNS_8DateTimeERKNS0_12TimeDurationE@Base 2.3.0~svn544
 _ZN7blocxx84Time10TimePeriodC2ERKNS_8DateTimeES4_@Base 2.3.0~svn544
 _ZN7blocxx84Time10TimePeriodC2ERKS1_@Base 2.3.0~svn544
 _ZN7blocxx84Time10TimePeriodC2Ev@Base 2.3.0~svn544
 _ZN7blocxx84Time10TimePeriodD1Ev@Base 2.3.0~svn544
 _ZN7blocxx84Time10TimePeriodD2Ev@Base 2.3.0~svn544
 _ZN7blocxx84Time10TimePeriodaSERKS1_@Base 2.3.0~svn544
 _ZN7blocxx84Time10isInfiniteERKNS0_10TimePeriodE@Base 2.3.0~svn544
 _ZN7blocxx84Time10isInfiniteERKNS0_12TimeDurationE@Base 2.3.0~svn544
 _ZN7blocxx84Time10isInfiniteERKNS_8DateTimeE@Base 2.3.0~svn544
 _ZN7blocxx84Time11invalidTimeEv@Base 2.3.0~svn544
 _ZN7blocxx84Time11timeBetweenERKNS_8DateTimeES3_@Base 2.3.0~svn544
 _ZN7blocxx84Time12TimeDurationC1ENS0_12ESpecialTimeE@Base 2.3.0~svn544
 _ZN7blocxx84Time12TimeDurationC1ERKS1_@Base 2.3.0~svn544
 _ZN7blocxx84Time12TimeDurationC1Ed@Base 2.3.0~svn544
 _ZN7blocxx84Time12TimeDurationC1El@Base 2.3.0~svn544
 _ZN7blocxx84Time12TimeDurationC1Ev@Base 2.3.0~svn544
 _ZN7blocxx84Time12TimeDurationC2ENS0_12ESpecialTimeE@Base 2.3.0~svn544
 _ZN7blocxx84Time12TimeDurationC2ERKS1_@Base 2.3.0~svn544
 _ZN7blocxx84Time12TimeDurationC2Ed@Base 2.3.0~svn544
 _ZN7blocxx84Time12TimeDurationC2El@Base 2.3.0~svn544
 _ZN7blocxx84Time12TimeDurationC2Ev@Base 2.3.0~svn544
 _ZN7blocxx84Time12TimeDurationD1Ev@Base 2.3.0~svn544
 _ZN7blocxx84Time12TimeDurationD2Ev@Base 2.3.0~svn544
 _ZN7blocxx84Time12TimeDurationaSERKS1_@Base 2.3.0~svn544
 _ZN7blocxx84Time12infiniteTimeEv@Base 2.3.0~svn544
 _ZN7blocxx84Time12intersectionERKNS0_10TimePeriodES3_@Base 2.3.0~svn544
 _ZN7blocxx84Time12microsecondsEl@Base 2.3.0~svn544
 _ZN7blocxx84Time13isNegInfinityERKNS_8DateTimeE@Base 2.3.0~svn544
 _ZN7blocxx84Time13isPosInfinityERKNS_8DateTimeE@Base 2.3.0~svn544
 _ZN7blocxx84Time17invalidTimePeriodEv@Base 2.3.0~svn544
 _ZN7blocxx84Time18infiniteTimePeriodERKNS_8DateTimeE@Base 2.3.0~svn544
 _ZN7blocxx84Time21getDescriptionForFlagENS0_12ESpecialTimeE@Base 2.3.0~svn544
 _ZN7blocxx84Time4daysEl@Base 2.3.0~svn544
 _ZN7blocxx84Time4spanERKNS0_10TimePeriodES3_@Base 2.3.0~svn544
 _ZN7blocxx84Time5hoursEl@Base 2.3.0~svn544
 _ZN7blocxx84Time5mergeERKNS0_10TimePeriodES3_@Base 2.3.0~svn544
 _ZN7blocxx84Time7minutesEl@Base 2.3.0~svn544
 _ZN7blocxx84Time7secondsEl@Base 2.3.0~svn544
 _ZN7blocxx84Time9intersectERKNS0_10TimePeriodES3_@Base 2.3.0~svn544
 _ZN7blocxx84Time9isInvalidERKNS0_10TimePeriodE@Base 2.3.0~svn544
 _ZN7blocxx84Time9isInvalidERKNS0_12TimeDurationE@Base 2.3.0~svn544
 _ZN7blocxx84Time9isInvalidERKNS_8DateTimeE@Base 2.3.0~svn544
 _ZN7blocxx84Time9isSpecialERKNS0_12TimeDurationE@Base 2.3.0~svn544
 _ZN7blocxx84Time9isSpecialERKNS_8DateTimeE@Base 2.3.0~svn544
 _ZN7blocxx84TimeeqERKNS0_10TimePeriodES3_@Base 2.3.0~svn544
 _ZN7blocxx84TimeeqERKNS0_12TimeDurationES3_@Base 2.3.0~svn544
 _ZN7blocxx84TimegeERKNS0_12TimeDurationES3_@Base 2.3.0~svn544
 _ZN7blocxx84TimegtERKNS0_12TimeDurationES3_@Base 2.3.0~svn544
 _ZN7blocxx84TimeleERKNS0_12TimeDurationES3_@Base 2.3.0~svn544
 _ZN7blocxx84TimeltERKNS0_12TimeDurationES3_@Base 2.3.0~svn544
 _ZN7blocxx84TimemiERKNS0_12TimeDurationES3_@Base 2.3.0~svn544
 _ZN7blocxx84TimemlERKNS0_12TimeDurationEi@Base 2.3.0~svn544
 _ZN7blocxx84TimemlEiRKNS0_12TimeDurationE@Base 2.3.0~svn544
 _ZN7blocxx84TimeneERKNS0_10TimePeriodES3_@Base 2.3.0~svn544
 _ZN7blocxx84TimeneERKNS0_12TimeDurationES3_@Base 2.3.0~svn544
 _ZN7blocxx84TimengERKNS0_12TimeDurationE@Base 2.3.0~svn544
 _ZN7blocxx84TimeplERKNS0_12TimeDurationES3_@Base 2.3.0~svn544
 _ZN7blocxx84UUIDC1ERKNS_6StringE@Base 2.3.0~svn544
 _ZN7blocxx84UUIDC1Ev@Base 2.3.0~svn544
 _ZN7blocxx84UUIDC2ERKNS_6StringE@Base 2.3.0~svn544
 _ZN7blocxx84UUIDC2Ev@Base 2.3.0~svn544
 _ZN7blocxx85ArrayI10regmatch_tE3endEv@Base 2.3.0~svn544
 _ZN7blocxx85ArrayI10regmatch_tE5beginEv@Base 2.3.0~svn544
 _ZN7blocxx85ArrayI10regmatch_tE5clearEv@Base 2.3.0~svn544
 _ZN7blocxx85ArrayI10regmatch_tE6resizeEm@Base 2.3.0~svn544
 _ZN7blocxx85ArrayI10regmatch_tEC1Ev@Base 2.3.0~svn544
 _ZN7blocxx85ArrayI10regmatch_tEC2Ev@Base 2.3.0~svn544
 _ZN7blocxx85ArrayI10regmatch_tED1Ev@Base 2.3.0~svn544
 _ZN7blocxx85ArrayI10regmatch_tED2Ev@Base 2.3.0~svn544
 _ZN7blocxx85ArrayI10regmatch_tEixEm@Base 2.3.0~svn544
 _ZN7blocxx85ArrayINS0_IcEEEC1Em@Base 2.3.0~svn544
 _ZN7blocxx85ArrayINS0_IcEEEC2Em@Base 2.3.0~svn544
 _ZN7blocxx85ArrayINS0_IcEEED1Ev@Base 2.3.0~svn544
 _ZN7blocxx85ArrayINS0_IcEEED2Ev@Base 2.3.0~svn544
 _ZN7blocxx85ArrayINS0_IcEEEixEm@Base 2.3.0~svn544
 _ZN7blocxx85ArrayINS_18IntrusiveReferenceINS_11LogAppenderEEEE6appendERKS3_@Base 2.3.0~svn544
 _ZN7blocxx85ArrayINS_18IntrusiveReferenceINS_11LogAppenderEEEE9push_backERKS3_@Base 2.3.0~svn544
 _ZN7blocxx85ArrayINS_18IntrusiveReferenceINS_11LogAppenderEEEEC1ERKS4_@Base 2.3.0~svn544
 _ZN7blocxx85ArrayINS_18IntrusiveReferenceINS_11LogAppenderEEEEC1EiRKS3_@Base 2.3.0~svn544
 _ZN7blocxx85ArrayINS_18IntrusiveReferenceINS_11LogAppenderEEEEC2ERKS4_@Base 2.3.0~svn544
 _ZN7blocxx85ArrayINS_18IntrusiveReferenceINS_11LogAppenderEEEEC2EiRKS3_@Base 2.3.0~svn544
 _ZN7blocxx85ArrayINS_18IntrusiveReferenceINS_11LogAppenderEEEED1Ev@Base 2.3.0~svn544
 _ZN7blocxx85ArrayINS_18IntrusiveReferenceINS_11LogAppenderEEEED2Ev@Base 2.3.0~svn544
 _ZN7blocxx85ArrayINS_18IntrusiveReferenceINS_16ParserOptionImplEEEE3endEv@Base 2.3.0~svn544
 _ZN7blocxx85ArrayINS_18IntrusiveReferenceINS_16ParserOptionImplEEEE5beginEv@Base 2.3.0~svn544
 _ZN7blocxx85ArrayINS_18IntrusiveReferenceINS_16ParserOptionImplEEEE6appendERKS3_@Base 2.3.0~svn544
 _ZN7blocxx85ArrayINS_18IntrusiveReferenceINS_16ParserOptionImplEEEE9push_backERKS3_@Base 2.3.0~svn544
 _ZN7blocxx85ArrayINS_18IntrusiveReferenceINS_16ParserOptionImplEEEEC1ERKS4_@Base 2.3.0~svn544
 _ZN7blocxx85ArrayINS_18IntrusiveReferenceINS_16ParserOptionImplEEEEC1Ev@Base 2.3.0~svn544
 _ZN7blocxx85ArrayINS_18IntrusiveReferenceINS_16ParserOptionImplEEEEC2ERKS4_@Base 2.3.0~svn544
 _ZN7blocxx85ArrayINS_18IntrusiveReferenceINS_16ParserOptionImplEEEEC2Ev@Base 2.3.0~svn544
 _ZN7blocxx85ArrayINS_18IntrusiveReferenceINS_16ParserOptionImplEEEED1Ev@Base 2.3.0~svn544
 _ZN7blocxx85ArrayINS_18IntrusiveReferenceINS_16ParserOptionImplEEEED2Ev@Base 2.3.0~svn544
 _ZN7blocxx85ArrayINS_18IntrusiveReferenceINS_16ParserOptionImplEEEEaSERKS4_@Base 2.3.0~svn544
 _ZN7blocxx85ArrayINS_18IntrusiveReferenceINS_26LogMessagePatternFormatter9ConverterEEEE9push_backERKS4_@Base 2.3.0~svn544
 _ZN7blocxx85ArrayINS_18IntrusiveReferenceINS_26LogMessagePatternFormatter9ConverterEEEEC1Ev@Base 2.3.0~svn544
 _ZN7blocxx85ArrayINS_18IntrusiveReferenceINS_26LogMessagePatternFormatter9ConverterEEEEC2Ev@Base 2.3.0~svn544
 _ZN7blocxx85ArrayINS_18IntrusiveReferenceINS_26LogMessagePatternFormatter9ConverterEEEED1Ev@Base 2.3.0~svn544
 _ZN7blocxx85ArrayINS_18IntrusiveReferenceINS_26LogMessagePatternFormatter9ConverterEEEED2Ev@Base 2.3.0~svn544
 _ZN7blocxx85ArrayINS_18IntrusiveReferenceINS_6ThreadEEEE6removeEm@Base 2.3.0~svn544
 _ZN7blocxx85ArrayINS_18IntrusiveReferenceINS_6ThreadEEEE6resizeEm@Base 2.3.0~svn544
 _ZN7blocxx85ArrayINS_18IntrusiveReferenceINS_6ThreadEEEE7reserveEm@Base 2.3.0~svn544
 _ZN7blocxx85ArrayINS_18IntrusiveReferenceINS_6ThreadEEEE8pop_backEv@Base 2.3.0~svn544
 _ZN7blocxx85ArrayINS_18IntrusiveReferenceINS_6ThreadEEEE9push_backERKS3_@Base 2.3.0~svn544
 _ZN7blocxx85ArrayINS_18IntrusiveReferenceINS_6ThreadEEEEC1Ev@Base 2.3.0~svn544
 _ZN7blocxx85ArrayINS_18IntrusiveReferenceINS_6ThreadEEEEC2Ev@Base 2.3.0~svn544
 _ZN7blocxx85ArrayINS_18IntrusiveReferenceINS_6ThreadEEEED1Ev@Base 2.3.0~svn544
 _ZN7blocxx85ArrayINS_18IntrusiveReferenceINS_6ThreadEEEED2Ev@Base 2.3.0~svn544
 _ZN7blocxx85ArrayINS_18IntrusiveReferenceINS_6ThreadEEEEixEm@Base 2.3.0~svn544
 _ZN7blocxx85ArrayINS_18IntrusiveReferenceINS_7ProcessEEEE9push_backERKS3_@Base 2.3.0~svn544
 _ZN7blocxx85ArrayINS_18IntrusiveReferenceINS_7ProcessEEEEC1EiRKS3_@Base 2.3.0~svn544
 _ZN7blocxx85ArrayINS_18IntrusiveReferenceINS_7ProcessEEEEC1Ev@Base 2.3.0~svn544
 _ZN7blocxx85ArrayINS_18IntrusiveReferenceINS_7ProcessEEEEC2EiRKS3_@Base 2.3.0~svn544
 _ZN7blocxx85ArrayINS_18IntrusiveReferenceINS_7ProcessEEEEC2Ev@Base 2.3.0~svn544
 _ZN7blocxx85ArrayINS_18IntrusiveReferenceINS_7ProcessEEEED1Ev@Base 2.3.0~svn544
 _ZN7blocxx85ArrayINS_18IntrusiveReferenceINS_7ProcessEEEED2Ev@Base 2.3.0~svn544
 _ZN7blocxx85ArrayINS_18IntrusiveReferenceINS_7ProcessEEEEixEm@Base 2.3.0~svn544
 _ZN7blocxx85ArrayINS_6Select12SelectObjectEE7reserveEm@Base 2.3.0~svn544
 _ZN7blocxx85ArrayINS_6Select12SelectObjectEE9push_backERKS2_@Base 2.3.0~svn544
 _ZN7blocxx85ArrayINS_6Select12SelectObjectEEC1Ev@Base 2.3.0~svn544
 _ZN7blocxx85ArrayINS_6Select12SelectObjectEEC2Ev@Base 2.3.0~svn544
 _ZN7blocxx85ArrayINS_6Select12SelectObjectEED1Ev@Base 2.3.0~svn544
 _ZN7blocxx85ArrayINS_6Select12SelectObjectEED2Ev@Base 2.3.0~svn544
 _ZN7blocxx85ArrayINS_6Select12SelectObjectEEixEm@Base 2.3.0~svn544
 _ZN7blocxx85ArrayINS_6StringEE3endEv@Base 2.3.0~svn544
 _ZN7blocxx85ArrayINS_6StringEE5beginEv@Base 2.3.0~svn544
 _ZN7blocxx85ArrayINS_6StringEE5clearEv@Base 2.3.0~svn544
 _ZN7blocxx85ArrayINS_6StringEE6appendERKS1_@Base 2.3.0~svn544
 _ZN7blocxx85ArrayINS_6StringEE9push_backERKS1_@Base 2.3.0~svn544
 _ZN7blocxx85ArrayINS_6StringEEC1ERKS2_@Base 2.3.0~svn544
 _ZN7blocxx85ArrayINS_6StringEEC1Ev@Base 2.3.0~svn544
 _ZN7blocxx85ArrayINS_6StringEEC2ERKS2_@Base 2.3.0~svn544
 _ZN7blocxx85ArrayINS_6StringEEC2Ev@Base 2.3.0~svn544
 _ZN7blocxx85ArrayINS_6StringEED1Ev@Base 2.3.0~svn544
 _ZN7blocxx85ArrayINS_6StringEED2Ev@Base 2.3.0~svn544
 _ZN7blocxx85ArrayINS_6StringEEaSERKS2_@Base 2.3.0~svn544
 _ZN7blocxx85ArrayINS_6StringEEixEm@Base 2.3.0~svn544
 _ZN7blocxx85ArrayINS_9PerlRegEx7match_tEE3endEv@Base 2.3.0~svn544
 _ZN7blocxx85ArrayINS_9PerlRegEx7match_tEE5beginEv@Base 2.3.0~svn544
 _ZN7blocxx85ArrayINS_9PerlRegEx7match_tEE5clearEv@Base 2.3.0~svn544
 _ZN7blocxx85ArrayINS_9PerlRegEx7match_tEE6resizeEm@Base 2.3.0~svn544
 _ZN7blocxx85ArrayINS_9PerlRegEx7match_tEEC1Ev@Base 2.3.0~svn544
 _ZN7blocxx85ArrayINS_9PerlRegEx7match_tEEC2Ev@Base 2.3.0~svn544
 _ZN7blocxx85ArrayINS_9PerlRegEx7match_tEED1Ev@Base 2.3.0~svn544
 _ZN7blocxx85ArrayINS_9PerlRegEx7match_tEED2Ev@Base 2.3.0~svn544
 _ZN7blocxx85ArrayINS_9PerlRegEx7match_tEEixEm@Base 2.3.0~svn544
 _ZN7blocxx85ArrayINS_9ReferenceINS_22DelayedFormatInternals26DelayedFormatReferenceBaseEEEEC1Ev@Base 2.3.0~svn544
 _ZN7blocxx85ArrayINS_9ReferenceINS_22DelayedFormatInternals26DelayedFormatReferenceBaseEEEEC2Ev@Base 2.3.0~svn544
 _ZN7blocxx85ArrayINS_9ReferenceINS_22DelayedFormatInternals26DelayedFormatReferenceBaseEEEED1Ev@Base 2.3.0~svn544
 _ZN7blocxx85ArrayINS_9ReferenceINS_22DelayedFormatInternals26DelayedFormatReferenceBaseEEEED2Ev@Base 2.3.0~svn544
 _ZN7blocxx85ArrayIP7x509_stEC1Ev@Base 2.3.0~svn544
 _ZN7blocxx85ArrayIP7x509_stEC2Ev@Base 2.3.0~svn544
 _ZN7blocxx85ArrayIP7x509_stED1Ev@Base 2.3.0~svn544
 _ZN7blocxx85ArrayIP7x509_stED2Ev@Base 2.3.0~svn544
 _ZN7blocxx85ArrayIPKcE9push_backERKS2_@Base 2.3.0~svn544
 _ZN7blocxx85ArrayIPKcEC1Ev@Base 2.3.0~svn544
 _ZN7blocxx85ArrayIPKcEC2Ev@Base 2.3.0~svn544
 _ZN7blocxx85ArrayIPKcED1Ev@Base 2.3.0~svn544
 _ZN7blocxx85ArrayIPKcED2Ev@Base 2.3.0~svn544
 _ZN7blocxx85ArrayIPKcEixEm@Base 2.3.0~svn544
 _ZN7blocxx85ArrayISt4pairINS_6StringENS_17EFileStatusReturnEEE9push_backERKS4_@Base 2.3.0~svn544
 _ZN7blocxx85ArrayISt4pairINS_6StringENS_17EFileStatusReturnEEEC1Ev@Base 2.3.0~svn544
 _ZN7blocxx85ArrayISt4pairINS_6StringENS_17EFileStatusReturnEEEC2Ev@Base 2.3.0~svn544
 _ZN7blocxx85ArrayISt4pairINS_6StringENS_17EFileStatusReturnEEED1Ev@Base 2.3.0~svn544
 _ZN7blocxx85ArrayISt4pairINS_6StringENS_17EFileStatusReturnEEED2Ev@Base 2.3.0~svn544
 _ZN7blocxx85ArrayIcE3endEv@Base 2.3.0~svn544
 _ZN7blocxx85ArrayIcE5beginEv@Base 2.3.0~svn544
 _ZN7blocxx85ArrayIcE5eraseEN11__gnu_debug14_Safe_iteratorIN9__gnu_cxx17__normal_iteratorIPcNSt9__cxx19986vectorIcSaIcEEEEENSt7__debug6vectorIcS9_EEEESF_@Base 2.3.0~svn544
 _ZN7blocxx85ArrayIcE6insertIPKcEEvN11__gnu_debug14_Safe_iteratorIN9__gnu_cxx17__normal_iteratorIPcNSt9__cxx19986vectorIcSaIcEEEEENSt7__debug6vectorIcSC_EEEET_SJ_@Base 2.3.0~svn544
 _ZN7blocxx85ArrayIcEC1ERKS1_@Base 2.3.0~svn544
 _ZN7blocxx85ArrayIcEC1Ev@Base 2.3.0~svn544
 _ZN7blocxx85ArrayIcEC2ERKS1_@Base 2.3.0~svn544
 _ZN7blocxx85ArrayIcEC2Ev@Base 2.3.0~svn544
 _ZN7blocxx85ArrayIcED1Ev@Base 2.3.0~svn544
 _ZN7blocxx85ArrayIcED2Ev@Base 2.3.0~svn544
 _ZN7blocxx85ArrayIcEixEm@Base 2.3.0~svn544
 _ZN7blocxx85ArrayIiE5clearEv@Base 2.3.0~svn544
 _ZN7blocxx85ArrayIiE6resizeEm@Base 2.3.0~svn544
 _ZN7blocxx85ArrayIiE7reserveEm@Base 2.3.0~svn544
 _ZN7blocxx85ArrayIiE9push_backERKi@Base 2.3.0~svn544
 _ZN7blocxx85ArrayIiEC1Ev@Base 2.3.0~svn544
 _ZN7blocxx85ArrayIiEC2Ev@Base 2.3.0~svn544
 _ZN7blocxx85ArrayIiED1Ev@Base 2.3.0~svn544
 _ZN7blocxx85ArrayIiED2Ev@Base 2.3.0~svn544
 _ZN7blocxx85ArrayIiEixEm@Base 2.3.0~svn544
 _ZN7blocxx85ArrayItE9push_backERKt@Base 2.3.0~svn544
 _ZN7blocxx85ArrayItEC1Ev@Base 2.3.0~svn544
 _ZN7blocxx85ArrayItEC2Ev@Base 2.3.0~svn544
 _ZN7blocxx85ArrayItED1Ev@Base 2.3.0~svn544
 _ZN7blocxx85ArrayItED2Ev@Base 2.3.0~svn544
 _ZN7blocxx85ClockD0Ev@Base 2.3.0~svn544
 _ZN7blocxx85ClockD1Ev@Base 2.3.0~svn544
 _ZN7blocxx85ClockD2Ev@Base 2.3.0~svn544
 _ZN7blocxx85IConv12toByteStringERKNS_6StringES3_@Base 2.3.0~svn544
 _ZN7blocxx85IConv12toWideStringERKNS_6StringES3_@Base 2.3.0~svn544
 _ZN7blocxx85IConv14fromByteStringERKNS_6StringEPKcm@Base 2.3.0~svn544
 _ZN7blocxx85IConv14fromByteStringERKNS_6StringERKSs@Base 2.3.0~svn544
 _ZN7blocxx85IConv14fromWideStringERKNS_6StringERKSbIwSt11char_traitsIwESaIwEE@Base 2.3.0~svn544
 _ZN7blocxx85IOIFCC1Ev@Base 2.3.0~svn544
 _ZN7blocxx85IOIFCC2Ev@Base 2.3.0~svn544
 _ZN7blocxx85IOIFCD0Ev@Base 2.3.0~svn544
 _ZN7blocxx85IOIFCD1Ev@Base 2.3.0~svn544
 _ZN7blocxx85IOIFCD2Ev@Base 2.3.0~svn544
 _ZN7blocxx85Mutex7acquireEv@Base 2.3.0~svn544
 _ZN7blocxx85Mutex7releaseEv@Base 2.3.0~svn544
 _ZN7blocxx85MutexC1Ev@Base 2.3.0~svn544
 _ZN7blocxx85MutexC2Ev@Base 2.3.0~svn544
 _ZN7blocxx85MutexD1Ev@Base 2.3.0~svn544
 _ZN7blocxx85MutexD2Ev@Base 2.3.0~svn544
 _ZN7blocxx86Char1610readObjectERSt15basic_streambufIcSt11char_traitsIcEE@Base 2.3.0~svn544
 _ZN7blocxx86Char16C1ERKNS_6StringE@Base 2.3.0~svn544
 _ZN7blocxx86Char16C2ERKNS_6StringE@Base 2.3.0~svn544
 _ZN7blocxx86Format10clearFlagsERSoRNS0_5FlagsE@Base 2.3.0~svn544
 _ZN7blocxx86Format22processFormatSpecifierERNS_6StringERmS3_RNS0_5FlagsE@Base 2.3.0~svn544
 _ZN7blocxx86Format3putEPKcRNS0_5FlagsE@Base 2.3.0~svn544
 _ZN7blocxx86Format3putERKNS_6StringERNS0_5FlagsE@Base 2.3.0~svn544
 _ZN7blocxx86Format3putEcRNS0_5FlagsE@Base 2.3.0~svn544
 _ZN7blocxx86Format3putEdRNS0_5FlagsE@Base 2.3.0~svn544
 _ZN7blocxx86Format3putEeRNS0_5FlagsE@Base 2.3.0~svn544
 _ZN7blocxx86Format3putEfRNS0_5FlagsE@Base 2.3.0~svn544
 _ZN7blocxx86Format3putEhRNS0_5FlagsE@Base 2.3.0~svn544
 _ZN7blocxx86Format3putEiRNS0_5FlagsE@Base 2.3.0~svn544
 _ZN7blocxx86Format3putEjRNS0_5FlagsE@Base 2.3.0~svn544
 _ZN7blocxx86Format3putElRNS0_5FlagsE@Base 2.3.0~svn544
 _ZN7blocxx86Format3putEmRNS0_5FlagsE@Base 2.3.0~svn544
 _ZN7blocxx86Format3putEsRNS0_5FlagsE@Base 2.3.0~svn544
 _ZN7blocxx86Format3putEtRNS0_5FlagsE@Base 2.3.0~svn544
 _ZN7blocxx86Format3putExRNS0_5FlagsE@Base 2.3.0~svn544
 _ZN7blocxx86Format3putEyRNS0_5FlagsE@Base 2.3.0~svn544
 _ZN7blocxx86Format3putINS_12_GLOBAL__N_111EOptionTypeEEEvRKT_RNS0_5FlagsE@Base 2.3.0~svn544
 _ZN7blocxx86Format3putINS_15ThreadExceptionEEEvRKT_RNS0_5FlagsE@Base 2.3.0~svn544
 _ZN7blocxx86Format3putINS_22DelayedFormatInternals26DelayedFormatReferenceBaseEEEvRKT_RNS0_5FlagsE@Base 2.3.0~svn544
 _ZN7blocxx86Format3putINS_27CancellationDeniedExceptionEEEvRKT_RNS0_5FlagsE@Base 2.3.0~svn544
 _ZN7blocxx86Format3putINS_9ExceptionEEEvRKT_RNS0_5FlagsE@Base 2.3.0~svn544
 _ZN7blocxx86Format3putIPNS_8RWLockerEEEvRKT_RNS0_5FlagsE@Base 2.3.0~svn544
 _ZN7blocxx86Format3putIPcEEvRKT_RNS0_5FlagsE@Base 2.3.0~svn544
 _ZN7blocxx86Format3putIS0_EEvRKT_RNS0_5FlagsE@Base 2.3.0~svn544
 _ZN7blocxx86Format3putIbEEvRKT_RNS0_5FlagsE@Base 2.3.0~svn544
 _ZN7blocxx86Format5FlagsC1Ev@Base 2.3.0~svn544
 _ZN7blocxx86Format5FlagsC2Ev@Base 2.3.0~svn544
 _ZN7blocxx86Format7processERNS_6StringEmmRNS0_5FlagsENS0_19FormatErrorHandlingE@Base 2.3.0~svn544
 _ZN7blocxx86Format7putArgsIA1_cEEviRNS0_5FlagsERKT_@Base 2.3.0~svn544
 _ZN7blocxx86Format7putArgsIA2048_cIiEEEviRNS0_5FlagsERKT_DpRKT0_@Base 2.3.0~svn544
 _ZN7blocxx86Format7putArgsIA65_cEEviRNS0_5FlagsERKT_@Base 2.3.0~svn544
 _ZN7blocxx86Format7putArgsINS_12_GLOBAL__N_111EOptionTypeEINS_6StringES4_bEEEviRNS0_5FlagsERKT_DpRKT0_@Base 2.3.0~svn544
 _ZN7blocxx86Format7putArgsINS_15ThreadExceptionEEEviRNS0_5FlagsERKT_@Base 2.3.0~svn544
 _ZN7blocxx86Format7putArgsINS_22DelayedFormatInternals26DelayedFormatReferenceBaseEEEviRNS0_5FlagsERKT_@Base 2.3.0~svn544
 _ZN7blocxx86Format7putArgsINS_22DelayedFormatInternals26DelayedFormatReferenceBaseEIS3_EEEviRNS0_5FlagsERKT_DpRKT0_@Base 2.3.0~svn544
 _ZN7blocxx86Format7putArgsINS_22DelayedFormatInternals26DelayedFormatReferenceBaseEIS3_S3_EEEviRNS0_5FlagsERKT_DpRKT0_@Base 2.3.0~svn544
 _ZN7blocxx86Format7putArgsINS_22DelayedFormatInternals26DelayedFormatReferenceBaseEIS3_S3_S3_EEEviRNS0_5FlagsERKT_DpRKT0_@Base 2.3.0~svn544
 _ZN7blocxx86Format7putArgsINS_22DelayedFormatInternals26DelayedFormatReferenceBaseEIS3_S3_S3_S3_EEEviRNS0_5FlagsERKT_DpRKT0_@Base 2.3.0~svn544
 _ZN7blocxx86Format7putArgsINS_22DelayedFormatInternals26DelayedFormatReferenceBaseEIS3_S3_S3_S3_S3_EEEviRNS0_5FlagsERKT_DpRKT0_@Base 2.3.0~svn544
 _ZN7blocxx86Format7putArgsINS_22DelayedFormatInternals26DelayedFormatReferenceBaseEIS3_S3_S3_S3_S3_S3_EEEviRNS0_5FlagsERKT_DpRKT0_@Base 2.3.0~svn544
 _ZN7blocxx86Format7putArgsINS_22DelayedFormatInternals26DelayedFormatReferenceBaseEIS3_S3_S3_S3_S3_S3_S3_EEEviRNS0_5FlagsERKT_DpRKT0_@Base 2.3.0~svn544
 _ZN7blocxx86Format7putArgsINS_22DelayedFormatInternals26DelayedFormatReferenceBaseEIS3_S3_S3_S3_S3_S3_S3_S3_EEEviRNS0_5FlagsERKT_DpRKT0_@Base 2.3.0~svn544
 _ZN7blocxx86Format7putArgsINS_27CancellationDeniedExceptionEIjEEEviRNS0_5FlagsERKT_DpRKT0_@Base 2.3.0~svn544
 _ZN7blocxx86Format7putArgsINS_6StringEEEviRNS0_5FlagsERKT_@Base 2.3.0~svn544
 _ZN7blocxx86Format7putArgsINS_6StringEIA65_cEEEviRNS0_5FlagsERKT_DpRKT0_@Base 2.3.0~svn544
 _ZN7blocxx86Format7putArgsINS_6StringEIPKcEEEviRNS0_5FlagsERKT_DpRKT0_@Base 2.3.0~svn544
 _ZN7blocxx86Format7putArgsINS_6StringEIS2_S2_S2_llllEEEviRNS0_5FlagsERKT_DpRKT0_@Base 2.3.0~svn544
 _ZN7blocxx86Format7putArgsINS_6StringEIS2_S2_llllEEEviRNS0_5FlagsERKT_DpRKT0_@Base 2.3.0~svn544
 _ZN7blocxx86Format7putArgsINS_6StringEIS2_bEEEviRNS0_5FlagsERKT_DpRKT0_@Base 2.3.0~svn544
 _ZN7blocxx86Format7putArgsINS_6StringEIS2_iEEEviRNS0_5FlagsERKT_DpRKT0_@Base 2.3.0~svn544
 _ZN7blocxx86Format7putArgsINS_6StringEIS2_llllEEEviRNS0_5FlagsERKT_DpRKT0_@Base 2.3.0~svn544
 _ZN7blocxx86Format7putArgsINS_6StringEIbEEEviRNS0_5FlagsERKT_DpRKT0_@Base 2.3.0~svn544
 _ZN7blocxx86Format7putArgsINS_6StringEIcEEEviRNS0_5FlagsERKT_DpRKT0_@Base 2.3.0~svn544
 _ZN7blocxx86Format7putArgsINS_6StringEIcS2_cEEEviRNS0_5FlagsERKT_DpRKT0_@Base 2.3.0~svn544
 _ZN7blocxx86Format7putArgsINS_6StringEIiEEEviRNS0_5FlagsERKT_DpRKT0_@Base 2.3.0~svn544
 _ZN7blocxx86Format7putArgsINS_6StringEIllllEEEviRNS0_5FlagsERKT_DpRKT0_@Base 2.3.0~svn544
 _ZN7blocxx86Format7putArgsINS_6StringEImEEEviRNS0_5FlagsERKT_DpRKT0_@Base 2.3.0~svn544
 _ZN7blocxx86Format7putArgsINS_6StringEImS2_EEEviRNS0_5FlagsERKT_DpRKT0_@Base 2.3.0~svn544
 _ZN7blocxx86Format7putArgsINS_6StringEImcEEEviRNS0_5FlagsERKT_DpRKT0_@Base 2.3.0~svn544
 _ZN7blocxx86Format7putArgsINS_9ExceptionEEEviRNS0_5FlagsERKT_@Base 2.3.0~svn544
 _ZN7blocxx86Format7putArgsIPKcEEviRNS0_5FlagsERKT_@Base 2.3.0~svn544
 _ZN7blocxx86Format7putArgsIPKcINS_9ExceptionEEEEviRNS0_5FlagsERKT_DpRKT0_@Base 2.3.0~svn544
 _ZN7blocxx86Format7putArgsIPKcIS3_EEEviRNS0_5FlagsERKT_DpRKT0_@Base 2.3.0~svn544
 _ZN7blocxx86Format7putArgsIPKcIiEEEviRNS0_5FlagsERKT_DpRKT0_@Base 2.3.0~svn544
 _ZN7blocxx86Format7putArgsIPKcIiS3_EEEviRNS0_5FlagsERKT_DpRKT0_@Base 2.3.0~svn544
 _ZN7blocxx86Format7putArgsIPNS_8RWLockerEEEviRNS0_5FlagsERKT_@Base 2.3.0~svn544
 _ZN7blocxx86Format7putArgsIPcEEviRNS0_5FlagsERKT_@Base 2.3.0~svn544
 _ZN7blocxx86Format7putArgsIPcIPKcEEEviRNS0_5FlagsERKT_DpRKT0_@Base 2.3.0~svn544
 _ZN7blocxx86Format7putArgsIS0_EEviRNS0_5FlagsERKT_@Base 2.3.0~svn544
 _ZN7blocxx86Format7putArgsIbEEviRNS0_5FlagsERKT_@Base 2.3.0~svn544
 _ZN7blocxx86Format7putArgsIcEEviRNS0_5FlagsERKT_@Base 2.3.0~svn544
 _ZN7blocxx86Format7putArgsIcINS_6StringEEEEviRNS0_5FlagsERKT_DpRKT0_@Base 2.3.0~svn544
 _ZN7blocxx86Format7putArgsIcINS_6StringEcEEEviRNS0_5FlagsERKT_DpRKT0_@Base 2.3.0~svn544
 _ZN7blocxx86Format7putArgsIcIcEEEviRNS0_5FlagsERKT_DpRKT0_@Base 2.3.0~svn544
 _ZN7blocxx86Format7putArgsIcIcNS_6StringEEEEviRNS0_5FlagsERKT_DpRKT0_@Base 2.3.0~svn544
 _ZN7blocxx86Format7putArgsIiEEviRNS0_5FlagsERKT_@Base 2.3.0~svn544
 _ZN7blocxx86Format7putArgsIiINS_6StringEEEEviRNS0_5FlagsERKT_DpRKT0_@Base 2.3.0~svn544
 _ZN7blocxx86Format7putArgsIiINS_6StringES2_S2_S2_llllEEEviRNS0_5FlagsERKT_DpRKT0_@Base 2.3.0~svn544
 _ZN7blocxx86Format7putArgsIiINS_6StringES2_iEEEviRNS0_5FlagsERKT_DpRKT0_@Base 2.3.0~svn544
 _ZN7blocxx86Format7putArgsIiINS_9ExceptionEEEEviRNS0_5FlagsERKT_DpRKT0_@Base 2.3.0~svn544
 _ZN7blocxx86Format7putArgsIiIPKcEEEviRNS0_5FlagsERKT_DpRKT0_@Base 2.3.0~svn544
 _ZN7blocxx86Format7putArgsIiIPKcS3_EEEviRNS0_5FlagsERKT_DpRKT0_@Base 2.3.0~svn544
 _ZN7blocxx86Format7putArgsIiIPcEEEviRNS0_5FlagsERKT_DpRKT0_@Base 2.3.0~svn544
 _ZN7blocxx86Format7putArgsIiIS0_EEEviRNS0_5FlagsERKT_DpRKT0_@Base 2.3.0~svn544
 _ZN7blocxx86Format7putArgsIiIiEEEviRNS0_5FlagsERKT_DpRKT0_@Base 2.3.0~svn544
 _ZN7blocxx86Format7putArgsIiIiNS_6StringEEEEviRNS0_5FlagsERKT_DpRKT0_@Base 2.3.0~svn544
 _ZN7blocxx86Format7putArgsIiIiS0_EEEviRNS0_5FlagsERKT_DpRKT0_@Base 2.3.0~svn544
 _ZN7blocxx86Format7putArgsIiIiiNS_6StringEEEEviRNS0_5FlagsERKT_DpRKT0_@Base 2.3.0~svn544
 _ZN7blocxx86Format7putArgsIiIiiS0_EEEviRNS0_5FlagsERKT_DpRKT0_@Base 2.3.0~svn544
 _ZN7blocxx86Format7putArgsIiImEEEviRNS0_5FlagsERKT_DpRKT0_@Base 2.3.0~svn544
 _ZN7blocxx86Format7putArgsIiImNS_6StringEEEEviRNS0_5FlagsERKT_DpRKT0_@Base 2.3.0~svn544
 _ZN7blocxx86Format7putArgsIjEEviRNS0_5FlagsERKT_@Base 2.3.0~svn544
 _ZN7blocxx86Format7putArgsIjINS_15ThreadExceptionEEEEviRNS0_5FlagsERKT_DpRKT0_@Base 2.3.0~svn544
 _ZN7blocxx86Format7putArgsIlEEviRNS0_5FlagsERKT_@Base 2.3.0~svn544
 _ZN7blocxx86Format7putArgsIlIiEEEviRNS0_5FlagsERKT_DpRKT0_@Base 2.3.0~svn544
 _ZN7blocxx86Format7putArgsIlIlEEEviRNS0_5FlagsERKT_DpRKT0_@Base 2.3.0~svn544
 _ZN7blocxx86Format7putArgsIlIllEEEviRNS0_5FlagsERKT_DpRKT0_@Base 2.3.0~svn544
 _ZN7blocxx86Format7putArgsIlIlllEEEviRNS0_5FlagsERKT_DpRKT0_@Base 2.3.0~svn544
 _ZN7blocxx86Format7putArgsImEEviRNS0_5FlagsERKT_@Base 2.3.0~svn544
 _ZN7blocxx86Format7putArgsImINS_6StringEEEEviRNS0_5FlagsERKT_DpRKT0_@Base 2.3.0~svn544
 _ZN7blocxx86Format7putArgsImIcEEEviRNS0_5FlagsERKT_DpRKT0_@Base 2.3.0~svn544
 _ZN7blocxx86Format7putArgsImImEEEviRNS0_5FlagsERKT_DpRKT0_@Base 2.3.0~svn544
 _ZN7blocxx86Format8useFlagsERSoRNS0_5FlagsE@Base 2.3.0~svn544
 _ZN7blocxx86FormatC1EPKcRKNS_6StringE@Base 2.3.0~svn544
 _ZN7blocxx86FormatC1EPKcRKNS_6StringES5_@Base 2.3.0~svn544
 _ZN7blocxx86FormatC1EPKcRKNS_6StringES5_S5_@Base 2.3.0~svn544
 _ZN7blocxx86FormatC1Ev@Base 2.3.0~svn544
 _ZN7blocxx86FormatC1IIA1_cEEEPKcDpRKT_@Base 2.3.0~svn544
 _ZN7blocxx86FormatC1IIA2048_ciEEEPKcDpRKT_@Base 2.3.0~svn544
 _ZN7blocxx86FormatC1IINS_12_GLOBAL__N_111EOptionTypeENS_6StringES4_bEEEPKcDpRKT_@Base 2.3.0~svn544
 _ZN7blocxx86FormatC1IINS_15ThreadExceptionEEEEPKcDpRKT_@Base 2.3.0~svn544
 _ZN7blocxx86FormatC1IINS_22DelayedFormatInternals26DelayedFormatReferenceBaseEEEEPKcDpRKT_@Base 2.3.0~svn544
 _ZN7blocxx86FormatC1IINS_22DelayedFormatInternals26DelayedFormatReferenceBaseES3_EEEPKcDpRKT_@Base 2.3.0~svn544
 _ZN7blocxx86FormatC1IINS_22DelayedFormatInternals26DelayedFormatReferenceBaseES3_S3_EEEPKcDpRKT_@Base 2.3.0~svn544
 _ZN7blocxx86FormatC1IINS_22DelayedFormatInternals26DelayedFormatReferenceBaseES3_S3_S3_EEEPKcDpRKT_@Base 2.3.0~svn544
 _ZN7blocxx86FormatC1IINS_22DelayedFormatInternals26DelayedFormatReferenceBaseES3_S3_S3_S3_EEEPKcDpRKT_@Base 2.3.0~svn544
 _ZN7blocxx86FormatC1IINS_22DelayedFormatInternals26DelayedFormatReferenceBaseES3_S3_S3_S3_S3_EEEPKcDpRKT_@Base 2.3.0~svn544
 _ZN7blocxx86FormatC1IINS_22DelayedFormatInternals26DelayedFormatReferenceBaseES3_S3_S3_S3_S3_S3_EEEPKcDpRKT_@Base 2.3.0~svn544
 _ZN7blocxx86FormatC1IINS_22DelayedFormatInternals26DelayedFormatReferenceBaseES3_S3_S3_S3_S3_S3_S3_EEEPKcDpRKT_@Base 2.3.0~svn544
 _ZN7blocxx86FormatC1IINS_22DelayedFormatInternals26DelayedFormatReferenceBaseES3_S3_S3_S3_S3_S3_S3_S3_EEEPKcDpRKT_@Base 2.3.0~svn544
 _ZN7blocxx86FormatC1IINS_27CancellationDeniedExceptionEjEEEPKcDpRKT_@Base 2.3.0~svn544
 _ZN7blocxx86FormatC1IINS_6StringEA65_cEEEPKcDpRKT_@Base 2.3.0~svn544
 _ZN7blocxx86FormatC1IINS_6StringEPKcEEES4_DpRKT_@Base 2.3.0~svn544
 _ZN7blocxx86FormatC1IINS_6StringEcS2_cEEEPKcDpRKT_@Base 2.3.0~svn544
 _ZN7blocxx86FormatC1IINS_6StringEiEEEPKcDpRKT_@Base 2.3.0~svn544
 _ZN7blocxx86FormatC1IINS_6StringEmEEEPKcDpRKT_@Base 2.3.0~svn544
 _ZN7blocxx86FormatC1IINS_6StringEmS2_EEEPKcDpRKT_@Base 2.3.0~svn544
 _ZN7blocxx86FormatC1IINS_6StringEmcEEEPKcDpRKT_@Base 2.3.0~svn544
 _ZN7blocxx86FormatC1IINS_9ExceptionEEEEPKcDpRKT_@Base 2.3.0~svn544
 _ZN7blocxx86FormatC1IIPKcEEES3_DpRKT_@Base 2.3.0~svn544
 _ZN7blocxx86FormatC1IIPKcNS_9ExceptionEEEES3_DpRKT_@Base 2.3.0~svn544
 _ZN7blocxx86FormatC1IIPKcS3_EEES3_DpRKT_@Base 2.3.0~svn544
 _ZN7blocxx86FormatC1IIPKciEEES3_DpRKT_@Base 2.3.0~svn544
 _ZN7blocxx86FormatC1IIPKciS3_EEES3_DpRKT_@Base 2.3.0~svn544
 _ZN7blocxx86FormatC1IIPNS_8RWLockerEEEEPKcDpRKT_@Base 2.3.0~svn544
 _ZN7blocxx86FormatC1IIPcEEEPKcDpRKT_@Base 2.3.0~svn544
 _ZN7blocxx86FormatC1IIPcPKcEEES4_DpRKT_@Base 2.3.0~svn544
 _ZN7blocxx86FormatC1IIccEEEPKcDpRKT_@Base 2.3.0~svn544
 _ZN7blocxx86FormatC1IIccNS_6StringEEEEPKcDpRKT_@Base 2.3.0~svn544
 _ZN7blocxx86FormatC1IIiEEEPKcDpRKT_@Base 2.3.0~svn544
 _ZN7blocxx86FormatC1IIiNS_6StringEEEEPKcDpRKT_@Base 2.3.0~svn544
 _ZN7blocxx86FormatC1IIiNS_6StringES2_S2_S2_llllEEEPKcDpRKT_@Base 2.3.0~svn544
 _ZN7blocxx86FormatC1IIiNS_6StringES2_iEEEPKcDpRKT_@Base 2.3.0~svn544
 _ZN7blocxx86FormatC1IIiNS_9ExceptionEEEEPKcDpRKT_@Base 2.3.0~svn544
 _ZN7blocxx86FormatC1IIiPKcS3_EEES3_DpRKT_@Base 2.3.0~svn544
 _ZN7blocxx86FormatC1IIiPcEEEPKcDpRKT_@Base 2.3.0~svn544
 _ZN7blocxx86FormatC1IIiiEEEPKcDpRKT_@Base 2.3.0~svn544
 _ZN7blocxx86FormatC1IIiiiNS_6StringEEEEPKcDpRKT_@Base 2.3.0~svn544
 _ZN7blocxx86FormatC1IIiiiS0_EEEPKcDpRKT_@Base 2.3.0~svn544
 _ZN7blocxx86FormatC1IIimEEEPKcDpRKT_@Base 2.3.0~svn544
 _ZN7blocxx86FormatC1IIimNS_6StringEEEEPKcDpRKT_@Base 2.3.0~svn544
 _ZN7blocxx86FormatC1IIjEEEPKcDpRKT_@Base 2.3.0~svn544
 _ZN7blocxx86FormatC1IIjNS_15ThreadExceptionEEEEPKcDpRKT_@Base 2.3.0~svn544
 _ZN7blocxx86FormatC1IIlEEEPKcDpRKT_@Base 2.3.0~svn544
 _ZN7blocxx86FormatC1IIliEEEPKcDpRKT_@Base 2.3.0~svn544
 _ZN7blocxx86FormatC1IIllEEEPKcDpRKT_@Base 2.3.0~svn544
 _ZN7blocxx86FormatC1IImEEEPKcDpRKT_@Base 2.3.0~svn544
 _ZN7blocxx86FormatC1IImmEEEPKcDpRKT_@Base 2.3.0~svn544
 _ZN7blocxx86FormatC2EPKcRKNS_6StringE@Base 2.3.0~svn544
 _ZN7blocxx86FormatC2EPKcRKNS_6StringES5_@Base 2.3.0~svn544
 _ZN7blocxx86FormatC2EPKcRKNS_6StringES5_S5_@Base 2.3.0~svn544
 _ZN7blocxx86FormatC2Ev@Base 2.3.0~svn544
 _ZN7blocxx86FormatC2IIA1_cEEEPKcDpRKT_@Base 2.3.0~svn544
 _ZN7blocxx86FormatC2IIA2048_ciEEEPKcDpRKT_@Base 2.3.0~svn544
 _ZN7blocxx86FormatC2IINS_12_GLOBAL__N_111EOptionTypeENS_6StringES4_bEEEPKcDpRKT_@Base 2.3.0~svn544
 _ZN7blocxx86FormatC2IINS_15ThreadExceptionEEEEPKcDpRKT_@Base 2.3.0~svn544
 _ZN7blocxx86FormatC2IINS_22DelayedFormatInternals26DelayedFormatReferenceBaseEEEEPKcDpRKT_@Base 2.3.0~svn544
 _ZN7blocxx86FormatC2IINS_22DelayedFormatInternals26DelayedFormatReferenceBaseES3_EEEPKcDpRKT_@Base 2.3.0~svn544
 _ZN7blocxx86FormatC2IINS_22DelayedFormatInternals26DelayedFormatReferenceBaseES3_S3_EEEPKcDpRKT_@Base 2.3.0~svn544
 _ZN7blocxx86FormatC2IINS_22DelayedFormatInternals26DelayedFormatReferenceBaseES3_S3_S3_EEEPKcDpRKT_@Base 2.3.0~svn544
 _ZN7blocxx86FormatC2IINS_22DelayedFormatInternals26DelayedFormatReferenceBaseES3_S3_S3_S3_EEEPKcDpRKT_@Base 2.3.0~svn544
 _ZN7blocxx86FormatC2IINS_22DelayedFormatInternals26DelayedFormatReferenceBaseES3_S3_S3_S3_S3_EEEPKcDpRKT_@Base 2.3.0~svn544
 _ZN7blocxx86FormatC2IINS_22DelayedFormatInternals26DelayedFormatReferenceBaseES3_S3_S3_S3_S3_S3_EEEPKcDpRKT_@Base 2.3.0~svn544
 _ZN7blocxx86FormatC2IINS_22DelayedFormatInternals26DelayedFormatReferenceBaseES3_S3_S3_S3_S3_S3_S3_EEEPKcDpRKT_@Base 2.3.0~svn544
 _ZN7blocxx86FormatC2IINS_22DelayedFormatInternals26DelayedFormatReferenceBaseES3_S3_S3_S3_S3_S3_S3_S3_EEEPKcDpRKT_@Base 2.3.0~svn544
 _ZN7blocxx86FormatC2IINS_27CancellationDeniedExceptionEjEEEPKcDpRKT_@Base 2.3.0~svn544
 _ZN7blocxx86FormatC2IINS_6StringEA65_cEEEPKcDpRKT_@Base 2.3.0~svn544
 _ZN7blocxx86FormatC2IINS_6StringEPKcEEES4_DpRKT_@Base 2.3.0~svn544
 _ZN7blocxx86FormatC2IINS_6StringEcS2_cEEEPKcDpRKT_@Base 2.3.0~svn544
 _ZN7blocxx86FormatC2IINS_6StringEiEEEPKcDpRKT_@Base 2.3.0~svn544
 _ZN7blocxx86FormatC2IINS_6StringEmEEEPKcDpRKT_@Base 2.3.0~svn544
 _ZN7blocxx86FormatC2IINS_6StringEmS2_EEEPKcDpRKT_@Base 2.3.0~svn544
 _ZN7blocxx86FormatC2IINS_6StringEmcEEEPKcDpRKT_@Base 2.3.0~svn544
 _ZN7blocxx86FormatC2IINS_9ExceptionEEEEPKcDpRKT_@Base 2.3.0~svn544
 _ZN7blocxx86FormatC2IIPKcEEES3_DpRKT_@Base 2.3.0~svn544
 _ZN7blocxx86FormatC2IIPKcNS_9ExceptionEEEES3_DpRKT_@Base 2.3.0~svn544
 _ZN7blocxx86FormatC2IIPKcS3_EEES3_DpRKT_@Base 2.3.0~svn544
 _ZN7blocxx86FormatC2IIPKciEEES3_DpRKT_@Base 2.3.0~svn544
 _ZN7blocxx86FormatC2IIPKciS3_EEES3_DpRKT_@Base 2.3.0~svn544
 _ZN7blocxx86FormatC2IIPNS_8RWLockerEEEEPKcDpRKT_@Base 2.3.0~svn544
 _ZN7blocxx86FormatC2IIPcEEEPKcDpRKT_@Base 2.3.0~svn544
 _ZN7blocxx86FormatC2IIPcPKcEEES4_DpRKT_@Base 2.3.0~svn544
 _ZN7blocxx86FormatC2IIccEEEPKcDpRKT_@Base 2.3.0~svn544
 _ZN7blocxx86FormatC2IIccNS_6StringEEEEPKcDpRKT_@Base 2.3.0~svn544
 _ZN7blocxx86FormatC2IIiEEEPKcDpRKT_@Base 2.3.0~svn544
 _ZN7blocxx86FormatC2IIiNS_6StringEEEEPKcDpRKT_@Base 2.3.0~svn544
 _ZN7blocxx86FormatC2IIiNS_6StringES2_S2_S2_llllEEEPKcDpRKT_@Base 2.3.0~svn544
 _ZN7blocxx86FormatC2IIiNS_6StringES2_iEEEPKcDpRKT_@Base 2.3.0~svn544
 _ZN7blocxx86FormatC2IIiNS_9ExceptionEEEEPKcDpRKT_@Base 2.3.0~svn544
 _ZN7blocxx86FormatC2IIiPKcS3_EEES3_DpRKT_@Base 2.3.0~svn544
 _ZN7blocxx86FormatC2IIiPcEEEPKcDpRKT_@Base 2.3.0~svn544
 _ZN7blocxx86FormatC2IIiiEEEPKcDpRKT_@Base 2.3.0~svn544
 _ZN7blocxx86FormatC2IIiiiNS_6StringEEEEPKcDpRKT_@Base 2.3.0~svn544
 _ZN7blocxx86FormatC2IIiiiS0_EEEPKcDpRKT_@Base 2.3.0~svn544
 _ZN7blocxx86FormatC2IIimEEEPKcDpRKT_@Base 2.3.0~svn544
 _ZN7blocxx86FormatC2IIimNS_6StringEEEEPKcDpRKT_@Base 2.3.0~svn544
 _ZN7blocxx86FormatC2IIjEEEPKcDpRKT_@Base 2.3.0~svn544
 _ZN7blocxx86FormatC2IIjNS_15ThreadExceptionEEEEPKcDpRKT_@Base 2.3.0~svn544
 _ZN7blocxx86FormatC2IIlEEEPKcDpRKT_@Base 2.3.0~svn544
 _ZN7blocxx86FormatC2IIliEEEPKcDpRKT_@Base 2.3.0~svn544
 _ZN7blocxx86FormatC2IIllEEEPKcDpRKT_@Base 2.3.0~svn544
 _ZN7blocxx86FormatC2IImEEEPKcDpRKT_@Base 2.3.0~svn544
 _ZN7blocxx86FormatC2IImmEEEPKcDpRKT_@Base 2.3.0~svn544
 _ZN7blocxx86FormatD0Ev@Base 2.3.0~svn544
 _ZN7blocxx86FormatD1Ev@Base 2.3.0~svn544
 _ZN7blocxx86FormatD2Ev@Base 2.3.0~svn544
 _ZN7blocxx86Logger11setLogLevelENS_9ELogLevelE@Base 2.3.0~svn544
 _ZN7blocxx86Logger11setLogLevelERKNS_6StringE@Base 2.3.0~svn544
 _ZN7blocxx86Logger16STR_ALL_CATEGORYE@Base 2.3.0~svn544
 _ZN7blocxx86Logger16logLevelToStringENS_9ELogLevelE@Base 2.3.0~svn544
 _ZN7blocxx86Logger16stringToLogLevelERKNS_6StringE@Base 2.3.0~svn544
 _ZN7blocxx86Logger17STR_INFO_CATEGORYE@Base 2.3.0~svn544
 _ZN7blocxx86Logger17STR_NONE_CATEGORYE@Base 2.3.0~svn544
 _ZN7blocxx86Logger18STR_DEBUG_CATEGORYE@Base 2.3.0~svn544
 _ZN7blocxx86Logger18STR_ERROR_CATEGORYE@Base 2.3.0~svn544
 _ZN7blocxx86Logger18STR_FATAL_CATEGORYE@Base 2.3.0~svn544
 _ZN7blocxx86Logger19STR_DEBUG2_CATEGORYE@Base 2.3.0~svn544
 _ZN7blocxx86Logger19STR_DEBUG3_CATEGORYE@Base 2.3.0~svn544
 _ZN7blocxx86Logger19setDefaultComponentERKNS_6StringE@Base 2.3.0~svn544
 _ZN7blocxx86Logger20STR_WARNING_CATEGORYE@Base 2.3.0~svn544
 _ZN7blocxx86Logger21STR_DEFAULT_COMPONENTE@Base 2.3.0~svn544
 _ZN7blocxx86Logger4swapERS0_@Base 2.3.0~svn544
 _ZN7blocxx86Logger8asLoggerERKS0_@Base 2.3.0~svn544
 _ZN7blocxx86LoggerC1ERKNS_6StringENS_9ELogLevelE@Base 2.3.0~svn544
 _ZN7blocxx86LoggerC1ERKNS_6StringERKNS_18IntrusiveReferenceINS_11LogAppenderEEE@Base 2.3.0~svn544
 _ZN7blocxx86LoggerC1ERKS0_@Base 2.3.0~svn544
 _ZN7blocxx86LoggerC2ERKNS_6StringENS_9ELogLevelE@Base 2.3.0~svn544
 _ZN7blocxx86LoggerC2ERKNS_6StringERKNS_18IntrusiveReferenceINS_11LogAppenderEEE@Base 2.3.0~svn544
 _ZN7blocxx86LoggerC2ERKS0_@Base 2.3.0~svn544
 _ZN7blocxx86LoggerD0Ev@Base 2.3.0~svn544
 _ZN7blocxx86LoggerD1Ev@Base 2.3.0~svn544
 _ZN7blocxx86LoggerD2Ev@Base 2.3.0~svn544
 _ZN7blocxx86LoggeraSERKS0_@Base 2.3.0~svn544
 _ZN7blocxx86Secure10rand_rangeItEET_S2_S2_@Base 2.3.0~svn544
 _ZN7blocxx86Secure11fork_reseedEv@Base 2.3.0~svn544
 _ZN7blocxx86Secure15rand_save_stateEv@Base 2.3.0~svn544
 _ZN7blocxx86Secure18minimalEnvironmentEv@Base 2.3.0~svn544
 _ZN7blocxx86Secure21ProcessAbortExceptionC1EPKciS3_iPKNS_9ExceptionEi@Base 2.3.0~svn544
 _ZN7blocxx86Secure21ProcessAbortExceptionC1ERKS1_@Base 2.3.0~svn544
 _ZN7blocxx86Secure21ProcessAbortExceptionC2EPKciS3_iPKNS_9ExceptionEi@Base 2.3.0~svn544
 _ZN7blocxx86Secure21ProcessAbortExceptionC2ERKS1_@Base 2.3.0~svn544
 _ZN7blocxx86Secure21ProcessAbortExceptionD0Ev@Base 2.3.0~svn544
 _ZN7blocxx86Secure21ProcessAbortExceptionD1Ev@Base 2.3.0~svn544
 _ZN7blocxx86Secure21ProcessAbortExceptionD2Ev@Base 2.3.0~svn544
 _ZN7blocxx86Secure25dropPrivilegesPermanentlyEjjNS0_17EChildGroupActionE@Base 2.3.0~svn544
 _ZN7blocxx86Secure4Impl10rand_rangeIaEET_S3_S3_@Base 2.3.0~svn544
 _ZN7blocxx86Secure4Impl10rand_rangeIcEET_S3_S3_@Base 2.3.0~svn544
 _ZN7blocxx86Secure4Impl10rand_rangeIhEET_S3_S3_@Base 2.3.0~svn544
 _ZN7blocxx86Secure4Impl10rand_rangeIiEET_S3_S3_@Base 2.3.0~svn544
 _ZN7blocxx86Secure4Impl10rand_rangeIjEET_S3_S3_@Base 2.3.0~svn544
 _ZN7blocxx86Secure4Impl10rand_rangeIlEET_S3_S3_@Base 2.3.0~svn544
 _ZN7blocxx86Secure4Impl10rand_rangeImEET_S3_S3_@Base 2.3.0~svn544
 _ZN7blocxx86Secure4Impl10rand_rangeIsEET_S3_S3_@Base 2.3.0~svn544
 _ZN7blocxx86Secure4Impl10rand_rangeItEET_S3_S3_@Base 2.3.0~svn544
 _ZN7blocxx86Secure4Impl10rand_rangeIxEET_S3_S3_@Base 2.3.0~svn544
 _ZN7blocxx86Secure4Impl10rand_rangeIyEET_S3_S3_@Base 2.3.0~svn544
 _ZN7blocxx86Secure4Impl12rand_uint_ltIhEET_S3_@Base 2.3.0~svn544
 _ZN7blocxx86Secure4Impl12rand_uint_ltIjEET_S3_@Base 2.3.0~svn544
 _ZN7blocxx86Secure4Impl12rand_uint_ltImEET_S3_@Base 2.3.0~svn544
 _ZN7blocxx86Secure4Impl12rand_uint_ltItEET_S3_@Base 2.3.0~svn544
 _ZN7blocxx86Secure4Impl12rand_uint_ltIyEET_S3_@Base 2.3.0~svn544
 _ZN7blocxx86Secure4Impl18rand_unit_intervalIdEET_v@Base 2.3.0~svn544
 _ZN7blocxx86Secure4Impl18rand_unit_intervalIeEET_v@Base 2.3.0~svn544
 _ZN7blocxx86Secure4Impl18rand_unit_intervalIfEET_v@Base 2.3.0~svn544
 _ZN7blocxx86Secure4randEPhm@Base 2.3.0~svn544
 _ZN7blocxx86Secure5runAsEPKcNS0_17EChildGroupActionE@Base 2.3.0~svn544
 _ZN7blocxx86Secure9rand_initEv@Base 2.3.0~svn544
 _ZN7blocxx86Secure9rand_uintIhEET_v@Base 2.3.0~svn544
 _ZN7blocxx86Secure9rand_uintIjEET_v@Base 2.3.0~svn544
 _ZN7blocxx86Secure9rand_uintImEET_v@Base 2.3.0~svn544
 _ZN7blocxx86Secure9rand_uintItEET_v@Base 2.3.0~svn544
 _ZN7blocxx86Secure9rand_uintIyEET_v@Base 2.3.0~svn544
 _ZN7blocxx86Select12SelectObjectC1Ei@Base 2.3.0~svn544
 _ZN7blocxx86Select12SelectObjectC2Ei@Base 2.3.0~svn544
 _ZN7blocxx86Select12SelectObjectD1Ev@Base 2.3.0~svn544
 _ZN7blocxx86Select12SelectObjectD2Ev@Base 2.3.0~svn544
 _ZN7blocxx86Select12selectRWPollERNS_5ArrayINS0_12SelectObjectEEERKNS_7TimeoutE@Base 2.3.0~svn544
 _ZN7blocxx86Select13selectRWEpollERNS_5ArrayINS0_12SelectObjectEEERKNS_7TimeoutE@Base 2.3.0~svn544
 _ZN7blocxx86Select14selectRWSelectERNS_5ArrayINS0_12SelectObjectEEERKNS_7TimeoutE@Base 2.3.0~svn544
 _ZN7blocxx86Select6selectERKNS_5ArrayIiEERKNS_7TimeoutE@Base 2.3.0~svn544
 _ZN7blocxx86Select8selectRWERNS_5ArrayINS0_12SelectObjectEEERKNS_7TimeoutE@Base 2.3.0~svn544
 _ZN7blocxx86Socket18shutdownAllSocketsEv@Base 2.3.0~svn544
 _ZN7blocxx86Socket19s_shutDownMechanismE@Base 2.3.0~svn544
 _ZN7blocxx86Socket20getShutDownMechanismEv@Base 2.3.0~svn544
 _ZN7blocxx86Socket23createShutDownMechanismEv@Base 2.3.0~svn544
 _ZN7blocxx86Socket23deleteShutDownMechanismEv@Base 2.3.0~svn544
 _ZN7blocxx86Socket24ShutDownMechanismFactory6createEi@Base 2.3.0~svn544
 _ZN7blocxx86Socket4readEPviNS_5IOIFC11ErrorActionE@Base 2.3.0~svn544
 _ZN7blocxx86Socket5writeEPKviNS_5IOIFC11ErrorActionE@Base 2.3.0~svn544
 _ZN7blocxx86SocketC1ERKNS_13SocketAddressENS_11SocketFlags8ESSLFlagE@Base 2.3.0~svn544
 _ZN7blocxx86SocketC1ERKNS_18IntrusiveReferenceINS_12SSLClientCtxEEE@Base 2.3.0~svn544
 _ZN7blocxx86SocketC1EiNS_13SocketAddress11AddressTypeENS_11SocketFlags8ESSLFlagE@Base 2.3.0~svn544
 _ZN7blocxx86SocketC1EiNS_13SocketAddress11AddressTypeERKNS_18IntrusiveReferenceINS_12SSLServerCtxEEE@Base 2.3.0~svn544
 _ZN7blocxx86SocketC1Ev@Base 2.3.0~svn544
 _ZN7blocxx86SocketC2ERKNS_13SocketAddressENS_11SocketFlags8ESSLFlagE@Base 2.3.0~svn544
 _ZN7blocxx86SocketC2ERKNS_18IntrusiveReferenceINS_12SSLClientCtxEEE@Base 2.3.0~svn544
 _ZN7blocxx86SocketC2EiNS_13SocketAddress11AddressTypeENS_11SocketFlags8ESSLFlagE@Base 2.3.0~svn544
 _ZN7blocxx86SocketC2EiNS_13SocketAddress11AddressTypeERKNS_18IntrusiveReferenceINS_12SSLServerCtxEEE@Base 2.3.0~svn544
 _ZN7blocxx86SocketC2Ev@Base 2.3.0~svn544
 _ZN7blocxx86SocketD0Ev@Base 2.3.0~svn544
 _ZN7blocxx86SocketD1Ev@Base 2.3.0~svn544
 _ZN7blocxx86SocketD2Ev@Base 2.3.0~svn544
 _ZN7blocxx86String10readObjectERSt15basic_streambufIcSt11char_traitsIcEE@Base 2.3.0~svn544
 _ZN7blocxx86String11toLowerCaseEv@Base 2.3.0~svn544
 _ZN7blocxx86String11toUpperCaseEv@Base 2.3.0~svn544
 _ZN7blocxx86String4swapERS0_@Base 2.3.0~svn544
 _ZN7blocxx86String4trimEv@Base 2.3.0~svn544
 _ZN7blocxx86String5eraseEmm@Base 2.3.0~svn544
 _ZN7blocxx86String5eraseEv@Base 2.3.0~svn544
 _ZN7blocxx86String5ltrimEv@Base 2.3.0~svn544
 _ZN7blocxx86String5rtrimEv@Base 2.3.0~svn544
 _ZN7blocxx86String6concatEPKc@Base 2.3.0~svn544
 _ZN7blocxx86String6concatERKS0_@Base 2.3.0~svn544
 _ZN7blocxx86String6concatEc@Base 2.3.0~svn544
 _ZN7blocxx86String6formatEPKcz@Base 2.3.0~svn544
 _ZN7blocxx86String6strchrEPKci@Base 2.3.0~svn544
 _ZN7blocxx86String7ByteBufC1EPKc@Base 2.3.0~svn544
 _ZN7blocxx86String7ByteBufC1ERKS1_@Base 2.3.0~svn544
 _ZN7blocxx86String7ByteBufC1ERNS_10AutoPtrVecIcEEm@Base 2.3.0~svn544
 _ZN7blocxx86String7ByteBufC2EPKc@Base 2.3.0~svn544
 _ZN7blocxx86String7ByteBufC2ERKS1_@Base 2.3.0~svn544
 _ZN7blocxx86String7ByteBufC2ERNS_10AutoPtrVecIcEEm@Base 2.3.0~svn544
 _ZN7blocxx86String7ByteBufD0Ev@Base 2.3.0~svn544
 _ZN7blocxx86String7ByteBufD1Ev@Base 2.3.0~svn544
 _ZN7blocxx86String7ByteBufD2Ev@Base 2.3.0~svn544
 _ZN7blocxx86String7getLineERSi@Base 2.3.0~svn544
 _ZN7blocxx86String7strtollEPKcPPci@Base 2.3.0~svn544
 _ZN7blocxx86String8strtoullEPKcPPci@Base 2.3.0~svn544
 _ZN7blocxx86StringC1ENS0_18ETakeOwnershipFlagEPcm@Base 2.3.0~svn544
 _ZN7blocxx86StringC1EPKc@Base 2.3.0~svn544
 _ZN7blocxx86StringC1EPKcm@Base 2.3.0~svn544
 _ZN7blocxx86StringC1ERKS0_@Base 2.3.0~svn544
 _ZN7blocxx86StringC1ERKSs@Base 2.3.0~svn544
 _ZN7blocxx86StringC1Ec@Base 2.3.0~svn544
 _ZN7blocxx86StringC1Ed@Base 2.3.0~svn544
 _ZN7blocxx86StringC1Ef@Base 2.3.0~svn544
 _ZN7blocxx86StringC1Ei@Base 2.3.0~svn544
 _ZN7blocxx86StringC1Ej@Base 2.3.0~svn544
 _ZN7blocxx86StringC1El@Base 2.3.0~svn544
 _ZN7blocxx86StringC1Em@Base 2.3.0~svn544
 _ZN7blocxx86StringC1Ev@Base 2.3.0~svn544
 _ZN7blocxx86StringC2ENS0_18ETakeOwnershipFlagEPcm@Base 2.3.0~svn544
 _ZN7blocxx86StringC2EPKc@Base 2.3.0~svn544
 _ZN7blocxx86StringC2EPKcm@Base 2.3.0~svn544
 _ZN7blocxx86StringC2ERKS0_@Base 2.3.0~svn544
 _ZN7blocxx86StringC2ERKSs@Base 2.3.0~svn544
 _ZN7blocxx86StringC2Ec@Base 2.3.0~svn544
 _ZN7blocxx86StringC2Ed@Base 2.3.0~svn544
 _ZN7blocxx86StringC2Ef@Base 2.3.0~svn544
 _ZN7blocxx86StringC2Ei@Base 2.3.0~svn544
 _ZN7blocxx86StringC2Ej@Base 2.3.0~svn544
 _ZN7blocxx86StringC2El@Base 2.3.0~svn544
 _ZN7blocxx86StringC2Em@Base 2.3.0~svn544
 _ZN7blocxx86StringC2Ev@Base 2.3.0~svn544
 _ZN7blocxx86StringD1Ev@Base 2.3.0~svn544
 _ZN7blocxx86StringD2Ev@Base 2.3.0~svn544
 _ZN7blocxx86StringaSERKS0_@Base 2.3.0~svn544
 _ZN7blocxx86StringixEm@Base 2.3.0~svn544
 _ZN7blocxx86StringpLEPKc@Base 2.3.0~svn544
 _ZN7blocxx86StringpLERKS0_@Base 2.3.0~svn544
 _ZN7blocxx86StringpLEc@Base 2.3.0~svn544
 _ZN7blocxx86System12lastErrorMsgEb@Base 2.3.0~svn544
 _ZN7blocxx86System8errorMsgEi@Base 2.3.0~svn544
 _ZN7blocxx86Thread10doShutdownEv@Base 2.3.0~svn544
 _ZN7blocxx86Thread10testCancelEv@Base 2.3.0~svn544
 _ZN7blocxx86Thread11doneRunningERKNS_18IntrusiveReferenceINS_18ThreadDoneCallbackEEE@Base 2.3.0~svn544
 _ZN7blocxx86Thread12threadRunnerEPv@Base 2.3.0~svn544
 _ZN7blocxx86Thread15cancel_internalEb@Base 2.3.0~svn544
 _ZN7blocxx86Thread16definitiveCancelERKNS_7TimeoutE@Base 2.3.0~svn544
 _ZN7blocxx86Thread17cooperativeCancelEv@Base 2.3.0~svn544
 _ZN7blocxx86Thread18doDefinitiveCancelEv@Base 2.3.0~svn544
 _ZN7blocxx86Thread19doCooperativeCancelEv@Base 2.3.0~svn544
 _ZN7blocxx86Thread4joinEv@Base 2.3.0~svn544
 _ZN7blocxx86Thread5getIdEv@Base 2.3.0~svn544
 _ZN7blocxx86Thread5sleepERKNS_7TimeoutE@Base 2.3.0~svn544
 _ZN7blocxx86Thread5sleepEj@Base 2.3.0~svn544
 _ZN7blocxx86Thread5startERKNS_18IntrusiveReferenceINS_18ThreadDoneCallbackEEE@Base 2.3.0~svn544
 _ZN7blocxx86Thread5yieldEv@Base 2.3.0~svn544
 _ZN7blocxx86Thread6cancelEv@Base 2.3.0~svn544
 _ZN7blocxx86Thread8shutdownERKNS_7TimeoutE@Base 2.3.0~svn544
 _ZN7blocxx86Thread8shutdownEv@Base 2.3.0~svn544
 _ZN7blocxx86Thread9isRunningEv@Base 2.3.0~svn544
 _ZN7blocxx86Thread9timedWaitERKNS_7TimeoutE@Base 2.3.0~svn544
 _ZN7blocxx86ThreadC1Ev@Base 2.3.0~svn544
 _ZN7blocxx86ThreadC2Ev@Base 2.3.0~svn544
 _ZN7blocxx86ThreadD0Ev@Base 2.3.0~svn544
 _ZN7blocxx86ThreadD1Ev@Base 2.3.0~svn544
 _ZN7blocxx86ThreadD2Ev@Base 2.3.0~svn544
 _ZN7blocxx86hton16Et@Base 2.3.0~svn544
 _ZN7blocxx86hton32Ej@Base 2.3.0~svn544
 _ZN7blocxx86normTmER2tm@Base 2.3.0~svn544
 _ZN7blocxx86ntoh16Et@Base 2.3.0~svn544
 _ZN7blocxx86timeGmER2tm@Base 2.3.0~svn544
 _ZN7blocxx87AutoPtrINS_14TempFileBufferEEC1EPS1_@Base 2.3.0~svn544
 _ZN7blocxx87AutoPtrINS_14TempFileBufferEEC2EPS1_@Base 2.3.0~svn544
 _ZN7blocxx87AutoPtrINS_14TempFileBufferEED1Ev@Base 2.3.0~svn544
 _ZN7blocxx87AutoPtrINS_14TempFileBufferEED2Ev@Base 2.3.0~svn544
 _ZN7blocxx87AutoPtrINS_15ExceptionDetail13FormatMsgImplEEC1EPS2_@Base 2.3.0~svn544
 _ZN7blocxx87AutoPtrINS_15ExceptionDetail13FormatMsgImplEEC2EPS2_@Base 2.3.0~svn544
 _ZN7blocxx87AutoPtrINS_15ExceptionDetail13FormatMsgImplEED1Ev@Base 2.3.0~svn544
 _ZN7blocxx87AutoPtrINS_15ExceptionDetail13FormatMsgImplEED2Ev@Base 2.3.0~svn544
 _ZN7blocxx87AutoPtrINS_5ArrayINS_6StringEEEE7releaseEv@Base 2.3.0~svn544
 _ZN7blocxx87AutoPtrINS_5ArrayINS_6StringEEEEC1EPS3_@Base 2.3.0~svn544
 _ZN7blocxx87AutoPtrINS_5ArrayINS_6StringEEEEC2EPS3_@Base 2.3.0~svn544
 _ZN7blocxx87AutoPtrINS_5ArrayINS_6StringEEEED1Ev@Base 2.3.0~svn544
 _ZN7blocxx87AutoPtrINS_5ArrayINS_6StringEEEED2Ev@Base 2.3.0~svn544
 _ZN7blocxx87EnvVars10fillEnvMapEPKPKcRNS_3MapINS_6StringES6_St4lessIS6_EEE@Base 2.3.0~svn544
 _ZN7blocxx87EnvVars10fillEnvMapERNS_3MapINS_6StringES2_St4lessIS2_EEE@Base 2.3.0~svn544
 _ZN7blocxx87EnvVars6addVarERKNS_6StringES3_@Base 2.3.0~svn544
 _ZN7blocxx87EnvVars6setVarERKNS_6StringE@Base 2.3.0~svn544
 _ZN7blocxx87EnvVars6setVarERKNS_6StringES3_@Base 2.3.0~svn544
 _ZN7blocxx87EnvVars9removeVarERKNS_6StringE@Base 2.3.0~svn544
 _ZN7blocxx87EnvVars9updateVarERKNS_6StringES3_@Base 2.3.0~svn544
 _ZN7blocxx87EnvVarsC1ENS0_11EEnvVarFlagE@Base 2.3.0~svn544
 _ZN7blocxx87EnvVarsC1EPKPKc@Base 2.3.0~svn544
 _ZN7blocxx87EnvVarsC2ENS0_11EEnvVarFlagE@Base 2.3.0~svn544
 _ZN7blocxx87EnvVarsC2EPKPKc@Base 2.3.0~svn544
 _ZN7blocxx87EnvVarsD1Ev@Base 2.3.0~svn544
 _ZN7blocxx87EnvVarsD2Ev@Base 2.3.0~svn544
 _ZN7blocxx87FileBuf14cppModeToCModeESt13_Ios_Openmode@Base 2.3.0~svn544
 _ZN7blocxx87FileBuf16buffer_to_deviceEPKci@Base 2.3.0~svn544
 _ZN7blocxx87FileBuf18buffer_from_deviceEPci@Base 2.3.0~svn544
 _ZN7blocxx87FileBuf18cppModeToPOSIXModeESt13_Ios_Openmode@Base 2.3.0~svn544
 _ZN7blocxx87FileBuf18posixModeToCppModeEi@Base 2.3.0~svn544
 _ZN7blocxx87FileBuf4openENS_12AutoResourceINS_20AutoDescriptorPolicyEEE@Base 2.3.0~svn544
 _ZN7blocxx87FileBuf4openEP8_IO_FILE@Base 2.3.0~svn544
 _ZN7blocxx87FileBuf4openEPKcSt13_Ios_Openmodej@Base 2.3.0~svn544
 _ZN7blocxx87FileBuf5closeEv@Base 2.3.0~svn544
 _ZN7blocxx87FileBufC1Ev@Base 2.3.0~svn544
 _ZN7blocxx87FileBufC2Ev@Base 2.3.0~svn544
 _ZN7blocxx87FileBufD0Ev@Base 2.3.0~svn544
 _ZN7blocxx87FileBufD1Ev@Base 2.3.0~svn544
 _ZN7blocxx87FileBufD2Ev@Base 2.3.0~svn544
 _ZN7blocxx87GetPass7getPassERKNS_6StringE@Base 2.3.0~svn544
 _ZN7blocxx87IConv_t4openERKNS_6StringES3_@Base 2.3.0~svn544
 _ZN7blocxx87IConv_t5closeEv@Base 2.3.0~svn544
 _ZN7blocxx87IConv_t7convertEPPcPmS2_S3_@Base 2.3.0~svn544
 _ZN7blocxx87IConv_tC1ERKNS_6StringES3_@Base 2.3.0~svn544
 _ZN7blocxx87IConv_tC1Ev@Base 2.3.0~svn544
 _ZN7blocxx87IConv_tC2ERKNS_6StringES3_@Base 2.3.0~svn544
 _ZN7blocxx87IConv_tC2Ev@Base 2.3.0~svn544
 _ZN7blocxx87IConv_tD1Ev@Base 2.3.0~svn544
 _ZN7blocxx87IConv_tD2Ev@Base 2.3.0~svn544
 _ZN7blocxx87Process13processStatusEv@Base 2.3.0~svn544
 _ZN7blocxx87Process13waitCloseTermERKNS_7TimeoutES3_S3_NS0_25ETerminationSelectionFlagE@Base 2.3.0~svn544
 _ZN7blocxx87Process13waitCloseTermEfff@Base 2.3.0~svn544
 _ZN7blocxx87Process15getCurProcessIdEv@Base 2.3.0~svn544
 _ZN7blocxx87Process16terminatesWithinERKNS_7TimeoutE@Base 2.3.0~svn544
 _ZN7blocxx87Process6StatusC1Eii@Base 2.3.0~svn544
 _ZN7blocxx87Process6StatusC1EiiNS1_4ReprE@Base 2.3.0~svn544
 _ZN7blocxx87Process6StatusC1Ev@Base 2.3.0~svn544
 _ZN7blocxx87Process6StatusC2Eii@Base 2.3.0~svn544
 _ZN7blocxx87Process6StatusC2EiiNS1_4ReprE@Base 2.3.0~svn544
 _ZN7blocxx87Process6StatusC2Ev@Base 2.3.0~svn544
 _ZN7blocxx87Process7releaseEv@Base 2.3.0~svn544
 _ZN7blocxx87Process8killWaitERKNS_7TimeoutEiPKcNS0_25ETerminationSelectionFlagE@Base 2.3.0~svn544
 _ZN7blocxx87ProcessC1ERKNS_18IntrusiveReferenceINS_11ProcessImplEEERKNS1_INS_11UnnamedPipeEEES9_S9_i@Base 2.3.0~svn544
 _ZN7blocxx87ProcessC1ERKNS_18IntrusiveReferenceINS_11UnnamedPipeEEES5_S5_i@Base 2.3.0~svn544
 _ZN7blocxx87ProcessC1Ei@Base 2.3.0~svn544
 _ZN7blocxx87ProcessC2ERKNS_18IntrusiveReferenceINS_11ProcessImplEEERKNS1_INS_11UnnamedPipeEEES9_S9_i@Base 2.3.0~svn544
 _ZN7blocxx87ProcessC2ERKNS_18IntrusiveReferenceINS_11UnnamedPipeEEES5_S5_i@Base 2.3.0~svn544
 _ZN7blocxx87ProcessC2Ei@Base 2.3.0~svn544
 _ZN7blocxx87ProcessD0Ev@Base 2.3.0~svn544
 _ZN7blocxx87ProcessD1Ev@Base 2.3.0~svn544
 _ZN7blocxx87ProcessD2Ev@Base 2.3.0~svn544
 _ZN7blocxx87RefSwapIVPNS_12StringBufferEEEvRT_S5_@Base 2.3.0~svn544
 _ZN7blocxx87RefSwapIVPNS_8RefCountEEEvRT_S5_@Base 2.3.0~svn544
 _ZN7blocxx87RefSwapIVPNS_9ExceptionEEEvRT_S5_@Base 2.3.0~svn544
 _ZN7blocxx87SSLOptsC1Ev@Base 2.3.0~svn544
 _ZN7blocxx87SSLOptsC2Ev@Base 2.3.0~svn544
 _ZN7blocxx87SSLOptsD1Ev@Base 2.3.0~svn544
 _ZN7blocxx87SSLOptsD2Ev@Base 2.3.0~svn544
 _ZN7blocxx87Timeout17relativeWithResetEf@Base 2.3.0~svn544
 _ZN7blocxx87Timeout8absoluteERKNS_8DateTimeE@Base 2.3.0~svn544
 _ZN7blocxx87Timeout8infiniteE@Base 2.3.0~svn544
 _ZN7blocxx87Timeout8relativeEf@Base 2.3.0~svn544
 _ZN7blocxx87TimeoutC1ENS0_12ETimeoutTypeERKNS_8DateTimeE@Base 2.3.0~svn544
 _ZN7blocxx87TimeoutC1ENS0_12ETimeoutTypeEf@Base 2.3.0~svn544
 _ZN7blocxx87TimeoutC1Ev@Base 2.3.0~svn544
 _ZN7blocxx87TimeoutC2ENS0_12ETimeoutTypeERKNS_8DateTimeE@Base 2.3.0~svn544
 _ZN7blocxx87TimeoutC2ENS0_12ETimeoutTypeEf@Base 2.3.0~svn544
 _ZN7blocxx87TimeoutC2Ev@Base 2.3.0~svn544
 _ZN7blocxx87TimeoutD1Ev@Base 2.3.0~svn544
 _ZN7blocxx87TimeoutD2Ev@Base 2.3.0~svn544
 _ZN7blocxx87file_okERKNS_10FileSystem15FileInformationEjb@Base 2.3.0~svn544
 _ZN7blocxx88Atomic_tC1Ei@Base 2.3.0~svn544
 _ZN7blocxx88Atomic_tC2Ei@Base 2.3.0~svn544
 _ZN7blocxx88DateTime10addMinutesEl@Base 2.3.0~svn544
 _ZN7blocxx88DateTime10addSecondsEl@Base 2.3.0~svn544
 _ZN7blocxx88DateTime10getCurrentEv@Base 2.3.0~svn544
 _ZN7blocxx88DateTime12setToCurrentEv@Base 2.3.0~svn544
 _ZN7blocxx88DateTime14DEFAULT_FORMATE@Base 2.3.0~svn544
 _ZN7blocxx88DateTime14getMaximumTimeEv@Base 2.3.0~svn544
 _ZN7blocxx88DateTime14getMinimumTimeEv@Base 2.3.0~svn544
 _ZN7blocxx88DateTime14getNegInfinityEv@Base 2.3.0~svn544
 _ZN7blocxx88DateTime14getPosInfinityEv@Base 2.3.0~svn544
 _ZN7blocxx88DateTime14setMicrosecondEi@Base 2.3.0~svn544
 _ZN7blocxx88DateTime15addMicrosecondsEl@Base 2.3.0~svn544
 _ZN7blocxx88DateTime18localTimeAndOffsetElR2tm@Base 2.3.0~svn544
 _ZN7blocxx88DateTime3setEiiiiiijNS0_11ETimeOffsetE@Base 2.3.0~svn544
 _ZN7blocxx88DateTime3setEli@Base 2.3.0~svn544
 _ZN7blocxx88DateTime6setDayEiNS0_11ETimeOffsetE@Base 2.3.0~svn544
 _ZN7blocxx88DateTime7addDaysEi@Base 2.3.0~svn544
 _ZN7blocxx88DateTime7getNADTEv@Base 2.3.0~svn544
 _ZN7blocxx88DateTime7setHourEiNS0_11ETimeOffsetE@Base 2.3.0~svn544
 _ZN7blocxx88DateTime7setTimeER2tmNS0_11ETimeOffsetE@Base 2.3.0~svn544
 _ZN7blocxx88DateTime7setTimeEiiiNS0_11ETimeOffsetE@Base 2.3.0~svn544
 _ZN7blocxx88DateTime7setYearEiNS0_11ETimeOffsetE@Base 2.3.0~svn544
 _ZN7blocxx88DateTime8addHoursEl@Base 2.3.0~svn544
 _ZN7blocxx88DateTime8addYearsEi@Base 2.3.0~svn544
 _ZN7blocxx88DateTime8setMonthEiNS0_11ETimeOffsetE@Base 2.3.0~svn544
 _ZN7blocxx88DateTime9addMonthsEi@Base 2.3.0~svn544
 _ZN7blocxx88DateTime9setMinuteEiNS0_11ETimeOffsetE@Base 2.3.0~svn544
 _ZN7blocxx88DateTime9setSecondEiNS0_11ETimeOffsetE@Base 2.3.0~svn544
 _ZN7blocxx88DateTimeC1ENS_4Time12ESpecialTimeE@Base 2.3.0~svn544
 _ZN7blocxx88DateTimeC1ERKNS_6StringE@Base 2.3.0~svn544
 _ZN7blocxx88DateTimeC1EiiiiiijNS0_11ETimeOffsetE@Base 2.3.0~svn544
 _ZN7blocxx88DateTimeC1Eli@Base 2.3.0~svn544
 _ZN7blocxx88DateTimeC1Ev@Base 2.3.0~svn544
 _ZN7blocxx88DateTimeC2ENS_4Time12ESpecialTimeE@Base 2.3.0~svn544
 _ZN7blocxx88DateTimeC2ERKNS_6StringE@Base 2.3.0~svn544
 _ZN7blocxx88DateTimeC2EiiiiiijNS0_11ETimeOffsetE@Base 2.3.0~svn544
 _ZN7blocxx88DateTimeC2Eli@Base 2.3.0~svn544
 _ZN7blocxx88DateTimeC2Ev@Base 2.3.0~svn544
 _ZN7blocxx88DateTimeD1Ev@Base 2.3.0~svn544
 _ZN7blocxx88DateTimeD2Ev@Base 2.3.0~svn544
 _ZN7blocxx88JoinImpl20StringBufferAppenderclERNS_9ReferenceINS_12StringBufferEEERKNS_6StringE@Base 2.3.0~svn544
 _ZN7blocxx88RWLocker11getReadLockERKNS_7TimeoutE@Base 2.3.0~svn544
 _ZN7blocxx88RWLocker12getWriteLockERKNS_7TimeoutE@Base 2.3.0~svn544
 _ZN7blocxx88RWLocker15releaseReadLockEv@Base 2.3.0~svn544
 _ZN7blocxx88RWLocker16releaseWriteLockEv@Base 2.3.0~svn544
 _ZN7blocxx88RWLockerC1Ev@Base 2.3.0~svn544
 _ZN7blocxx88RWLockerC2Ev@Base 2.3.0~svn544
 _ZN7blocxx88RWLockerD1Ev@Base 2.3.0~svn544
 _ZN7blocxx88RWLockerD2Ev@Base 2.3.0~svn544
 _ZN7blocxx88RefCount10decAndTestEv@Base 2.3.0~svn544
 _ZN7blocxx88RefCount3incEv@Base 2.3.0~svn544
 _ZN7blocxx88RefCountC1ENS_8Atomic_tE@Base 2.3.0~svn544
 _ZN7blocxx88RefCountC1Ev@Base 2.3.0~svn544
 _ZN7blocxx88RefCountC2ENS_8Atomic_tE@Base 2.3.0~svn544
 _ZN7blocxx88RefCountC2Ev@Base 2.3.0~svn544
 _ZN7blocxx88Runnable10doShutdownEv@Base 2.3.0~svn544
 _ZN7blocxx88Runnable18doDefinitiveCancelEv@Base 2.3.0~svn544
 _ZN7blocxx88Runnable19doCooperativeCancelEv@Base 2.3.0~svn544
 _ZN7blocxx88RunnableC1Ev@Base 2.3.0~svn544
 _ZN7blocxx88RunnableC2Ev@Base 2.3.0~svn544
 _ZN7blocxx88RunnableD0Ev@Base 2.3.0~svn544
 _ZN7blocxx88RunnableD1Ev@Base 2.3.0~svn544
 _ZN7blocxx88RunnableD2Ev@Base 2.3.0~svn544
 _ZN7blocxx88callOnceINS_10LazyGlobalINS_18IntrusiveReferenceINS_11UnnamedPipeEEEiNS_6Socket24ShutDownMechanismFactoryEE7InitPtrEEEvRNS_8OnceFlagET_@Base 2.3.0~svn544
 _ZN7blocxx88callOnceINS_10LazyGlobalINS_5ArrayINS_6StringEEEKPKcNS_29StringArrayConstructorFactoryEE7InitPtrEEEvRNS_8OnceFlagET_@Base 2.3.0~svn544
 _ZN7blocxx88callOnceINS_10LazyGlobalINS_5MutexEiNS_33DefaultConstructedVariableFactoryIS2_EEE7InitPtrEEEvRNS_8OnceFlagET_@Base 2.3.0~svn544
 _ZN7blocxx88callOnceINS_10LazyGlobalINS_6StringEKPKcNS_33DefaultVariableConstructorFactoryIS2_S5_EEE7InitPtrEEEvRNS_8OnceFlagET_@Base 2.3.0~svn544
 _ZN7blocxx88callOnceINS_9GlobalPtrINS_14ExecMockObjectENS_4Exec4Impl11NullFactoryEE7InitPtrEEEvRNS_8OnceFlagET_@Base 2.3.0~svn544
 _ZN7blocxx88callOnceINS_9GlobalPtrINS_20FileSystemMockObjectENS_10FileSystem11NullFactoryEE7InitPtrEEEvRNS_8OnceFlagET_@Base 2.3.0~svn544
 _ZN7blocxx88callOnceIPFvvEEEvRNS_8OnceFlagET_@Base 2.3.0~svn544
 _ZN7blocxx88divFloorIiEET_S1_S1_@Base 2.3.0~svn544
 _ZN7blocxx88group_okEj@Base 2.3.0~svn544
 _ZN7blocxx88remFloorIiEET_S1_S1_@Base 2.3.0~svn544
 _ZN7blocxx89AtomicGetERKNS_8Atomic_tE@Base 2.3.0~svn544
 _ZN7blocxx89AtomicIncERNS_8Atomic_tE@Base 2.3.0~svn544
 _ZN7blocxx89ClockImplD0Ev@Base 2.3.0~svn544
 _ZN7blocxx89ClockImplD1Ev@Base 2.3.0~svn544
 _ZN7blocxx89ClockImplD2Ev@Base 2.3.0~svn544
 _ZN7blocxx89Condition11doTimedWaitERNS_17NonRecursiveMutexERKNS_7TimeoutE@Base 2.3.0~svn544
 _ZN7blocxx89Condition4waitERNS_21NonRecursiveMutexLockE@Base 2.3.0~svn544
 _ZN7blocxx89Condition6doWaitERNS_17NonRecursiveMutexE@Base 2.3.0~svn544
 _ZN7blocxx89Condition9notifyAllEv@Base 2.3.0~svn544
 _ZN7blocxx89Condition9notifyOneEv@Base 2.3.0~svn544
 _ZN7blocxx89Condition9timedWaitERNS_21NonRecursiveMutexLockERKNS_7TimeoutE@Base 2.3.0~svn544
 _ZN7blocxx89ConditionC1Ev@Base 2.3.0~svn544
 _ZN7blocxx89ConditionC2Ev@Base 2.3.0~svn544
 _ZN7blocxx89ConditionD1Ev@Base 2.3.0~svn544
 _ZN7blocxx89ConditionD2Ev@Base 2.3.0~svn544
 _ZN7blocxx89Exception12setErrorCodeEi@Base 2.3.0~svn544
 _ZN7blocxx89Exception13setSubClassIdEi@Base 2.3.0~svn544
 _ZN7blocxx89Exception4swapERS0_@Base 2.3.0~svn544
 _ZN7blocxx89Exception9dupStringEPKc@Base 2.3.0~svn544
 _ZN7blocxx89ExceptionC1EPKciS2_iPKS0_i@Base 2.3.0~svn544
 _ZN7blocxx89ExceptionC1ERKS0_@Base 2.3.0~svn544
 _ZN7blocxx89ExceptionC2EPKciS2_iPKS0_i@Base 2.3.0~svn544
 _ZN7blocxx89ExceptionC2ERKS0_@Base 2.3.0~svn544
 _ZN7blocxx89ExceptionD0Ev@Base 2.3.0~svn544
 _ZN7blocxx89ExceptionD1Ev@Base 2.3.0~svn544
 _ZN7blocxx89ExceptionD2Ev@Base 2.3.0~svn544
 _ZN7blocxx89ExceptionaSERKS0_@Base 2.3.0~svn544
 _ZN7blocxx89GlobalPtrINS_14ExecMockObjectENS_4Exec4Impl11NullFactoryEE7InitPtrC1ERPS1_@Base 2.3.0~svn544
 _ZN7blocxx89GlobalPtrINS_14ExecMockObjectENS_4Exec4Impl11NullFactoryEE7InitPtrC2ERPS1_@Base 2.3.0~svn544
 _ZN7blocxx89GlobalPtrINS_14ExecMockObjectENS_4Exec4Impl11NullFactoryEE7InitPtrclEv@Base 2.3.0~svn544
 _ZN7blocxx89GlobalPtrINS_20FileSystemMockObjectENS_10FileSystem11NullFactoryEE7InitPtrC1ERPS1_@Base 2.3.0~svn544
 _ZN7blocxx89GlobalPtrINS_20FileSystemMockObjectENS_10FileSystem11NullFactoryEE7InitPtrC2ERPS1_@Base 2.3.0~svn544
 _ZN7blocxx89GlobalPtrINS_20FileSystemMockObjectENS_10FileSystem11NullFactoryEE7InitPtrclEv@Base 2.3.0~svn544
 _ZN7blocxx89MutexImpl11createMutexERNS_7Mutex_tE@Base 2.3.0~svn544
 _ZN7blocxx89MutexImpl12acquireMutexERNS_7Mutex_tE@Base 2.3.0~svn544
 _ZN7blocxx89MutexImpl12destroyMutexERNS_7Mutex_tE@Base 2.3.0~svn544
 _ZN7blocxx89MutexImpl12releaseMutexERNS_7Mutex_tE@Base 2.3.0~svn544
 _ZN7blocxx89MutexLock4lockEv@Base 2.3.0~svn544
 _ZN7blocxx89MutexLock7releaseEv@Base 2.3.0~svn544
 _ZN7blocxx89MutexLockC1ERNS_5MutexEb@Base 2.3.0~svn544
 _ZN7blocxx89MutexLockC2ERNS_5MutexEb@Base 2.3.0~svn544
 _ZN7blocxx89MutexLockD1Ev@Base 2.3.0~svn544
 _ZN7blocxx89MutexLockD2Ev@Base 2.3.0~svn544
 _ZN7blocxx89PerlRegEx4grepERKNS_5ArrayINS_6StringEEEi@Base 2.3.0~svn544
 _ZN7blocxx89PerlRegEx5splitERKNS_6StringEbi@Base 2.3.0~svn544
 _ZN7blocxx89PerlRegEx7captureERKNS_6StringEmmi@Base 2.3.0~svn544
 _ZN7blocxx89PerlRegEx7compileERKNS_6StringEi@Base 2.3.0~svn544
 _ZN7blocxx89PerlRegEx7executeERNS_5ArrayINS0_7match_tEEERKNS_6StringEmmi@Base 2.3.0~svn544
 _ZN7blocxx89PerlRegEx7executeERNS_5ArrayIiEERKNS_6StringEmmi@Base 2.3.0~svn544
 _ZN7blocxx89PerlRegEx7replaceERKNS_6StringES3_bi@Base 2.3.0~svn544
 _ZN7blocxx89PerlRegEx9errorCodeEv@Base 2.3.0~svn544
 _ZN7blocxx89PerlRegExC1ERKNS_6StringEi@Base 2.3.0~svn544
 _ZN7blocxx89PerlRegExC1ERKS0_@Base 2.3.0~svn544
 _ZN7blocxx89PerlRegExC1Ev@Base 2.3.0~svn544
 _ZN7blocxx89PerlRegExC2ERKNS_6StringEi@Base 2.3.0~svn544
 _ZN7blocxx89PerlRegExC2ERKS0_@Base 2.3.0~svn544
 _ZN7blocxx89PerlRegExC2Ev@Base 2.3.0~svn544
 _ZN7blocxx89PerlRegExD1Ev@Base 2.3.0~svn544
 _ZN7blocxx89PerlRegExD2Ev@Base 2.3.0~svn544
 _ZN7blocxx89PerlRegExaSERKS0_@Base 2.3.0~svn544
 _ZN7blocxx89PosixExec13SystemPreExec4callEPKPNS_11UnnamedPipeE@Base 2.3.0~svn544
 _ZN7blocxx89PosixExec13SystemPreExecC1Eb@Base 2.3.0~svn544
 _ZN7blocxx89PosixExec13SystemPreExecC2Eb@Base 2.3.0~svn544
 _ZN7blocxx89PosixExec13SystemPreExecD0Ev@Base 2.3.0~svn544
 _ZN7blocxx89PosixExec13SystemPreExecD1Ev@Base 2.3.0~svn544
 _ZN7blocxx89PosixExec13SystemPreExecD2Ev@Base 2.3.0~svn544
 _ZN7blocxx89PosixExec15StandardPreExec4callEPKPNS_11UnnamedPipeE@Base 2.3.0~svn544
 _ZN7blocxx89PosixExec15StandardPreExecC1Eb@Base 2.3.0~svn544
 _ZN7blocxx89PosixExec15StandardPreExecC2Eb@Base 2.3.0~svn544
 _ZN7blocxx89PosixExec15StandardPreExecD0Ev@Base 2.3.0~svn544
 _ZN7blocxx89PosixExec15StandardPreExecD1Ev@Base 2.3.0~svn544
 _ZN7blocxx89PosixExec15StandardPreExecD2Ev@Base 2.3.0~svn544
 _ZN7blocxx89PosixExec9spawnImplEPKcPKS2_S4_RNS_4Exec7PreExecE@Base 2.3.0~svn544
 _ZN7blocxx89ReferenceINS_12StringBufferEE4swapERS2_@Base 2.3.0~svn544
 _ZN7blocxx89ReferenceINS_12StringBufferEE6decRefEv@Base 2.3.0~svn544
 _ZN7blocxx89ReferenceINS_12StringBufferEEC1EPS1_@Base 2.3.0~svn544
 _ZN7blocxx89ReferenceINS_12StringBufferEEC1ERKS2_@Base 2.3.0~svn544
 _ZN7blocxx89ReferenceINS_12StringBufferEEC2EPS1_@Base 2.3.0~svn544
 _ZN7blocxx89ReferenceINS_12StringBufferEEC2ERKS2_@Base 2.3.0~svn544
 _ZN7blocxx89ReferenceINS_12StringBufferEED1Ev@Base 2.3.0~svn544
 _ZN7blocxx89ReferenceINS_12StringBufferEED2Ev@Base 2.3.0~svn544
 _ZN7blocxx89ReferenceINS_12StringBufferEEaSERKS2_@Base 2.3.0~svn544
 _ZN7blocxx89ReferenceINS_13DelayedFormatEE6decRefEv@Base 2.3.0~svn544
 _ZN7blocxx89ReferenceINS_13DelayedFormatEEC1ERKS2_@Base 2.3.0~svn544
 _ZN7blocxx89ReferenceINS_13DelayedFormatEEC1Ev@Base 2.3.0~svn544
 _ZN7blocxx89ReferenceINS_13DelayedFormatEEC2ERKS2_@Base 2.3.0~svn544
 _ZN7blocxx89ReferenceINS_13DelayedFormatEEC2Ev@Base 2.3.0~svn544
 _ZN7blocxx89ReferenceINS_13DelayedFormatEED1Ev@Base 2.3.0~svn544
 _ZN7blocxx89ReferenceINS_13DelayedFormatEED2Ev@Base 2.3.0~svn544
 _ZN7blocxx89ReferenceINS_22DelayedFormatInternals26DelayedFormatReferenceBaseEE6decRefEv@Base 2.3.0~svn544
 _ZN7blocxx89ReferenceINS_22DelayedFormatInternals26DelayedFormatReferenceBaseEED1Ev@Base 2.3.0~svn544
 _ZN7blocxx89ReferenceINS_22DelayedFormatInternals26DelayedFormatReferenceBaseEED2Ev@Base 2.3.0~svn544
 _ZN7blocxx89ReferenceINS_9ExceptionEE4swapERS2_@Base 2.3.0~svn544
 _ZN7blocxx89ReferenceINS_9ExceptionEE6decRefEv@Base 2.3.0~svn544
 _ZN7blocxx89ReferenceINS_9ExceptionEEC1EPS1_@Base 2.3.0~svn544
 _ZN7blocxx89ReferenceINS_9ExceptionEEC1Ev@Base 2.3.0~svn544
 _ZN7blocxx89ReferenceINS_9ExceptionEEC2EPS1_@Base 2.3.0~svn544
 _ZN7blocxx89ReferenceINS_9ExceptionEEC2Ev@Base 2.3.0~svn544
 _ZN7blocxx89ReferenceINS_9ExceptionEED1Ev@Base 2.3.0~svn544
 _ZN7blocxx89ReferenceINS_9ExceptionEED2Ev@Base 2.3.0~svn544
 _ZN7blocxx89ReferenceINS_9ExceptionEEaSEPS1_@Base 2.3.0~svn544
 _ZN7blocxx89SSLCtxMgr10initClientERKNS_6StringES3_@Base 2.3.0~svn544
 _ZN7blocxx89SSLCtxMgr10initServerERKNS_6StringES3_@Base 2.3.0~svn544
 _ZN7blocxx89SSLCtxMgr11m_ctxClientE@Base 2.3.0~svn544
 _ZN7blocxx89SSLCtxMgr11m_ctxServerE@Base 2.3.0~svn544
 _ZN7blocxx89SSLCtxMgr12disableLocksEv@Base 2.3.0~svn544
 _ZN7blocxx89SSLCtxMgr12loadDHParamsEP10ssl_ctx_stRKNS_6StringE@Base 2.3.0~svn544
 _ZN7blocxx89SSLCtxMgr12uninitClientEv@Base 2.3.0~svn544
 _ZN7blocxx89SSLCtxMgr12uninitServerEv@Base 2.3.0~svn544
 _ZN7blocxx89SSLCtxMgr13pem_passwd_cbEPciiPv@Base 2.3.0~svn544
 _ZN7blocxx89SSLCtxMgr14disableSSLInitEv@Base 2.3.0~svn544
 _ZN7blocxx89SSLCtxMgr15checkClientCertEP6ssl_stRKNS_6StringE@Base 2.3.0~svn544
 _ZN7blocxx89SSLCtxMgr15checkServerCertEP6ssl_stRKNS_6StringE@Base 2.3.0~svn544
 _ZN7blocxx89SSLCtxMgr15getSSLCtxServerEv@Base 2.3.0~svn544
 _ZN7blocxx89SSLCtxMgr17generateEphRSAKeyEP10ssl_ctx_st@Base 2.3.0~svn544
 _ZN7blocxx89SSLCtxMgr18getSSLInitDisabledEv@Base 2.3.0~svn544
 _ZN7blocxx89SSLCtxMgr19getSSLLocksDisabledEv@Base 2.3.0~svn544
 _ZN7blocxx89SSLCtxMgr20m_clientCertVerifyCBE@Base 2.3.0~svn544
 _ZN7blocxx89SSLCtxMgr20m_serverCertVerifyCBE@Base 2.3.0~svn544
 _ZN7blocxx89SSLCtxMgr26getOpenSSLErrorDescriptionEv@Base 2.3.0~svn544
 _ZN7blocxx89SSLCtxMgr6uninitEv@Base 2.3.0~svn544
 _ZN7blocxx89SSLCtxMgr7initCtxERKNS_6StringES3_P11evp_pkey_st@Base 2.3.0~svn544
 _ZN7blocxx89SSLCtxMgr7sslReadEP6ssl_stPci@Base 2.3.0~svn544
 _ZN7blocxx89SSLCtxMgr8isClientEv@Base 2.3.0~svn544
 _ZN7blocxx89SSLCtxMgr8isServerEv@Base 2.3.0~svn544
 _ZN7blocxx89SSLCtxMgr8sslWriteEP6ssl_stPKci@Base 2.3.0~svn544
 _ZN7blocxx89SSLCtxMgr9checkCertEP6ssl_stRKNS_6StringEPFiP7x509_stS5_E@Base 2.3.0~svn544
 _ZN7blocxx89UTF8Utils10UCS2toUTF8Et@Base 2.3.0~svn544
 _ZN7blocxx89UTF8Utils10UCS4toUTF8Ej@Base 2.3.0~svn544
 _ZN7blocxx89UTF8Utils10UCS4toUTF8EjRNS_12StringBufferE@Base 2.3.0~svn544
 _ZN7blocxx89UTF8Utils10UTF8toUCS2EPKc@Base 2.3.0~svn544
 _ZN7blocxx89UTF8Utils10UTF8toUCS4EPKc@Base 2.3.0~svn544
 _ZN7blocxx89UTF8Utils11toLowerCaseEPKc@Base 2.3.0~svn544
 _ZN7blocxx89UTF8Utils11toUpperCaseEPKc@Base 2.3.0~svn544
 _ZN7blocxx89UTF8Utils12StringToUCS2ERKNS_6StringE@Base 2.3.0~svn544
 _ZN7blocxx89UTF8Utils12UCS2ToStringEPKvm@Base 2.3.0~svn544
 _ZN7blocxx89UTF8Utils12UCS2ToStringERKNS_5ArrayIcEE@Base 2.3.0~svn544
 _ZN7blocxx89UTF8Utils12UCS2ToStringERKNS_5ArrayItEE@Base 2.3.0~svn544
 _ZN7blocxx89UTF8Utils18toLowerCaseInPlaceEPc@Base 2.3.0~svn544
 _ZN7blocxx89UTF8Utils18toUpperCaseInPlaceEPc@Base 2.3.0~svn544
 _ZN7blocxx89UTF8Utils19compareToIgnoreCaseEPKcS2_@Base 2.3.0~svn544
 _ZN7blocxx89UTF8Utils26StringToUCS2ReplaceInvalidERKNS_6StringE@Base 2.3.0~svn544
 _ZN7blocxx89UTF8Utils9charCountEPKc@Base 2.3.0~svn544
 _ZN7blocxx89UserUtils10getGroupIdERKNS_6StringERb@Base 2.3.0~svn544
 _ZN7blocxx89UserUtils11getUserNameEjRb@Base 2.3.0~svn544
 _ZN7blocxx89UserUtils12getGroupNameEjRb@Base 2.3.0~svn544
 _ZN7blocxx89UserUtils18getCurrentUserNameEv@Base 2.3.0~svn544
 _ZN7blocxx89UserUtils18getEffectiveUserIdEv@Base 2.3.0~svn544
 _ZN7blocxx89UserUtils19getCurrentGroupNameEv@Base 2.3.0~svn544
 _ZN7blocxx89UserUtils19getEffectiveGroupIdEv@Base 2.3.0~svn544
 _ZN7blocxx89UserUtils9getUserIdERKNS_6StringERb@Base 2.3.0~svn544
 _ZN7blocxx89padOnLeftERKNS_6StringEmc@Base 2.3.0~svn544
 _ZN7blocxx8eqERKNS_12StringBufferERKNS_6StringE@Base 2.3.0~svn544
 _ZN7blocxx8eqERKNS_12StringBufferES2_@Base 2.3.0~svn544
 _ZN7blocxx8eqERKNS_4UUIDES2_@Base 2.3.0~svn544
 _ZN7blocxx8eqERKNS_6StringEPKc@Base 2.3.0~svn544
 _ZN7blocxx8eqERKNS_6StringERKNS_12StringBufferE@Base 2.3.0~svn544
 _ZN7blocxx8eqERKNS_6StringES2_@Base 2.3.0~svn544
 _ZN7blocxx8eqERKNS_7TimeoutES2_@Base 2.3.0~svn544
 _ZN7blocxx8eqINS_11UnnamedPipeES1_EEbRKNS_18IntrusiveReferenceIT_EERKNS2_IT0_EE@Base 2.3.0~svn544
 _ZN7blocxx8lsERSoRKNS_10StringJoinE@Base 2.3.0~svn544
 _ZN7blocxx8lsERSoRKNS_12StringBufferE@Base 2.3.0~svn544
 _ZN7blocxx8lsERSoRKNS_4BoolE@Base 2.3.0~svn544
 _ZN7blocxx8lsERSoRKNS_6Char16E@Base 2.3.0~svn544
 _ZN7blocxx8lsERSoRKNS_6FormatE@Base 2.3.0~svn544
 _ZN7blocxx8lsERSoRKNS_6StringE@Base 2.3.0~svn544
 _ZN7blocxx8lsERSoRKNS_9ExceptionE@Base 2.3.0~svn544
 _ZN7blocxx8ltERKNS_4UUIDES2_@Base 2.3.0~svn544
 _ZN7blocxx8ltERKNS_6StringES2_@Base 2.3.0~svn544
 _ZN7blocxx8mIERNS_8DateTimeERKNS_4Time12TimeDurationE@Base 2.3.0~svn544
 _ZN7blocxx8miERKNS_8DateTimeERKNS_4Time12TimeDurationE@Base 2.3.0~svn544
 _ZN7blocxx8miERKNS_8DateTimeES2_@Base 2.3.0~svn544
 _ZN7blocxx8neERKNS_12StringBufferERKNS_6StringE@Base 2.3.0~svn544
 _ZN7blocxx8neERKNS_12StringBufferES2_@Base 2.3.0~svn544
 _ZN7blocxx8neERKNS_4UUIDES2_@Base 2.3.0~svn544
 _ZN7blocxx8neERKNS_6StringEPKc@Base 2.3.0~svn544
 _ZN7blocxx8neERKNS_6StringERKNS_12StringBufferE@Base 2.3.0~svn544
 _ZN7blocxx8neERKNS_7TimeoutES2_@Base 2.3.0~svn544
 _ZN7blocxx8ngERKNS_8DateTimeE@Base 2.3.0~svn544
 _ZN7blocxx8pLERNS_8DateTimeERKNS_4Time12TimeDurationE@Base 2.3.0~svn544
 _ZN7blocxx8plENS_8DateTimeEd@Base 2.3.0~svn544
 _ZN7blocxx8plEPKcRKNS_6StringE@Base 2.3.0~svn544
 _ZN7blocxx8plERKNS_4Time12TimeDurationERKNS_8DateTimeE@Base 2.3.0~svn544
 _ZN7blocxx8plERKNS_6StringEPKc@Base 2.3.0~svn544
 _ZN7blocxx8plERKNS_6StringES2_@Base 2.3.0~svn544
 _ZN7blocxx8plERKNS_6StringEc@Base 2.3.0~svn544
 _ZN7blocxx8plERKNS_8DateTimeERKNS_4Time12TimeDurationE@Base 2.3.0~svn544
 _ZN7blocxx8plEcRKNS_6StringE@Base 2.3.0~svn544
 _ZN9__gnu_cxx13__scoped_lockC1ERNS_7__mutexE@Base 2.3.0~svn544
 _ZN9__gnu_cxx13__scoped_lockC2ERNS_7__mutexE@Base 2.3.0~svn544
 _ZN9__gnu_cxx13__scoped_lockD1Ev@Base 2.3.0~svn544
 _ZN9__gnu_cxx13__scoped_lockD2Ev@Base 2.3.0~svn544
 _ZN9__gnu_cxx13new_allocatorI10regmatch_tE10deallocateEPS1_m@Base 2.3.0~svn544
 _ZN9__gnu_cxx13new_allocatorI10regmatch_tE8allocateEmPKv@Base 2.3.0~svn544
 _ZN9__gnu_cxx13new_allocatorI10regmatch_tEC1ERKS2_@Base 2.3.0~svn544
 _ZN9__gnu_cxx13new_allocatorI10regmatch_tEC1Ev@Base 2.3.0~svn544
 _ZN9__gnu_cxx13new_allocatorI10regmatch_tEC2ERKS2_@Base 2.3.0~svn544
 _ZN9__gnu_cxx13new_allocatorI10regmatch_tEC2Ev@Base 2.3.0~svn544
 _ZN9__gnu_cxx13new_allocatorI10regmatch_tED1Ev@Base 2.3.0~svn544
 _ZN9__gnu_cxx13new_allocatorI10regmatch_tED2Ev@Base 2.3.0~svn544
 _ZN9__gnu_cxx13new_allocatorIN7blocxx818IntrusiveReferenceINS1_11LogAppenderEEEE10deallocateEPS4_m@Base 2.3.0~svn544
 _ZN9__gnu_cxx13new_allocatorIN7blocxx818IntrusiveReferenceINS1_11LogAppenderEEEE7destroyEPS4_@Base 2.3.0~svn544
 _ZN9__gnu_cxx13new_allocatorIN7blocxx818IntrusiveReferenceINS1_11LogAppenderEEEE8allocateEmPKv@Base 2.3.0~svn544
 _ZN9__gnu_cxx13new_allocatorIN7blocxx818IntrusiveReferenceINS1_11LogAppenderEEEE9constructEPS4_RKS4_@Base 2.3.0~svn544
 _ZN9__gnu_cxx13new_allocatorIN7blocxx818IntrusiveReferenceINS1_11LogAppenderEEEE9constructIIS4_EEEvPS4_DpOT_@Base 2.3.0~svn544
 _ZN9__gnu_cxx13new_allocatorIN7blocxx818IntrusiveReferenceINS1_11LogAppenderEEEEC1ERKS5_@Base 2.3.0~svn544
 _ZN9__gnu_cxx13new_allocatorIN7blocxx818IntrusiveReferenceINS1_11LogAppenderEEEEC1Ev@Base 2.3.0~svn544
 _ZN9__gnu_cxx13new_allocatorIN7blocxx818IntrusiveReferenceINS1_11LogAppenderEEEEC2ERKS5_@Base 2.3.0~svn544
 _ZN9__gnu_cxx13new_allocatorIN7blocxx818IntrusiveReferenceINS1_11LogAppenderEEEEC2Ev@Base 2.3.0~svn544
 _ZN9__gnu_cxx13new_allocatorIN7blocxx818IntrusiveReferenceINS1_11LogAppenderEEEED1Ev@Base 2.3.0~svn544
 _ZN9__gnu_cxx13new_allocatorIN7blocxx818IntrusiveReferenceINS1_11LogAppenderEEEED2Ev@Base 2.3.0~svn544
 _ZN9__gnu_cxx13new_allocatorIN7blocxx818IntrusiveReferenceINS1_16ParserOptionImplEEEE10deallocateEPS4_m@Base 2.3.0~svn544
 _ZN9__gnu_cxx13new_allocatorIN7blocxx818IntrusiveReferenceINS1_16ParserOptionImplEEEE7destroyEPS4_@Base 2.3.0~svn544
 _ZN9__gnu_cxx13new_allocatorIN7blocxx818IntrusiveReferenceINS1_16ParserOptionImplEEEE8allocateEmPKv@Base 2.3.0~svn544
 _ZN9__gnu_cxx13new_allocatorIN7blocxx818IntrusiveReferenceINS1_16ParserOptionImplEEEE9constructEPS4_RKS4_@Base 2.3.0~svn544
 _ZN9__gnu_cxx13new_allocatorIN7blocxx818IntrusiveReferenceINS1_16ParserOptionImplEEEE9constructIIS4_EEEvPS4_DpOT_@Base 2.3.0~svn544
 _ZN9__gnu_cxx13new_allocatorIN7blocxx818IntrusiveReferenceINS1_16ParserOptionImplEEEEC1ERKS5_@Base 2.3.0~svn544
 _ZN9__gnu_cxx13new_allocatorIN7blocxx818IntrusiveReferenceINS1_16ParserOptionImplEEEEC1Ev@Base 2.3.0~svn544
 _ZN9__gnu_cxx13new_allocatorIN7blocxx818IntrusiveReferenceINS1_16ParserOptionImplEEEEC2ERKS5_@Base 2.3.0~svn544
 _ZN9__gnu_cxx13new_allocatorIN7blocxx818IntrusiveReferenceINS1_16ParserOptionImplEEEEC2Ev@Base 2.3.0~svn544
 _ZN9__gnu_cxx13new_allocatorIN7blocxx818IntrusiveReferenceINS1_16ParserOptionImplEEEED1Ev@Base 2.3.0~svn544
 _ZN9__gnu_cxx13new_allocatorIN7blocxx818IntrusiveReferenceINS1_16ParserOptionImplEEEED2Ev@Base 2.3.0~svn544
 _ZN9__gnu_cxx13new_allocatorIN7blocxx818IntrusiveReferenceINS1_26LogMessagePatternFormatter9ConverterEEEE10deallocateEPS5_m@Base 2.3.0~svn544
 _ZN9__gnu_cxx13new_allocatorIN7blocxx818IntrusiveReferenceINS1_26LogMessagePatternFormatter9ConverterEEEE7destroyEPS5_@Base 2.3.0~svn544
 _ZN9__gnu_cxx13new_allocatorIN7blocxx818IntrusiveReferenceINS1_26LogMessagePatternFormatter9ConverterEEEE8allocateEmPKv@Base 2.3.0~svn544
 _ZN9__gnu_cxx13new_allocatorIN7blocxx818IntrusiveReferenceINS1_26LogMessagePatternFormatter9ConverterEEEE9constructEPS5_RKS5_@Base 2.3.0~svn544
 _ZN9__gnu_cxx13new_allocatorIN7blocxx818IntrusiveReferenceINS1_26LogMessagePatternFormatter9ConverterEEEE9constructIIS5_EEEvPS5_DpOT_@Base 2.3.0~svn544
 _ZN9__gnu_cxx13new_allocatorIN7blocxx818IntrusiveReferenceINS1_26LogMessagePatternFormatter9ConverterEEEEC1ERKS6_@Base 2.3.0~svn544
 _ZN9__gnu_cxx13new_allocatorIN7blocxx818IntrusiveReferenceINS1_26LogMessagePatternFormatter9ConverterEEEEC1Ev@Base 2.3.0~svn544
 _ZN9__gnu_cxx13new_allocatorIN7blocxx818IntrusiveReferenceINS1_26LogMessagePatternFormatter9ConverterEEEEC2ERKS6_@Base 2.3.0~svn544
 _ZN9__gnu_cxx13new_allocatorIN7blocxx818IntrusiveReferenceINS1_26LogMessagePatternFormatter9ConverterEEEEC2Ev@Base 2.3.0~svn544
 _ZN9__gnu_cxx13new_allocatorIN7blocxx818IntrusiveReferenceINS1_26LogMessagePatternFormatter9ConverterEEEED1Ev@Base 2.3.0~svn544
 _ZN9__gnu_cxx13new_allocatorIN7blocxx818IntrusiveReferenceINS1_26LogMessagePatternFormatter9ConverterEEEED2Ev@Base 2.3.0~svn544
 _ZN9__gnu_cxx13new_allocatorIN7blocxx818IntrusiveReferenceINS1_6ThreadEEEE10deallocateEPS4_m@Base 2.3.0~svn544
 _ZN9__gnu_cxx13new_allocatorIN7blocxx818IntrusiveReferenceINS1_6ThreadEEEE7destroyEPS4_@Base 2.3.0~svn544
 _ZN9__gnu_cxx13new_allocatorIN7blocxx818IntrusiveReferenceINS1_6ThreadEEEE8allocateEmPKv@Base 2.3.0~svn544
 _ZN9__gnu_cxx13new_allocatorIN7blocxx818IntrusiveReferenceINS1_6ThreadEEEE9constructEPS4_RKS4_@Base 2.3.0~svn544
 _ZN9__gnu_cxx13new_allocatorIN7blocxx818IntrusiveReferenceINS1_6ThreadEEEE9constructIIS4_EEEvPS4_DpOT_@Base 2.3.0~svn544
 _ZN9__gnu_cxx13new_allocatorIN7blocxx818IntrusiveReferenceINS1_6ThreadEEEEC1ERKS5_@Base 2.3.0~svn544
 _ZN9__gnu_cxx13new_allocatorIN7blocxx818IntrusiveReferenceINS1_6ThreadEEEEC1Ev@Base 2.3.0~svn544
 _ZN9__gnu_cxx13new_allocatorIN7blocxx818IntrusiveReferenceINS1_6ThreadEEEEC2ERKS5_@Base 2.3.0~svn544
 _ZN9__gnu_cxx13new_allocatorIN7blocxx818IntrusiveReferenceINS1_6ThreadEEEEC2Ev@Base 2.3.0~svn544
 _ZN9__gnu_cxx13new_allocatorIN7blocxx818IntrusiveReferenceINS1_6ThreadEEEED1Ev@Base 2.3.0~svn544
 _ZN9__gnu_cxx13new_allocatorIN7blocxx818IntrusiveReferenceINS1_6ThreadEEEED2Ev@Base 2.3.0~svn544
 _ZN9__gnu_cxx13new_allocatorIN7blocxx818IntrusiveReferenceINS1_7ProcessEEEE10deallocateEPS4_m@Base 2.3.0~svn544
 _ZN9__gnu_cxx13new_allocatorIN7blocxx818IntrusiveReferenceINS1_7ProcessEEEE7destroyEPS4_@Base 2.3.0~svn544
 _ZN9__gnu_cxx13new_allocatorIN7blocxx818IntrusiveReferenceINS1_7ProcessEEEE8allocateEmPKv@Base 2.3.0~svn544
 _ZN9__gnu_cxx13new_allocatorIN7blocxx818IntrusiveReferenceINS1_7ProcessEEEE9constructEPS4_RKS4_@Base 2.3.0~svn544
 _ZN9__gnu_cxx13new_allocatorIN7blocxx818IntrusiveReferenceINS1_7ProcessEEEE9constructIIS4_EEEvPS4_DpOT_@Base 2.3.0~svn544
 _ZN9__gnu_cxx13new_allocatorIN7blocxx818IntrusiveReferenceINS1_7ProcessEEEEC1ERKS5_@Base 2.3.0~svn544
 _ZN9__gnu_cxx13new_allocatorIN7blocxx818IntrusiveReferenceINS1_7ProcessEEEEC1Ev@Base 2.3.0~svn544
 _ZN9__gnu_cxx13new_allocatorIN7blocxx818IntrusiveReferenceINS1_7ProcessEEEEC2ERKS5_@Base 2.3.0~svn544
 _ZN9__gnu_cxx13new_allocatorIN7blocxx818IntrusiveReferenceINS1_7ProcessEEEEC2Ev@Base 2.3.0~svn544
 _ZN9__gnu_cxx13new_allocatorIN7blocxx818IntrusiveReferenceINS1_7ProcessEEEED1Ev@Base 2.3.0~svn544
 _ZN9__gnu_cxx13new_allocatorIN7blocxx818IntrusiveReferenceINS1_7ProcessEEEED2Ev@Base 2.3.0~svn544
 _ZN9__gnu_cxx13new_allocatorIN7blocxx818IntrusiveReferenceINS1_8RunnableEEEE10deallocateEPS4_m@Base 2.3.0~svn544
 _ZN9__gnu_cxx13new_allocatorIN7blocxx818IntrusiveReferenceINS1_8RunnableEEEE7destroyEPS4_@Base 2.3.0~svn544
 _ZN9__gnu_cxx13new_allocatorIN7blocxx818IntrusiveReferenceINS1_8RunnableEEEE8allocateEmPKv@Base 2.3.0~svn544
 _ZN9__gnu_cxx13new_allocatorIN7blocxx818IntrusiveReferenceINS1_8RunnableEEEE9constructEPS4_RKS4_@Base 2.3.0~svn544
 _ZN9__gnu_cxx13new_allocatorIN7blocxx818IntrusiveReferenceINS1_8RunnableEEEEC1ERKS5_@Base 2.3.0~svn544
 _ZN9__gnu_cxx13new_allocatorIN7blocxx818IntrusiveReferenceINS1_8RunnableEEEEC1Ev@Base 2.3.0~svn544
 _ZN9__gnu_cxx13new_allocatorIN7blocxx818IntrusiveReferenceINS1_8RunnableEEEEC2ERKS5_@Base 2.3.0~svn544
 _ZN9__gnu_cxx13new_allocatorIN7blocxx818IntrusiveReferenceINS1_8RunnableEEEEC2Ev@Base 2.3.0~svn544
 _ZN9__gnu_cxx13new_allocatorIN7blocxx818IntrusiveReferenceINS1_8RunnableEEEED1Ev@Base 2.3.0~svn544
 _ZN9__gnu_cxx13new_allocatorIN7blocxx818IntrusiveReferenceINS1_8RunnableEEEED2Ev@Base 2.3.0~svn544
 _ZN9__gnu_cxx13new_allocatorIN7blocxx85ArrayIcEEE10deallocateEPS3_m@Base 2.3.0~svn544
 _ZN9__gnu_cxx13new_allocatorIN7blocxx85ArrayIcEEE8allocateEmPKv@Base 2.3.0~svn544
 _ZN9__gnu_cxx13new_allocatorIN7blocxx85ArrayIcEEEC1ERKS4_@Base 2.3.0~svn544
 _ZN9__gnu_cxx13new_allocatorIN7blocxx85ArrayIcEEEC1Ev@Base 2.3.0~svn544
 _ZN9__gnu_cxx13new_allocatorIN7blocxx85ArrayIcEEEC2ERKS4_@Base 2.3.0~svn544
 _ZN9__gnu_cxx13new_allocatorIN7blocxx85ArrayIcEEEC2Ev@Base 2.3.0~svn544
 _ZN9__gnu_cxx13new_allocatorIN7blocxx85ArrayIcEEED1Ev@Base 2.3.0~svn544
 _ZN9__gnu_cxx13new_allocatorIN7blocxx85ArrayIcEEED2Ev@Base 2.3.0~svn544
 _ZN9__gnu_cxx13new_allocatorIN7blocxx86Select12SelectObjectEE10deallocateEPS3_m@Base 2.3.0~svn544
 _ZN9__gnu_cxx13new_allocatorIN7blocxx86Select12SelectObjectEE7destroyEPS3_@Base 2.3.0~svn544
 _ZN9__gnu_cxx13new_allocatorIN7blocxx86Select12SelectObjectEE8allocateEmPKv@Base 2.3.0~svn544
 _ZN9__gnu_cxx13new_allocatorIN7blocxx86Select12SelectObjectEE9constructEPS3_RKS3_@Base 2.3.0~svn544
 _ZN9__gnu_cxx13new_allocatorIN7blocxx86Select12SelectObjectEE9constructIIS3_EEEvPS3_DpOT_@Base 2.3.0~svn544
 _ZN9__gnu_cxx13new_allocatorIN7blocxx86Select12SelectObjectEEC1ERKS4_@Base 2.3.0~svn544
 _ZN9__gnu_cxx13new_allocatorIN7blocxx86Select12SelectObjectEEC1Ev@Base 2.3.0~svn544
 _ZN9__gnu_cxx13new_allocatorIN7blocxx86Select12SelectObjectEEC2ERKS4_@Base 2.3.0~svn544
 _ZN9__gnu_cxx13new_allocatorIN7blocxx86Select12SelectObjectEEC2Ev@Base 2.3.0~svn544
 _ZN9__gnu_cxx13new_allocatorIN7blocxx86Select12SelectObjectEED1Ev@Base 2.3.0~svn544
 _ZN9__gnu_cxx13new_allocatorIN7blocxx86Select12SelectObjectEED2Ev@Base 2.3.0~svn544
 _ZN9__gnu_cxx13new_allocatorIN7blocxx86StringEE10deallocateEPS2_m@Base 2.3.0~svn544
 _ZN9__gnu_cxx13new_allocatorIN7blocxx86StringEE7destroyEPS2_@Base 2.3.0~svn544
 _ZN9__gnu_cxx13new_allocatorIN7blocxx86StringEE8allocateEmPKv@Base 2.3.0~svn544
 _ZN9__gnu_cxx13new_allocatorIN7blocxx86StringEE9constructEPS2_RKS2_@Base 2.3.0~svn544
 _ZN9__gnu_cxx13new_allocatorIN7blocxx86StringEE9constructIIS2_EEEvPS2_DpOT_@Base 2.3.0~svn544
 _ZN9__gnu_cxx13new_allocatorIN7blocxx86StringEEC1ERKS3_@Base 2.3.0~svn544
 _ZN9__gnu_cxx13new_allocatorIN7blocxx86StringEEC1Ev@Base 2.3.0~svn544
 _ZN9__gnu_cxx13new_allocatorIN7blocxx86StringEEC2ERKS3_@Base 2.3.0~svn544
 _ZN9__gnu_cxx13new_allocatorIN7blocxx86StringEEC2Ev@Base 2.3.0~svn544
 _ZN9__gnu_cxx13new_allocatorIN7blocxx86StringEED1Ev@Base 2.3.0~svn544
 _ZN9__gnu_cxx13new_allocatorIN7blocxx86StringEED2Ev@Base 2.3.0~svn544
 _ZN9__gnu_cxx13new_allocatorIN7blocxx89PerlRegEx7match_tEE10deallocateEPS3_m@Base 2.3.0~svn544
 _ZN9__gnu_cxx13new_allocatorIN7blocxx89PerlRegEx7match_tEE8allocateEmPKv@Base 2.3.0~svn544
 _ZN9__gnu_cxx13new_allocatorIN7blocxx89PerlRegEx7match_tEEC1ERKS4_@Base 2.3.0~svn544
 _ZN9__gnu_cxx13new_allocatorIN7blocxx89PerlRegEx7match_tEEC1Ev@Base 2.3.0~svn544
 _ZN9__gnu_cxx13new_allocatorIN7blocxx89PerlRegEx7match_tEEC2ERKS4_@Base 2.3.0~svn544
 _ZN9__gnu_cxx13new_allocatorIN7blocxx89PerlRegEx7match_tEEC2Ev@Base 2.3.0~svn544
 _ZN9__gnu_cxx13new_allocatorIN7blocxx89PerlRegEx7match_tEED1Ev@Base 2.3.0~svn544
 _ZN9__gnu_cxx13new_allocatorIN7blocxx89PerlRegEx7match_tEED2Ev@Base 2.3.0~svn544
 _ZN9__gnu_cxx13new_allocatorIN7blocxx89ReferenceINS1_22DelayedFormatInternals26DelayedFormatReferenceBaseEEEE10deallocateEPS5_m@Base 2.3.0~svn544
 _ZN9__gnu_cxx13new_allocatorIN7blocxx89ReferenceINS1_22DelayedFormatInternals26DelayedFormatReferenceBaseEEEEC1ERKS6_@Base 2.3.0~svn544
 _ZN9__gnu_cxx13new_allocatorIN7blocxx89ReferenceINS1_22DelayedFormatInternals26DelayedFormatReferenceBaseEEEEC1Ev@Base 2.3.0~svn544
 _ZN9__gnu_cxx13new_allocatorIN7blocxx89ReferenceINS1_22DelayedFormatInternals26DelayedFormatReferenceBaseEEEEC2ERKS6_@Base 2.3.0~svn544
 _ZN9__gnu_cxx13new_allocatorIN7blocxx89ReferenceINS1_22DelayedFormatInternals26DelayedFormatReferenceBaseEEEEC2Ev@Base 2.3.0~svn544
 _ZN9__gnu_cxx13new_allocatorIN7blocxx89ReferenceINS1_22DelayedFormatInternals26DelayedFormatReferenceBaseEEEED1Ev@Base 2.3.0~svn544
 _ZN9__gnu_cxx13new_allocatorIN7blocxx89ReferenceINS1_22DelayedFormatInternals26DelayedFormatReferenceBaseEEEED2Ev@Base 2.3.0~svn544
 _ZN9__gnu_cxx13new_allocatorIP7x509_stE10deallocateEPS2_m@Base 2.3.0~svn544
 _ZN9__gnu_cxx13new_allocatorIP7x509_stEC1ERKS3_@Base 2.3.0~svn544
 _ZN9__gnu_cxx13new_allocatorIP7x509_stEC1Ev@Base 2.3.0~svn544
 _ZN9__gnu_cxx13new_allocatorIP7x509_stEC2ERKS3_@Base 2.3.0~svn544
 _ZN9__gnu_cxx13new_allocatorIP7x509_stEC2Ev@Base 2.3.0~svn544
 _ZN9__gnu_cxx13new_allocatorIP7x509_stED1Ev@Base 2.3.0~svn544
 _ZN9__gnu_cxx13new_allocatorIP7x509_stED2Ev@Base 2.3.0~svn544
 _ZN9__gnu_cxx13new_allocatorIPKcE10deallocateEPS2_m@Base 2.3.0~svn544
 _ZN9__gnu_cxx13new_allocatorIPKcE7destroyEPS2_@Base 2.3.0~svn544
 _ZN9__gnu_cxx13new_allocatorIPKcE8allocateEmPKv@Base 2.3.0~svn544
 _ZN9__gnu_cxx13new_allocatorIPKcE9constructEPS2_RKS2_@Base 2.3.0~svn544
 _ZN9__gnu_cxx13new_allocatorIPKcE9constructIIS2_EEEvPS2_DpOT_@Base 2.3.0~svn544
 _ZN9__gnu_cxx13new_allocatorIPKcEC1ERKS3_@Base 2.3.0~svn544
 _ZN9__gnu_cxx13new_allocatorIPKcEC1Ev@Base 2.3.0~svn544
 _ZN9__gnu_cxx13new_allocatorIPKcEC2ERKS3_@Base 2.3.0~svn544
 _ZN9__gnu_cxx13new_allocatorIPKcEC2Ev@Base 2.3.0~svn544
 _ZN9__gnu_cxx13new_allocatorIPKcED1Ev@Base 2.3.0~svn544
 _ZN9__gnu_cxx13new_allocatorIPKcED2Ev@Base 2.3.0~svn544
 _ZN9__gnu_cxx13new_allocatorIPN7blocxx818IntrusiveReferenceINS1_8RunnableEEEE10deallocateEPS5_m@Base 2.3.0~svn544
 _ZN9__gnu_cxx13new_allocatorIPN7blocxx818IntrusiveReferenceINS1_8RunnableEEEE8allocateEmPKv@Base 2.3.0~svn544
 _ZN9__gnu_cxx13new_allocatorIPN7blocxx818IntrusiveReferenceINS1_8RunnableEEEEC1Ev@Base 2.3.0~svn544
 _ZN9__gnu_cxx13new_allocatorIPN7blocxx818IntrusiveReferenceINS1_8RunnableEEEEC2Ev@Base 2.3.0~svn544
 _ZN9__gnu_cxx13new_allocatorIPN7blocxx818IntrusiveReferenceINS1_8RunnableEEEED1Ev@Base 2.3.0~svn544
 _ZN9__gnu_cxx13new_allocatorIPN7blocxx818IntrusiveReferenceINS1_8RunnableEEEED2Ev@Base 2.3.0~svn544
 _ZN9__gnu_cxx13new_allocatorISt13_Rb_tree_nodeISt4pairIKN7blocxx86StringENS3_13SSLTrustStore8UserInfoEEEE10deallocateEPS9_m@Base 2.3.0~svn544
 _ZN9__gnu_cxx13new_allocatorISt13_Rb_tree_nodeISt4pairIKN7blocxx86StringENS3_13SSLTrustStore8UserInfoEEEE7destroyEPS9_@Base 2.3.0~svn544
 _ZN9__gnu_cxx13new_allocatorISt13_Rb_tree_nodeISt4pairIKN7blocxx86StringENS3_13SSLTrustStore8UserInfoEEEE8allocateEmPKv@Base 2.3.0~svn544
 _ZN9__gnu_cxx13new_allocatorISt13_Rb_tree_nodeISt4pairIKN7blocxx86StringENS3_13SSLTrustStore8UserInfoEEEE9constructIIRKS8_EEEvPS9_DpOT_@Base 2.3.0~svn544
 _ZN9__gnu_cxx13new_allocatorISt13_Rb_tree_nodeISt4pairIKN7blocxx86StringENS3_13SSLTrustStore8UserInfoEEEE9constructIIS8_EEEvPS9_DpOT_@Base 2.3.0~svn544
 _ZN9__gnu_cxx13new_allocatorISt13_Rb_tree_nodeISt4pairIKN7blocxx86StringENS3_13SSLTrustStore8UserInfoEEEEC1ERKSA_@Base 2.3.0~svn544
 _ZN9__gnu_cxx13new_allocatorISt13_Rb_tree_nodeISt4pairIKN7blocxx86StringENS3_13SSLTrustStore8UserInfoEEEEC1Ev@Base 2.3.0~svn544
 _ZN9__gnu_cxx13new_allocatorISt13_Rb_tree_nodeISt4pairIKN7blocxx86StringENS3_13SSLTrustStore8UserInfoEEEEC2ERKSA_@Base 2.3.0~svn544
 _ZN9__gnu_cxx13new_allocatorISt13_Rb_tree_nodeISt4pairIKN7blocxx86StringENS3_13SSLTrustStore8UserInfoEEEEC2Ev@Base 2.3.0~svn544
 _ZN9__gnu_cxx13new_allocatorISt13_Rb_tree_nodeISt4pairIKN7blocxx86StringENS3_13SSLTrustStore8UserInfoEEEED1Ev@Base 2.3.0~svn544
 _ZN9__gnu_cxx13new_allocatorISt13_Rb_tree_nodeISt4pairIKN7blocxx86StringENS3_13SSLTrustStore8UserInfoEEEED2Ev@Base 2.3.0~svn544
 _ZN9__gnu_cxx13new_allocatorISt13_Rb_tree_nodeISt4pairIKN7blocxx86StringES4_EEE10deallocateEPS7_m@Base 2.3.0~svn544
 _ZN9__gnu_cxx13new_allocatorISt13_Rb_tree_nodeISt4pairIKN7blocxx86StringES4_EEE7destroyEPS7_@Base 2.3.0~svn544
 _ZN9__gnu_cxx13new_allocatorISt13_Rb_tree_nodeISt4pairIKN7blocxx86StringES4_EEE8allocateEmPKv@Base 2.3.0~svn544
 _ZN9__gnu_cxx13new_allocatorISt13_Rb_tree_nodeISt4pairIKN7blocxx86StringES4_EEE9constructIIRKS6_EEEvPS7_DpOT_@Base 2.3.0~svn544
 _ZN9__gnu_cxx13new_allocatorISt13_Rb_tree_nodeISt4pairIKN7blocxx86StringES4_EEE9constructIIS6_EEEvPS7_DpOT_@Base 2.3.0~svn544
 _ZN9__gnu_cxx13new_allocatorISt13_Rb_tree_nodeISt4pairIKN7blocxx86StringES4_EEEC1ERKS8_@Base 2.3.0~svn544
 _ZN9__gnu_cxx13new_allocatorISt13_Rb_tree_nodeISt4pairIKN7blocxx86StringES4_EEEC1Ev@Base 2.3.0~svn544
 _ZN9__gnu_cxx13new_allocatorISt13_Rb_tree_nodeISt4pairIKN7blocxx86StringES4_EEEC2ERKS8_@Base 2.3.0~svn544
 _ZN9__gnu_cxx13new_allocatorISt13_Rb_tree_nodeISt4pairIKN7blocxx86StringES4_EEEC2Ev@Base 2.3.0~svn544
 _ZN9__gnu_cxx13new_allocatorISt13_Rb_tree_nodeISt4pairIKN7blocxx86StringES4_EEED1Ev@Base 2.3.0~svn544
 _ZN9__gnu_cxx13new_allocatorISt13_Rb_tree_nodeISt4pairIKN7blocxx86StringES4_EEED2Ev@Base 2.3.0~svn544
 _ZN9__gnu_cxx13new_allocatorISt13_Rb_tree_nodeISt4pairIKiiEEE10deallocateEPS5_m@Base 2.3.0~svn544
 _ZN9__gnu_cxx13new_allocatorISt13_Rb_tree_nodeISt4pairIKiiEEE7destroyEPS5_@Base 2.3.0~svn544
 _ZN9__gnu_cxx13new_allocatorISt13_Rb_tree_nodeISt4pairIKiiEEE8allocateEmPKv@Base 2.3.0~svn544
 _ZN9__gnu_cxx13new_allocatorISt13_Rb_tree_nodeISt4pairIKiiEEE9constructIIS2_IiiEEEEvPS5_DpOT_@Base 2.3.0~svn544
 _ZN9__gnu_cxx13new_allocatorISt13_Rb_tree_nodeISt4pairIKiiEEEC1ERKS6_@Base 2.3.0~svn544
 _ZN9__gnu_cxx13new_allocatorISt13_Rb_tree_nodeISt4pairIKiiEEEC1Ev@Base 2.3.0~svn544
 _ZN9__gnu_cxx13new_allocatorISt13_Rb_tree_nodeISt4pairIKiiEEEC2ERKS6_@Base 2.3.0~svn544
 _ZN9__gnu_cxx13new_allocatorISt13_Rb_tree_nodeISt4pairIKiiEEEC2Ev@Base 2.3.0~svn544
 _ZN9__gnu_cxx13new_allocatorISt13_Rb_tree_nodeISt4pairIKiiEEED1Ev@Base 2.3.0~svn544
 _ZN9__gnu_cxx13new_allocatorISt13_Rb_tree_nodeISt4pairIKiiEEED2Ev@Base 2.3.0~svn544
 _ZN9__gnu_cxx13new_allocatorISt13_Rb_tree_nodeISt4pairIKmN7blocxx817GenericRWLockImplImNS4_8RWLocker14ThreadComparerEE10LockerInfoEEEE10deallocateEPSB_m@Base 2.3.0~svn544
 _ZN9__gnu_cxx13new_allocatorISt13_Rb_tree_nodeISt4pairIKmN7blocxx817GenericRWLockImplImNS4_8RWLocker14ThreadComparerEE10LockerInfoEEEE7destroyEPSB_@Base 2.3.0~svn544
 _ZN9__gnu_cxx13new_allocatorISt13_Rb_tree_nodeISt4pairIKmN7blocxx817GenericRWLockImplImNS4_8RWLocker14ThreadComparerEE10LockerInfoEEEE8allocateEmPKv@Base 2.3.0~svn544
 _ZN9__gnu_cxx13new_allocatorISt13_Rb_tree_nodeISt4pairIKmN7blocxx817GenericRWLockImplImNS4_8RWLocker14ThreadComparerEE10LockerInfoEEEE9constructIISA_EEEvPSB_DpOT_@Base 2.3.0~svn544
 _ZN9__gnu_cxx13new_allocatorISt13_Rb_tree_nodeISt4pairIKmN7blocxx817GenericRWLockImplImNS4_8RWLocker14ThreadComparerEE10LockerInfoEEEEC1ERKSC_@Base 2.3.0~svn544
 _ZN9__gnu_cxx13new_allocatorISt13_Rb_tree_nodeISt4pairIKmN7blocxx817GenericRWLockImplImNS4_8RWLocker14ThreadComparerEE10LockerInfoEEEEC1Ev@Base 2.3.0~svn544
 _ZN9__gnu_cxx13new_allocatorISt13_Rb_tree_nodeISt4pairIKmN7blocxx817GenericRWLockImplImNS4_8RWLocker14ThreadComparerEE10LockerInfoEEEEC2ERKSC_@Base 2.3.0~svn544
 _ZN9__gnu_cxx13new_allocatorISt13_Rb_tree_nodeISt4pairIKmN7blocxx817GenericRWLockImplImNS4_8RWLocker14ThreadComparerEE10LockerInfoEEEEC2Ev@Base 2.3.0~svn544
 _ZN9__gnu_cxx13new_allocatorISt13_Rb_tree_nodeISt4pairIKmN7blocxx817GenericRWLockImplImNS4_8RWLocker14ThreadComparerEE10LockerInfoEEEED1Ev@Base 2.3.0~svn544
 _ZN9__gnu_cxx13new_allocatorISt13_Rb_tree_nodeISt4pairIKmN7blocxx817GenericRWLockImplImNS4_8RWLocker14ThreadComparerEE10LockerInfoEEEED2Ev@Base 2.3.0~svn544
 _ZN9__gnu_cxx13new_allocatorISt4pairIKN7blocxx86StringENS2_13SSLTrustStore8UserInfoEEEC1Ev@Base 2.3.0~svn544
 _ZN9__gnu_cxx13new_allocatorISt4pairIKN7blocxx86StringENS2_13SSLTrustStore8UserInfoEEEC2Ev@Base 2.3.0~svn544
 _ZN9__gnu_cxx13new_allocatorISt4pairIKN7blocxx86StringENS2_13SSLTrustStore8UserInfoEEED1Ev@Base 2.3.0~svn544
 _ZN9__gnu_cxx13new_allocatorISt4pairIKN7blocxx86StringENS2_13SSLTrustStore8UserInfoEEED2Ev@Base 2.3.0~svn544
 _ZN9__gnu_cxx13new_allocatorISt4pairIKN7blocxx86StringES3_EEC1Ev@Base 2.3.0~svn544
 _ZN9__gnu_cxx13new_allocatorISt4pairIKN7blocxx86StringES3_EEC2Ev@Base 2.3.0~svn544
 _ZN9__gnu_cxx13new_allocatorISt4pairIKN7blocxx86StringES3_EED1Ev@Base 2.3.0~svn544
 _ZN9__gnu_cxx13new_allocatorISt4pairIKN7blocxx86StringES3_EED2Ev@Base 2.3.0~svn544
 _ZN9__gnu_cxx13new_allocatorISt4pairIKiiEEC1Ev@Base 2.3.0~svn544
 _ZN9__gnu_cxx13new_allocatorISt4pairIKiiEEC2Ev@Base 2.3.0~svn544
 _ZN9__gnu_cxx13new_allocatorISt4pairIKiiEED1Ev@Base 2.3.0~svn544
 _ZN9__gnu_cxx13new_allocatorISt4pairIKiiEED2Ev@Base 2.3.0~svn544
 _ZN9__gnu_cxx13new_allocatorISt4pairIKmN7blocxx817GenericRWLockImplImNS3_8RWLocker14ThreadComparerEE10LockerInfoEEEC1Ev@Base 2.3.0~svn544
 _ZN9__gnu_cxx13new_allocatorISt4pairIKmN7blocxx817GenericRWLockImplImNS3_8RWLocker14ThreadComparerEE10LockerInfoEEEC2Ev@Base 2.3.0~svn544
 _ZN9__gnu_cxx13new_allocatorISt4pairIKmN7blocxx817GenericRWLockImplImNS3_8RWLocker14ThreadComparerEE10LockerInfoEEED1Ev@Base 2.3.0~svn544
 _ZN9__gnu_cxx13new_allocatorISt4pairIKmN7blocxx817GenericRWLockImplImNS3_8RWLocker14ThreadComparerEE10LockerInfoEEED2Ev@Base 2.3.0~svn544
 _ZN9__gnu_cxx13new_allocatorISt4pairIN7blocxx86StringENS2_17EFileStatusReturnEEE10deallocateEPS5_m@Base 2.3.0~svn544
 _ZN9__gnu_cxx13new_allocatorISt4pairIN7blocxx86StringENS2_17EFileStatusReturnEEE7destroyEPS5_@Base 2.3.0~svn544
 _ZN9__gnu_cxx13new_allocatorISt4pairIN7blocxx86StringENS2_17EFileStatusReturnEEE8allocateEmPKv@Base 2.3.0~svn544
 _ZN9__gnu_cxx13new_allocatorISt4pairIN7blocxx86StringENS2_17EFileStatusReturnEEE9constructEPS5_RKS5_@Base 2.3.0~svn544
 _ZN9__gnu_cxx13new_allocatorISt4pairIN7blocxx86StringENS2_17EFileStatusReturnEEE9constructIIS5_EEEvPS5_DpOT_@Base 2.3.0~svn544
 _ZN9__gnu_cxx13new_allocatorISt4pairIN7blocxx86StringENS2_17EFileStatusReturnEEEC1ERKS6_@Base 2.3.0~svn544
 _ZN9__gnu_cxx13new_allocatorISt4pairIN7blocxx86StringENS2_17EFileStatusReturnEEEC1Ev@Base 2.3.0~svn544
 _ZN9__gnu_cxx13new_allocatorISt4pairIN7blocxx86StringENS2_17EFileStatusReturnEEEC2ERKS6_@Base 2.3.0~svn544
 _ZN9__gnu_cxx13new_allocatorISt4pairIN7blocxx86StringENS2_17EFileStatusReturnEEEC2Ev@Base 2.3.0~svn544
 _ZN9__gnu_cxx13new_allocatorISt4pairIN7blocxx86StringENS2_17EFileStatusReturnEEED1Ev@Base 2.3.0~svn544
 _ZN9__gnu_cxx13new_allocatorISt4pairIN7blocxx86StringENS2_17EFileStatusReturnEEED2Ev@Base 2.3.0~svn544
 _ZN9__gnu_cxx13new_allocatorISt4pairIiN7blocxx812SelectEngine4DataEEE10deallocateEPS5_m@Base 2.3.0~svn544
 _ZN9__gnu_cxx13new_allocatorISt4pairIiN7blocxx812SelectEngine4DataEEE7destroyEPS5_@Base 2.3.0~svn544
 _ZN9__gnu_cxx13new_allocatorISt4pairIiN7blocxx812SelectEngine4DataEEE8allocateEmPKv@Base 2.3.0~svn544
 _ZN9__gnu_cxx13new_allocatorISt4pairIiN7blocxx812SelectEngine4DataEEE9constructIIS5_EEEvPS5_DpOT_@Base 2.3.0~svn544
 _ZN9__gnu_cxx13new_allocatorISt4pairIiN7blocxx812SelectEngine4DataEEEC1ERKS6_@Base 2.3.0~svn544
 _ZN9__gnu_cxx13new_allocatorISt4pairIiN7blocxx812SelectEngine4DataEEEC2ERKS6_@Base 2.3.0~svn544
 _ZN9__gnu_cxx13new_allocatorISt4pairIiN7blocxx812SelectEngine4DataEEED1Ev@Base 2.3.0~svn544
 _ZN9__gnu_cxx13new_allocatorISt4pairIiN7blocxx812SelectEngine4DataEEED2Ev@Base 2.3.0~svn544
 _ZN9__gnu_cxx13new_allocatorISt4pairIiN7blocxx85ArrayINS2_6StringEEEEE10deallocateEPS6_m@Base 2.3.0~svn544
 _ZN9__gnu_cxx13new_allocatorISt4pairIiN7blocxx85ArrayINS2_6StringEEEEE7destroyEPS6_@Base 2.3.0~svn544
 _ZN9__gnu_cxx13new_allocatorISt4pairIiN7blocxx85ArrayINS2_6StringEEEEE8allocateEmPKv@Base 2.3.0~svn544
 _ZN9__gnu_cxx13new_allocatorISt4pairIiN7blocxx85ArrayINS2_6StringEEEEE9constructIIS6_EEEvPS6_DpOT_@Base 2.3.0~svn544
 _ZN9__gnu_cxx13new_allocatorISt4pairIiN7blocxx85ArrayINS2_6StringEEEEEC1ERKS7_@Base 2.3.0~svn544
 _ZN9__gnu_cxx13new_allocatorISt4pairIiN7blocxx85ArrayINS2_6StringEEEEEC1Ev@Base 2.3.0~svn544
 _ZN9__gnu_cxx13new_allocatorISt4pairIiN7blocxx85ArrayINS2_6StringEEEEEC2ERKS7_@Base 2.3.0~svn544
 _ZN9__gnu_cxx13new_allocatorISt4pairIiN7blocxx85ArrayINS2_6StringEEEEEC2Ev@Base 2.3.0~svn544
 _ZN9__gnu_cxx13new_allocatorISt4pairIiN7blocxx85ArrayINS2_6StringEEEEED1Ev@Base 2.3.0~svn544
 _ZN9__gnu_cxx13new_allocatorISt4pairIiN7blocxx85ArrayINS2_6StringEEEEED2Ev@Base 2.3.0~svn544
 _ZN9__gnu_cxx13new_allocatorIbEC1Ev@Base 2.3.0~svn544
 _ZN9__gnu_cxx13new_allocatorIbEC2Ev@Base 2.3.0~svn544
 _ZN9__gnu_cxx13new_allocatorIbED1Ev@Base 2.3.0~svn544
 _ZN9__gnu_cxx13new_allocatorIbED2Ev@Base 2.3.0~svn544
 _ZN9__gnu_cxx13new_allocatorIcE10deallocateEPcm@Base 2.3.0~svn544
 _ZN9__gnu_cxx13new_allocatorIcE7destroyEPc@Base 2.3.0~svn544
 _ZN9__gnu_cxx13new_allocatorIcE8allocateEmPKv@Base 2.3.0~svn544
 _ZN9__gnu_cxx13new_allocatorIcE9constructEPcRKc@Base 2.3.0~svn544
 _ZN9__gnu_cxx13new_allocatorIcE9constructIIcEEEvPcDpOT_@Base 2.3.0~svn544
 _ZN9__gnu_cxx13new_allocatorIcEC1ERKS1_@Base 2.3.0~svn544
 _ZN9__gnu_cxx13new_allocatorIcEC1Ev@Base 2.3.0~svn544
 _ZN9__gnu_cxx13new_allocatorIcEC2ERKS1_@Base 2.3.0~svn544
 _ZN9__gnu_cxx13new_allocatorIcEC2Ev@Base 2.3.0~svn544
 _ZN9__gnu_cxx13new_allocatorIcED1Ev@Base 2.3.0~svn544
 _ZN9__gnu_cxx13new_allocatorIcED2Ev@Base 2.3.0~svn544
 _ZN9__gnu_cxx13new_allocatorIhE10deallocateEPhm@Base 2.3.0~svn544
 _ZN9__gnu_cxx13new_allocatorIhE7destroyEPh@Base 2.3.0~svn544
 _ZN9__gnu_cxx13new_allocatorIhE8allocateEmPKv@Base 2.3.0~svn544
 _ZN9__gnu_cxx13new_allocatorIhE9constructIIhEEEvPhDpOT_@Base 2.3.0~svn544
 _ZN9__gnu_cxx13new_allocatorIhEC1ERKS1_@Base 2.3.0~svn544
 _ZN9__gnu_cxx13new_allocatorIhEC1Ev@Base 2.3.0~svn544
 _ZN9__gnu_cxx13new_allocatorIhEC2ERKS1_@Base 2.3.0~svn544
 _ZN9__gnu_cxx13new_allocatorIhEC2Ev@Base 2.3.0~svn544
 _ZN9__gnu_cxx13new_allocatorIhED1Ev@Base 2.3.0~svn544
 _ZN9__gnu_cxx13new_allocatorIhED2Ev@Base 2.3.0~svn544
 _ZN9__gnu_cxx13new_allocatorIiE10deallocateEPim@Base 2.3.0~svn544
 _ZN9__gnu_cxx13new_allocatorIiE7destroyEPi@Base 2.3.0~svn544
 _ZN9__gnu_cxx13new_allocatorIiE8allocateEmPKv@Base 2.3.0~svn544
 _ZN9__gnu_cxx13new_allocatorIiE9constructEPiRKi@Base 2.3.0~svn544
 _ZN9__gnu_cxx13new_allocatorIiE9constructIIiEEEvPiDpOT_@Base 2.3.0~svn544
 _ZN9__gnu_cxx13new_allocatorIiEC1ERKS1_@Base 2.3.0~svn544
 _ZN9__gnu_cxx13new_allocatorIiEC1Ev@Base 2.3.0~svn544
 _ZN9__gnu_cxx13new_allocatorIiEC2ERKS1_@Base 2.3.0~svn544
 _ZN9__gnu_cxx13new_allocatorIiEC2Ev@Base 2.3.0~svn544
 _ZN9__gnu_cxx13new_allocatorIiED1Ev@Base 2.3.0~svn544
 _ZN9__gnu_cxx13new_allocatorIiED2Ev@Base 2.3.0~svn544
 _ZN9__gnu_cxx13new_allocatorImE10deallocateEPmm@Base 2.3.0~svn544
 _ZN9__gnu_cxx13new_allocatorImEC1ERKS1_@Base 2.3.0~svn544
 _ZN9__gnu_cxx13new_allocatorImEC1Ev@Base 2.3.0~svn544
 _ZN9__gnu_cxx13new_allocatorImEC2ERKS1_@Base 2.3.0~svn544
 _ZN9__gnu_cxx13new_allocatorImEC2Ev@Base 2.3.0~svn544
 _ZN9__gnu_cxx13new_allocatorImED1Ev@Base 2.3.0~svn544
 _ZN9__gnu_cxx13new_allocatorImED2Ev@Base 2.3.0~svn544
 _ZN9__gnu_cxx13new_allocatorItE10deallocateEPtm@Base 2.3.0~svn544
 _ZN9__gnu_cxx13new_allocatorItE7destroyEPt@Base 2.3.0~svn544
 _ZN9__gnu_cxx13new_allocatorItE8allocateEmPKv@Base 2.3.0~svn544
 _ZN9__gnu_cxx13new_allocatorItE9constructEPtRKt@Base 2.3.0~svn544
 _ZN9__gnu_cxx13new_allocatorItE9constructIItEEEvPtDpOT_@Base 2.3.0~svn544
 _ZN9__gnu_cxx13new_allocatorItEC1ERKS1_@Base 2.3.0~svn544
 _ZN9__gnu_cxx13new_allocatorItEC1Ev@Base 2.3.0~svn544
 _ZN9__gnu_cxx13new_allocatorItEC2ERKS1_@Base 2.3.0~svn544
 _ZN9__gnu_cxx13new_allocatorItEC2Ev@Base 2.3.0~svn544
 _ZN9__gnu_cxx13new_allocatorItED1Ev@Base 2.3.0~svn544
 _ZN9__gnu_cxx13new_allocatorItED2Ev@Base 2.3.0~svn544
 _ZN9__gnu_cxx13new_allocatorIwEC1ERKS1_@Base 2.3.0~svn544
 _ZN9__gnu_cxx13new_allocatorIwEC1Ev@Base 2.3.0~svn544
 _ZN9__gnu_cxx13new_allocatorIwEC2ERKS1_@Base 2.3.0~svn544
 _ZN9__gnu_cxx13new_allocatorIwEC2Ev@Base 2.3.0~svn544
 _ZN9__gnu_cxx13new_allocatorIwED1Ev@Base 2.3.0~svn544
 _ZN9__gnu_cxx13new_allocatorIwED2Ev@Base 2.3.0~svn544
 _ZN9__gnu_cxx17__is_null_pointerIKcEEbPT_@Base 2.3.0~svn544
 _ZN9__gnu_cxx17__normal_iteratorIP10regmatch_tNSt9__cxx19986vectorIS1_SaIS1_EEEEC1ERKS2_@Base 2.3.0~svn544
 _ZN9__gnu_cxx17__normal_iteratorIP10regmatch_tNSt9__cxx19986vectorIS1_SaIS1_EEEEC2ERKS2_@Base 2.3.0~svn544
 _ZN9__gnu_cxx17__normal_iteratorIPK10regmatch_tNSt9__cxx19986vectorIS1_SaIS1_EEEEC1ERKS3_@Base 2.3.0~svn544
 _ZN9__gnu_cxx17__normal_iteratorIPK10regmatch_tNSt9__cxx19986vectorIS1_SaIS1_EEEEC1Ev@Base 2.3.0~svn544
 _ZN9__gnu_cxx17__normal_iteratorIPK10regmatch_tNSt9__cxx19986vectorIS1_SaIS1_EEEEC1IPS1_EERKNS0_IT_NS_11__enable_ifIXsrSt10__are_sameISB_SA_E7__valueES7_E6__typeEEE@Base 2.3.0~svn544
 _ZN9__gnu_cxx17__normal_iteratorIPK10regmatch_tNSt9__cxx19986vectorIS1_SaIS1_EEEEC2ERKS3_@Base 2.3.0~svn544
 _ZN9__gnu_cxx17__normal_iteratorIPK10regmatch_tNSt9__cxx19986vectorIS1_SaIS1_EEEEC2Ev@Base 2.3.0~svn544
 _ZN9__gnu_cxx17__normal_iteratorIPK10regmatch_tNSt9__cxx19986vectorIS1_SaIS1_EEEEC2IPS1_EERKNS0_IT_NS_11__enable_ifIXsrSt10__are_sameISB_SA_E7__valueES7_E6__typeEEE@Base 2.3.0~svn544
 _ZN9__gnu_cxx17__normal_iteratorIPK10regmatch_tNSt9__cxx19986vectorIS1_SaIS1_EEEEppEv@Base 2.3.0~svn544
 _ZN9__gnu_cxx17__normal_iteratorIPKN7blocxx818IntrusiveReferenceINS1_11LogAppenderEEENSt9__cxx19986vectorIS4_SaIS4_EEEEC1ERKS6_@Base 2.3.0~svn544
 _ZN9__gnu_cxx17__normal_iteratorIPKN7blocxx818IntrusiveReferenceINS1_11LogAppenderEEENSt9__cxx19986vectorIS4_SaIS4_EEEEC2ERKS6_@Base 2.3.0~svn544
 _ZN9__gnu_cxx17__normal_iteratorIPKN7blocxx818IntrusiveReferenceINS1_11LogAppenderEEENSt9__cxx19986vectorIS4_SaIS4_EEEEppEv@Base 2.3.0~svn544
 _ZN9__gnu_cxx17__normal_iteratorIPKN7blocxx818IntrusiveReferenceINS1_16ParserOptionImplEEENSt9__cxx19986vectorIS4_SaIS4_EEEEC1ERKS6_@Base 2.3.0~svn544
 _ZN9__gnu_cxx17__normal_iteratorIPKN7blocxx818IntrusiveReferenceINS1_16ParserOptionImplEEENSt9__cxx19986vectorIS4_SaIS4_EEEEC1Ev@Base 2.3.0~svn544
 _ZN9__gnu_cxx17__normal_iteratorIPKN7blocxx818IntrusiveReferenceINS1_16ParserOptionImplEEENSt9__cxx19986vectorIS4_SaIS4_EEEEC1IPS4_EERKNS0_IT_NS_11__enable_ifIXsrSt10__are_sameISE_SD_E7__valueESA_E6__typeEEE@Base 2.3.0~svn544
 _ZN9__gnu_cxx17__normal_iteratorIPKN7blocxx818IntrusiveReferenceINS1_16ParserOptionImplEEENSt9__cxx19986vectorIS4_SaIS4_EEEEC2ERKS6_@Base 2.3.0~svn544
 _ZN9__gnu_cxx17__normal_iteratorIPKN7blocxx818IntrusiveReferenceINS1_16ParserOptionImplEEENSt9__cxx19986vectorIS4_SaIS4_EEEEC2Ev@Base 2.3.0~svn544
 _ZN9__gnu_cxx17__normal_iteratorIPKN7blocxx818IntrusiveReferenceINS1_16ParserOptionImplEEENSt9__cxx19986vectorIS4_SaIS4_EEEEC2IPS4_EERKNS0_IT_NS_11__enable_ifIXsrSt10__are_sameISE_SD_E7__valueESA_E6__typeEEE@Base 2.3.0~svn544
 _ZN9__gnu_cxx17__normal_iteratorIPKN7blocxx818IntrusiveReferenceINS1_16ParserOptionImplEEENSt9__cxx19986vectorIS4_SaIS4_EEEEppEv@Base 2.3.0~svn544
 _ZN9__gnu_cxx17__normal_iteratorIPKN7blocxx818IntrusiveReferenceINS1_26LogMessagePatternFormatter9ConverterEEENSt9__cxx19986vectorIS5_SaIS5_EEEEC1ERKS7_@Base 2.3.0~svn544
 _ZN9__gnu_cxx17__normal_iteratorIPKN7blocxx818IntrusiveReferenceINS1_26LogMessagePatternFormatter9ConverterEEENSt9__cxx19986vectorIS5_SaIS5_EEEEC2ERKS7_@Base 2.3.0~svn544
 _ZN9__gnu_cxx17__normal_iteratorIPKN7blocxx818IntrusiveReferenceINS1_26LogMessagePatternFormatter9ConverterEEENSt9__cxx19986vectorIS5_SaIS5_EEEEppEv@Base 2.3.0~svn544
 _ZN9__gnu_cxx17__normal_iteratorIPKN7blocxx818IntrusiveReferenceINS1_6ThreadEEENSt9__cxx19986vectorIS4_SaIS4_EEEEC1ERKS6_@Base 2.3.0~svn544
 _ZN9__gnu_cxx17__normal_iteratorIPKN7blocxx818IntrusiveReferenceINS1_6ThreadEEENSt9__cxx19986vectorIS4_SaIS4_EEEEC1IPS4_EERKNS0_IT_NS_11__enable_ifIXsrSt10__are_sameISE_SD_E7__valueESA_E6__typeEEE@Base 2.3.0~svn544
 _ZN9__gnu_cxx17__normal_iteratorIPKN7blocxx818IntrusiveReferenceINS1_6ThreadEEENSt9__cxx19986vectorIS4_SaIS4_EEEEC2ERKS6_@Base 2.3.0~svn544
 _ZN9__gnu_cxx17__normal_iteratorIPKN7blocxx818IntrusiveReferenceINS1_6ThreadEEENSt9__cxx19986vectorIS4_SaIS4_EEEEC2IPS4_EERKNS0_IT_NS_11__enable_ifIXsrSt10__are_sameISE_SD_E7__valueESA_E6__typeEEE@Base 2.3.0~svn544
 _ZN9__gnu_cxx17__normal_iteratorIPKN7blocxx818IntrusiveReferenceINS1_6ThreadEEENSt9__cxx19986vectorIS4_SaIS4_EEEEppEv@Base 2.3.0~svn544
 _ZN9__gnu_cxx17__normal_iteratorIPKN7blocxx818IntrusiveReferenceINS1_7ProcessEEENSt9__cxx19986vectorIS4_SaIS4_EEEEC1ERKS6_@Base 2.3.0~svn544
 _ZN9__gnu_cxx17__normal_iteratorIPKN7blocxx818IntrusiveReferenceINS1_7ProcessEEENSt9__cxx19986vectorIS4_SaIS4_EEEEC2ERKS6_@Base 2.3.0~svn544
 _ZN9__gnu_cxx17__normal_iteratorIPKN7blocxx818IntrusiveReferenceINS1_7ProcessEEENSt9__cxx19986vectorIS4_SaIS4_EEEEppEv@Base 2.3.0~svn544
 _ZN9__gnu_cxx17__normal_iteratorIPKN7blocxx85ArrayIcEENSt9__cxx19986vectorIS3_SaIS3_EEEEC1ERKS5_@Base 2.3.0~svn544
 _ZN9__gnu_cxx17__normal_iteratorIPKN7blocxx85ArrayIcEENSt9__cxx19986vectorIS3_SaIS3_EEEEC2ERKS5_@Base 2.3.0~svn544
 _ZN9__gnu_cxx17__normal_iteratorIPKN7blocxx85ArrayIcEENSt9__cxx19986vectorIS3_SaIS3_EEEEppEv@Base 2.3.0~svn544
 _ZN9__gnu_cxx17__normal_iteratorIPKN7blocxx86Select12SelectObjectENSt9__cxx19986vectorIS3_SaIS3_EEEEC1ERKS5_@Base 2.3.0~svn544
 _ZN9__gnu_cxx17__normal_iteratorIPKN7blocxx86Select12SelectObjectENSt9__cxx19986vectorIS3_SaIS3_EEEEC2ERKS5_@Base 2.3.0~svn544
 _ZN9__gnu_cxx17__normal_iteratorIPKN7blocxx86Select12SelectObjectENSt9__cxx19986vectorIS3_SaIS3_EEEEppEv@Base 2.3.0~svn544
 _ZN9__gnu_cxx17__normal_iteratorIPKN7blocxx86StringENSt9__cxx19986vectorIS2_SaIS2_EEEEC1ERKS4_@Base 2.3.0~svn544
 _ZN9__gnu_cxx17__normal_iteratorIPKN7blocxx86StringENSt9__cxx19986vectorIS2_SaIS2_EEEEC1Ev@Base 2.3.0~svn544
 _ZN9__gnu_cxx17__normal_iteratorIPKN7blocxx86StringENSt9__cxx19986vectorIS2_SaIS2_EEEEC1IPS2_EERKNS0_IT_NS_11__enable_ifIXsrSt10__are_sameISC_SB_E7__valueES8_E6__typeEEE@Base 2.3.0~svn544
 _ZN9__gnu_cxx17__normal_iteratorIPKN7blocxx86StringENSt9__cxx19986vectorIS2_SaIS2_EEEEC2ERKS4_@Base 2.3.0~svn544
 _ZN9__gnu_cxx17__normal_iteratorIPKN7blocxx86StringENSt9__cxx19986vectorIS2_SaIS2_EEEEC2Ev@Base 2.3.0~svn544
 _ZN9__gnu_cxx17__normal_iteratorIPKN7blocxx86StringENSt9__cxx19986vectorIS2_SaIS2_EEEEC2IPS2_EERKNS0_IT_NS_11__enable_ifIXsrSt10__are_sameISC_SB_E7__valueES8_E6__typeEEE@Base 2.3.0~svn544
 _ZN9__gnu_cxx17__normal_iteratorIPKN7blocxx86StringENSt9__cxx19986vectorIS2_SaIS2_EEEEpLERKl@Base 2.3.0~svn544
 _ZN9__gnu_cxx17__normal_iteratorIPKN7blocxx86StringENSt9__cxx19986vectorIS2_SaIS2_EEEEppEv@Base 2.3.0~svn544
 _ZN9__gnu_cxx17__normal_iteratorIPKN7blocxx89PerlRegEx7match_tENSt9__cxx19986vectorIS3_SaIS3_EEEEC1ERKS5_@Base 2.3.0~svn544
 _ZN9__gnu_cxx17__normal_iteratorIPKN7blocxx89PerlRegEx7match_tENSt9__cxx19986vectorIS3_SaIS3_EEEEC1Ev@Base 2.3.0~svn544
 _ZN9__gnu_cxx17__normal_iteratorIPKN7blocxx89PerlRegEx7match_tENSt9__cxx19986vectorIS3_SaIS3_EEEEC1IPS3_EERKNS0_IT_NS_11__enable_ifIXsrSt10__are_sameISD_SC_E7__valueES9_E6__typeEEE@Base 2.3.0~svn544
 _ZN9__gnu_cxx17__normal_iteratorIPKN7blocxx89PerlRegEx7match_tENSt9__cxx19986vectorIS3_SaIS3_EEEEC2ERKS5_@Base 2.3.0~svn544
 _ZN9__gnu_cxx17__normal_iteratorIPKN7blocxx89PerlRegEx7match_tENSt9__cxx19986vectorIS3_SaIS3_EEEEC2Ev@Base 2.3.0~svn544
 _ZN9__gnu_cxx17__normal_iteratorIPKN7blocxx89PerlRegEx7match_tENSt9__cxx19986vectorIS3_SaIS3_EEEEC2IPS3_EERKNS0_IT_NS_11__enable_ifIXsrSt10__are_sameISD_SC_E7__valueES9_E6__typeEEE@Base 2.3.0~svn544
 _ZN9__gnu_cxx17__normal_iteratorIPKN7blocxx89PerlRegEx7match_tENSt9__cxx19986vectorIS3_SaIS3_EEEEppEv@Base 2.3.0~svn544
 _ZN9__gnu_cxx17__normal_iteratorIPKPKcNSt9__cxx19986vectorIS2_SaIS2_EEEEC1ERKS4_@Base 2.3.0~svn544
 _ZN9__gnu_cxx17__normal_iteratorIPKPKcNSt9__cxx19986vectorIS2_SaIS2_EEEEC2ERKS4_@Base 2.3.0~svn544
 _ZN9__gnu_cxx17__normal_iteratorIPKSt4pairIN7blocxx86StringENS2_17EFileStatusReturnEENSt9__cxx19986vectorIS5_SaIS5_EEEEC1ERKS7_@Base 2.3.0~svn544
 _ZN9__gnu_cxx17__normal_iteratorIPKSt4pairIN7blocxx86StringENS2_17EFileStatusReturnEENSt9__cxx19986vectorIS5_SaIS5_EEEEC2ERKS7_@Base 2.3.0~svn544
 _ZN9__gnu_cxx17__normal_iteratorIPKSt4pairIN7blocxx86StringENS2_17EFileStatusReturnEENSt9__cxx19986vectorIS5_SaIS5_EEEEppEv@Base 2.3.0~svn544
 _ZN9__gnu_cxx17__normal_iteratorIPKSt4pairIN7blocxx86StringES3_ENSt9__cxx19986vectorIS4_SaIS4_EEEEC1ERKS6_@Base 2.3.0~svn544
 _ZN9__gnu_cxx17__normal_iteratorIPKSt4pairIN7blocxx86StringES3_ENSt9__cxx19986vectorIS4_SaIS4_EEEEC1Ev@Base 2.3.0~svn544
 _ZN9__gnu_cxx17__normal_iteratorIPKSt4pairIN7blocxx86StringES3_ENSt9__cxx19986vectorIS4_SaIS4_EEEEC2ERKS6_@Base 2.3.0~svn544
 _ZN9__gnu_cxx17__normal_iteratorIPKSt4pairIN7blocxx86StringES3_ENSt9__cxx19986vectorIS4_SaIS4_EEEEC2Ev@Base 2.3.0~svn544
 _ZN9__gnu_cxx17__normal_iteratorIPKSt4pairIN7blocxx86StringES3_ENSt9__cxx19986vectorIS4_SaIS4_EEEEpLERKl@Base 2.3.0~svn544
 _ZN9__gnu_cxx17__normal_iteratorIPKSt4pairIN7blocxx86StringES3_ENSt9__cxx19986vectorIS4_SaIS4_EEEEppEv@Base 2.3.0~svn544
 _ZN9__gnu_cxx17__normal_iteratorIPKSt4pairIiN7blocxx812SelectEngine4DataEENSt9__cxx19986vectorIS5_SaIS5_EEEEC1ERKS7_@Base 2.3.0~svn544
 _ZN9__gnu_cxx17__normal_iteratorIPKSt4pairIiN7blocxx812SelectEngine4DataEENSt9__cxx19986vectorIS5_SaIS5_EEEEC1Ev@Base 2.3.0~svn544
 _ZN9__gnu_cxx17__normal_iteratorIPKSt4pairIiN7blocxx812SelectEngine4DataEENSt9__cxx19986vectorIS5_SaIS5_EEEEC1IPS5_EERKNS0_IT_NS_11__enable_ifIXsrSt10__are_sameISF_SE_E7__valueESB_E6__typeEEE@Base 2.3.0~svn544
 _ZN9__gnu_cxx17__normal_iteratorIPKSt4pairIiN7blocxx812SelectEngine4DataEENSt9__cxx19986vectorIS5_SaIS5_EEEEC2ERKS7_@Base 2.3.0~svn544
 _ZN9__gnu_cxx17__normal_iteratorIPKSt4pairIiN7blocxx812SelectEngine4DataEENSt9__cxx19986vectorIS5_SaIS5_EEEEC2Ev@Base 2.3.0~svn544
 _ZN9__gnu_cxx17__normal_iteratorIPKSt4pairIiN7blocxx812SelectEngine4DataEENSt9__cxx19986vectorIS5_SaIS5_EEEEC2IPS5_EERKNS0_IT_NS_11__enable_ifIXsrSt10__are_sameISF_SE_E7__valueESB_E6__typeEEE@Base 2.3.0~svn544
 _ZN9__gnu_cxx17__normal_iteratorIPKSt4pairIiN7blocxx812SelectEngine4DataEENSt9__cxx19986vectorIS5_SaIS5_EEEEppEv@Base 2.3.0~svn544
 _ZN9__gnu_cxx17__normal_iteratorIPKSt4pairIiN7blocxx85ArrayINS2_6StringEEEENSt9__cxx19986vectorIS6_SaIS6_EEEEC1ERKS8_@Base 2.3.0~svn544
 _ZN9__gnu_cxx17__normal_iteratorIPKSt4pairIiN7blocxx85ArrayINS2_6StringEEEENSt9__cxx19986vectorIS6_SaIS6_EEEEC1Ev@Base 2.3.0~svn544
 _ZN9__gnu_cxx17__normal_iteratorIPKSt4pairIiN7blocxx85ArrayINS2_6StringEEEENSt9__cxx19986vectorIS6_SaIS6_EEEEC1IPS6_EERKNS0_IT_NS_11__enable_ifIXsrSt10__are_sameISG_SF_E7__valueESC_E6__typeEEE@Base 2.3.0~svn544
 _ZN9__gnu_cxx17__normal_iteratorIPKSt4pairIiN7blocxx85ArrayINS2_6StringEEEENSt9__cxx19986vectorIS6_SaIS6_EEEEC2ERKS8_@Base 2.3.0~svn544
 _ZN9__gnu_cxx17__normal_iteratorIPKSt4pairIiN7blocxx85ArrayINS2_6StringEEEENSt9__cxx19986vectorIS6_SaIS6_EEEEC2Ev@Base 2.3.0~svn544
 _ZN9__gnu_cxx17__normal_iteratorIPKSt4pairIiN7blocxx85ArrayINS2_6StringEEEENSt9__cxx19986vectorIS6_SaIS6_EEEEC2IPS6_EERKNS0_IT_NS_11__enable_ifIXsrSt10__are_sameISG_SF_E7__valueESC_E6__typeEEE@Base 2.3.0~svn544
 _ZN9__gnu_cxx17__normal_iteratorIPKSt4pairIiN7blocxx85ArrayINS2_6StringEEEENSt9__cxx19986vectorIS6_SaIS6_EEEEpLERKl@Base 2.3.0~svn544
 _ZN9__gnu_cxx17__normal_iteratorIPKSt4pairIiN7blocxx85ArrayINS2_6StringEEEENSt9__cxx19986vectorIS6_SaIS6_EEEEppEv@Base 2.3.0~svn544
 _ZN9__gnu_cxx17__normal_iteratorIPKcNSt9__cxx19986vectorIcSaIcEEEEC1ERKS2_@Base 2.3.0~svn544
 _ZN9__gnu_cxx17__normal_iteratorIPKcNSt9__cxx19986vectorIcSaIcEEEEC1IPcEERKNS0_IT_NS_11__enable_ifIXsrSt10__are_sameISA_S9_E7__valueES6_E6__typeEEE@Base 2.3.0~svn544
 _ZN9__gnu_cxx17__normal_iteratorIPKcNSt9__cxx19986vectorIcSaIcEEEEC2ERKS2_@Base 2.3.0~svn544
 _ZN9__gnu_cxx17__normal_iteratorIPKcNSt9__cxx19986vectorIcSaIcEEEEC2IPcEERKNS0_IT_NS_11__enable_ifIXsrSt10__are_sameISA_S9_E7__valueES6_E6__typeEEE@Base 2.3.0~svn544
 _ZN9__gnu_cxx17__normal_iteratorIPKhNSt9__cxx19986vectorIhSaIhEEEEC1ERKS2_@Base 2.3.0~svn544
 _ZN9__gnu_cxx17__normal_iteratorIPKhNSt9__cxx19986vectorIhSaIhEEEEC1IPhEERKNS0_IT_NS_11__enable_ifIXsrSt10__are_sameISA_S9_E7__valueES6_E6__typeEEE@Base 2.3.0~svn544
 _ZN9__gnu_cxx17__normal_iteratorIPKhNSt9__cxx19986vectorIhSaIhEEEEC2ERKS2_@Base 2.3.0~svn544
 _ZN9__gnu_cxx17__normal_iteratorIPKhNSt9__cxx19986vectorIhSaIhEEEEC2IPhEERKNS0_IT_NS_11__enable_ifIXsrSt10__are_sameISA_S9_E7__valueES6_E6__typeEEE@Base 2.3.0~svn544
 _ZN9__gnu_cxx17__normal_iteratorIPKiNSt9__cxx19986vectorIiSaIiEEEEC1ERKS2_@Base 2.3.0~svn544
 _ZN9__gnu_cxx17__normal_iteratorIPKiNSt9__cxx19986vectorIiSaIiEEEEC1IPiEERKNS0_IT_NS_11__enable_ifIXsrSt10__are_sameISA_S9_E7__valueES6_E6__typeEEE@Base 2.3.0~svn544
 _ZN9__gnu_cxx17__normal_iteratorIPKiNSt9__cxx19986vectorIiSaIiEEEEC2ERKS2_@Base 2.3.0~svn544
 _ZN9__gnu_cxx17__normal_iteratorIPKiNSt9__cxx19986vectorIiSaIiEEEEC2IPiEERKNS0_IT_NS_11__enable_ifIXsrSt10__are_sameISA_S9_E7__valueES6_E6__typeEEE@Base 2.3.0~svn544
 _ZN9__gnu_cxx17__normal_iteratorIPKtNSt9__cxx19986vectorItSaItEEEEC1ERKS2_@Base 2.3.0~svn544
 _ZN9__gnu_cxx17__normal_iteratorIPKtNSt9__cxx19986vectorItSaItEEEEC2ERKS2_@Base 2.3.0~svn544
 _ZN9__gnu_cxx17__normal_iteratorIPN7blocxx818IntrusiveReferenceINS1_11LogAppenderEEENSt9__cxx19986vectorIS4_SaIS4_EEEEC1ERKS5_@Base 2.3.0~svn544
 _ZN9__gnu_cxx17__normal_iteratorIPN7blocxx818IntrusiveReferenceINS1_11LogAppenderEEENSt9__cxx19986vectorIS4_SaIS4_EEEEC2ERKS5_@Base 2.3.0~svn544
 _ZN9__gnu_cxx17__normal_iteratorIPN7blocxx818IntrusiveReferenceINS1_16ParserOptionImplEEENSt9__cxx19986vectorIS4_SaIS4_EEEEC1ERKS5_@Base 2.3.0~svn544
 _ZN9__gnu_cxx17__normal_iteratorIPN7blocxx818IntrusiveReferenceINS1_16ParserOptionImplEEENSt9__cxx19986vectorIS4_SaIS4_EEEEC1Ev@Base 2.3.0~svn544
 _ZN9__gnu_cxx17__normal_iteratorIPN7blocxx818IntrusiveReferenceINS1_16ParserOptionImplEEENSt9__cxx19986vectorIS4_SaIS4_EEEEC2ERKS5_@Base 2.3.0~svn544
 _ZN9__gnu_cxx17__normal_iteratorIPN7blocxx818IntrusiveReferenceINS1_16ParserOptionImplEEENSt9__cxx19986vectorIS4_SaIS4_EEEEC2Ev@Base 2.3.0~svn544
 _ZN9__gnu_cxx17__normal_iteratorIPN7blocxx818IntrusiveReferenceINS1_16ParserOptionImplEEENSt9__cxx19986vectorIS4_SaIS4_EEEEppEv@Base 2.3.0~svn544
 _ZN9__gnu_cxx17__normal_iteratorIPN7blocxx818IntrusiveReferenceINS1_26LogMessagePatternFormatter9ConverterEEENSt9__cxx19986vectorIS5_SaIS5_EEEEC1ERKS6_@Base 2.3.0~svn544
 _ZN9__gnu_cxx17__normal_iteratorIPN7blocxx818IntrusiveReferenceINS1_26LogMessagePatternFormatter9ConverterEEENSt9__cxx19986vectorIS5_SaIS5_EEEEC2ERKS6_@Base 2.3.0~svn544
 _ZN9__gnu_cxx17__normal_iteratorIPN7blocxx818IntrusiveReferenceINS1_6ThreadEEENSt9__cxx19986vectorIS4_SaIS4_EEEEC1ERKS5_@Base 2.3.0~svn544
 _ZN9__gnu_cxx17__normal_iteratorIPN7blocxx818IntrusiveReferenceINS1_6ThreadEEENSt9__cxx19986vectorIS4_SaIS4_EEEEC1Ev@Base 2.3.0~svn544
 _ZN9__gnu_cxx17__normal_iteratorIPN7blocxx818IntrusiveReferenceINS1_6ThreadEEENSt9__cxx19986vectorIS4_SaIS4_EEEEC2ERKS5_@Base 2.3.0~svn544
 _ZN9__gnu_cxx17__normal_iteratorIPN7blocxx818IntrusiveReferenceINS1_6ThreadEEENSt9__cxx19986vectorIS4_SaIS4_EEEEC2Ev@Base 2.3.0~svn544
 _ZN9__gnu_cxx17__normal_iteratorIPN7blocxx818IntrusiveReferenceINS1_6ThreadEEENSt9__cxx19986vectorIS4_SaIS4_EEEEmmEv@Base 2.3.0~svn544
 _ZN9__gnu_cxx17__normal_iteratorIPN7blocxx818IntrusiveReferenceINS1_6ThreadEEENSt9__cxx19986vectorIS4_SaIS4_EEEEpLERKl@Base 2.3.0~svn544
 _ZN9__gnu_cxx17__normal_iteratorIPN7blocxx818IntrusiveReferenceINS1_7ProcessEEENSt9__cxx19986vectorIS4_SaIS4_EEEEC1ERKS5_@Base 2.3.0~svn544
 _ZN9__gnu_cxx17__normal_iteratorIPN7blocxx818IntrusiveReferenceINS1_7ProcessEEENSt9__cxx19986vectorIS4_SaIS4_EEEEC2ERKS5_@Base 2.3.0~svn544
 _ZN9__gnu_cxx17__normal_iteratorIPN7blocxx86Select12SelectObjectENSt9__cxx19986vectorIS3_SaIS3_EEEEC1ERKS4_@Base 2.3.0~svn544
 _ZN9__gnu_cxx17__normal_iteratorIPN7blocxx86Select12SelectObjectENSt9__cxx19986vectorIS3_SaIS3_EEEEC2ERKS4_@Base 2.3.0~svn544
 _ZN9__gnu_cxx17__normal_iteratorIPN7blocxx86StringENSt9__cxx19986vectorIS2_SaIS2_EEEEC1ERKS3_@Base 2.3.0~svn544
 _ZN9__gnu_cxx17__normal_iteratorIPN7blocxx86StringENSt9__cxx19986vectorIS2_SaIS2_EEEEC1Ev@Base 2.3.0~svn544
 _ZN9__gnu_cxx17__normal_iteratorIPN7blocxx86StringENSt9__cxx19986vectorIS2_SaIS2_EEEEC2ERKS3_@Base 2.3.0~svn544
 _ZN9__gnu_cxx17__normal_iteratorIPN7blocxx86StringENSt9__cxx19986vectorIS2_SaIS2_EEEEC2Ev@Base 2.3.0~svn544
 _ZN9__gnu_cxx17__normal_iteratorIPN7blocxx86StringENSt9__cxx19986vectorIS2_SaIS2_EEEEmmEv@Base 2.3.0~svn544
 _ZN9__gnu_cxx17__normal_iteratorIPN7blocxx86StringENSt9__cxx19986vectorIS2_SaIS2_EEEEpLERKl@Base 2.3.0~svn544
 _ZN9__gnu_cxx17__normal_iteratorIPN7blocxx86StringENSt9__cxx19986vectorIS2_SaIS2_EEEEppEv@Base 2.3.0~svn544
 _ZN9__gnu_cxx17__normal_iteratorIPN7blocxx89PerlRegEx7match_tENSt9__cxx19986vectorIS3_SaIS3_EEEEC1ERKS4_@Base 2.3.0~svn544
 _ZN9__gnu_cxx17__normal_iteratorIPN7blocxx89PerlRegEx7match_tENSt9__cxx19986vectorIS3_SaIS3_EEEEC2ERKS4_@Base 2.3.0~svn544
 _ZN9__gnu_cxx17__normal_iteratorIPPKcNSt9__cxx19986vectorIS2_SaIS2_EEEEC1ERKS3_@Base 2.3.0~svn544
 _ZN9__gnu_cxx17__normal_iteratorIPPKcNSt9__cxx19986vectorIS2_SaIS2_EEEEC2ERKS3_@Base 2.3.0~svn544
 _ZN9__gnu_cxx17__normal_iteratorIPSt4pairIN7blocxx86StringENS2_17EFileStatusReturnEENSt9__cxx19986vectorIS5_SaIS5_EEEEC1ERKS6_@Base 2.3.0~svn544
 _ZN9__gnu_cxx17__normal_iteratorIPSt4pairIN7blocxx86StringENS2_17EFileStatusReturnEENSt9__cxx19986vectorIS5_SaIS5_EEEEC2ERKS6_@Base 2.3.0~svn544
 _ZN9__gnu_cxx17__normal_iteratorIPSt4pairIiN7blocxx812SelectEngine4DataEENSt9__cxx19986vectorIS5_SaIS5_EEEEC1ERKS6_@Base 2.3.0~svn544
 _ZN9__gnu_cxx17__normal_iteratorIPSt4pairIiN7blocxx812SelectEngine4DataEENSt9__cxx19986vectorIS5_SaIS5_EEEEC1Ev@Base 2.3.0~svn544
 _ZN9__gnu_cxx17__normal_iteratorIPSt4pairIiN7blocxx812SelectEngine4DataEENSt9__cxx19986vectorIS5_SaIS5_EEEEC2ERKS6_@Base 2.3.0~svn544
 _ZN9__gnu_cxx17__normal_iteratorIPSt4pairIiN7blocxx812SelectEngine4DataEENSt9__cxx19986vectorIS5_SaIS5_EEEEC2Ev@Base 2.3.0~svn544
 _ZN9__gnu_cxx17__normal_iteratorIPSt4pairIiN7blocxx812SelectEngine4DataEENSt9__cxx19986vectorIS5_SaIS5_EEEEpLERKl@Base 2.3.0~svn544
 _ZN9__gnu_cxx17__normal_iteratorIPSt4pairIiN7blocxx812SelectEngine4DataEENSt9__cxx19986vectorIS5_SaIS5_EEEEppEv@Base 2.3.0~svn544
 _ZN9__gnu_cxx17__normal_iteratorIPSt4pairIiN7blocxx85ArrayINS2_6StringEEEENSt9__cxx19986vectorIS6_SaIS6_EEEEC1ERKS7_@Base 2.3.0~svn544
 _ZN9__gnu_cxx17__normal_iteratorIPSt4pairIiN7blocxx85ArrayINS2_6StringEEEENSt9__cxx19986vectorIS6_SaIS6_EEEEC1Ev@Base 2.3.0~svn544
 _ZN9__gnu_cxx17__normal_iteratorIPSt4pairIiN7blocxx85ArrayINS2_6StringEEEENSt9__cxx19986vectorIS6_SaIS6_EEEEC2ERKS7_@Base 2.3.0~svn544
 _ZN9__gnu_cxx17__normal_iteratorIPSt4pairIiN7blocxx85ArrayINS2_6StringEEEENSt9__cxx19986vectorIS6_SaIS6_EEEEC2Ev@Base 2.3.0~svn544
 _ZN9__gnu_cxx17__normal_iteratorIPSt4pairIiN7blocxx85ArrayINS2_6StringEEEENSt9__cxx19986vectorIS6_SaIS6_EEEEpLERKl@Base 2.3.0~svn544
 _ZN9__gnu_cxx17__normal_iteratorIPSt4pairIiN7blocxx85ArrayINS2_6StringEEEENSt9__cxx19986vectorIS6_SaIS6_EEEEppEv@Base 2.3.0~svn544
 _ZN9__gnu_cxx17__normal_iteratorIPcNSt9__cxx19986vectorIcSaIcEEEEC1ERKS1_@Base 2.3.0~svn544
 _ZN9__gnu_cxx17__normal_iteratorIPcNSt9__cxx19986vectorIcSaIcEEEEC1Ev@Base 2.3.0~svn544
 _ZN9__gnu_cxx17__normal_iteratorIPcNSt9__cxx19986vectorIcSaIcEEEEC2ERKS1_@Base 2.3.0~svn544
 _ZN9__gnu_cxx17__normal_iteratorIPcNSt9__cxx19986vectorIcSaIcEEEEC2Ev@Base 2.3.0~svn544
 _ZN9__gnu_cxx17__normal_iteratorIPcNSt9__cxx19986vectorIcSaIcEEEEmmEv@Base 2.3.0~svn544
 _ZN9__gnu_cxx17__normal_iteratorIPcNSt9__cxx19986vectorIcSaIcEEEEpLERKl@Base 2.3.0~svn544
 _ZN9__gnu_cxx17__normal_iteratorIPcNSt9__cxx19986vectorIcSaIcEEEEppEv@Base 2.3.0~svn544
 _ZN9__gnu_cxx17__normal_iteratorIPcSsEC1ERKS1_@Base 2.3.0~svn544
 _ZN9__gnu_cxx17__normal_iteratorIPcSsEC2ERKS1_@Base 2.3.0~svn544
 _ZN9__gnu_cxx17__normal_iteratorIPcSsEppEv@Base 2.3.0~svn544
 _ZN9__gnu_cxx17__normal_iteratorIPhNSt9__cxx19986vectorIhSaIhEEEEC1ERKS1_@Base 2.3.0~svn544
 _ZN9__gnu_cxx17__normal_iteratorIPhNSt9__cxx19986vectorIhSaIhEEEEC2ERKS1_@Base 2.3.0~svn544
 _ZN9__gnu_cxx17__normal_iteratorIPiNSt9__cxx19986vectorIiSaIiEEEEC1ERKS1_@Base 2.3.0~svn544
 _ZN9__gnu_cxx17__normal_iteratorIPiNSt9__cxx19986vectorIiSaIiEEEEC2ERKS1_@Base 2.3.0~svn544
 _ZN9__gnu_cxx17__normal_iteratorIPtNSt9__cxx19986vectorItSaItEEEEC1ERKS1_@Base 2.3.0~svn544
 _ZN9__gnu_cxx17__normal_iteratorIPtNSt9__cxx19986vectorItSaItEEEEC2ERKS1_@Base 2.3.0~svn544
 _ZN9__gnu_cxx24__concurrence_lock_errorC1Ev@Base 2.3.0~svn544
 _ZN9__gnu_cxx24__concurrence_lock_errorC2Ev@Base 2.3.0~svn544
 _ZN9__gnu_cxx24__concurrence_lock_errorD0Ev@Base 2.3.0~svn544
 _ZN9__gnu_cxx24__concurrence_lock_errorD1Ev@Base 2.3.0~svn544
 _ZN9__gnu_cxx24__concurrence_lock_errorD2Ev@Base 2.3.0~svn544
 _ZN9__gnu_cxx26__concurrence_unlock_errorC1Ev@Base 2.3.0~svn544
 _ZN9__gnu_cxx26__concurrence_unlock_errorC2Ev@Base 2.3.0~svn544
 _ZN9__gnu_cxx26__concurrence_unlock_errorD0Ev@Base 2.3.0~svn544
 _ZN9__gnu_cxx26__concurrence_unlock_errorD1Ev@Base 2.3.0~svn544
 _ZN9__gnu_cxx26__concurrence_unlock_errorD2Ev@Base 2.3.0~svn544
 _ZN9__gnu_cxx30__throw_concurrence_lock_errorEv@Base 2.3.0~svn544
 _ZN9__gnu_cxx32__throw_concurrence_unlock_errorEv@Base 2.3.0~svn544
 _ZN9__gnu_cxx7__mutex4lockEv@Base 2.3.0~svn544
 _ZN9__gnu_cxx7__mutex6unlockEv@Base 2.3.0~svn544
 _ZN9__gnu_cxxeqIP10regmatch_tPKS1_NSt9__cxx19986vectorIS1_SaIS1_EEEEEbRKNS_17__normal_iteratorIT_T1_EERKNS9_IT0_SB_EE@Base 2.3.0~svn544
 _ZN9__gnu_cxxeqIPK10regmatch_tNSt9__cxx19986vectorIS1_SaIS1_EEEEEbRKNS_17__normal_iteratorIT_T0_EESD_@Base 2.3.0~svn544
 _ZN9__gnu_cxxeqIPKN7blocxx818IntrusiveReferenceINS1_16ParserOptionImplEEENSt9__cxx19986vectorIS4_SaIS4_EEEEEbRKNS_17__normal_iteratorIT_T0_EESG_@Base 2.3.0~svn544
 _ZN9__gnu_cxxeqIPKN7blocxx818IntrusiveReferenceINS1_16ParserOptionImplEEEPS4_NSt9__cxx19986vectorIS4_SaIS4_EEEEEbRKNS_17__normal_iteratorIT_T1_EERKNSC_IT0_SE_EE@Base 2.3.0~svn544
 _ZN9__gnu_cxxeqIPKN7blocxx818IntrusiveReferenceINS1_26LogMessagePatternFormatter9ConverterEEENSt9__cxx19986vectorIS5_SaIS5_EEEEEbRKNS_17__normal_iteratorIT_T0_EESH_@Base 2.3.0~svn544
 _ZN9__gnu_cxxeqIPKN7blocxx818IntrusiveReferenceINS1_6ThreadEEENSt9__cxx19986vectorIS4_SaIS4_EEEEEbRKNS_17__normal_iteratorIT_T0_EESG_@Base 2.3.0~svn544
 _ZN9__gnu_cxxeqIPKN7blocxx86Select12SelectObjectENSt9__cxx19986vectorIS3_SaIS3_EEEEEbRKNS_17__normal_iteratorIT_T0_EESF_@Base 2.3.0~svn544
 _ZN9__gnu_cxxeqIPKN7blocxx86StringENSt9__cxx19986vectorIS2_SaIS2_EEEEEbRKNS_17__normal_iteratorIT_T0_EESE_@Base 2.3.0~svn544
 _ZN9__gnu_cxxeqIPKN7blocxx89PerlRegEx7match_tENSt9__cxx19986vectorIS3_SaIS3_EEEEEbRKNS_17__normal_iteratorIT_T0_EESF_@Base 2.3.0~svn544
 _ZN9__gnu_cxxeqIPKSt4pairIN7blocxx86StringENS2_17EFileStatusReturnEENSt9__cxx19986vectorIS5_SaIS5_EEEEEbRKNS_17__normal_iteratorIT_T0_EESH_@Base 2.3.0~svn544
 _ZN9__gnu_cxxeqIPKSt4pairIN7blocxx86StringES3_ENSt9__cxx19986vectorIS4_SaIS4_EEEEEbRKNS_17__normal_iteratorIT_T0_EESG_@Base 2.3.0~svn544
 _ZN9__gnu_cxxeqIPKSt4pairIiN7blocxx812SelectEngine4DataEENSt9__cxx19986vectorIS5_SaIS5_EEEEEbRKNS_17__normal_iteratorIT_T0_EESH_@Base 2.3.0~svn544
 _ZN9__gnu_cxxeqIPKSt4pairIiN7blocxx85ArrayINS2_6StringEEEENSt9__cxx19986vectorIS6_SaIS6_EEEEEbRKNS_17__normal_iteratorIT_T0_EESI_@Base 2.3.0~svn544
 _ZN9__gnu_cxxeqIPKcNSt9__cxx19986vectorIcSaIcEEEEEbRKNS_17__normal_iteratorIT_T0_EESC_@Base 2.3.0~svn544
 _ZN9__gnu_cxxeqIPKtNSt9__cxx19986vectorItSaItEEEEEbRKNS_17__normal_iteratorIT_T0_EESC_@Base 2.3.0~svn544
 _ZN9__gnu_cxxeqIPN7blocxx818IntrusiveReferenceINS1_16ParserOptionImplEEENSt9__cxx19986vectorIS4_SaIS4_EEEEEbRKNS_17__normal_iteratorIT_T0_EESF_@Base 2.3.0~svn544
 _ZN9__gnu_cxxeqIPN7blocxx818IntrusiveReferenceINS1_16ParserOptionImplEEEPKS4_NSt9__cxx19986vectorIS4_SaIS4_EEEEEbRKNS_17__normal_iteratorIT_T1_EERKNSC_IT0_SE_EE@Base 2.3.0~svn544
 _ZN9__gnu_cxxeqIPN7blocxx818IntrusiveReferenceINS1_6ThreadEEENSt9__cxx19986vectorIS4_SaIS4_EEEEEbRKNS_17__normal_iteratorIT_T0_EESF_@Base 2.3.0~svn544
 _ZN9__gnu_cxxeqIPN7blocxx818IntrusiveReferenceINS1_6ThreadEEEPKS4_NSt9__cxx19986vectorIS4_SaIS4_EEEEEbRKNS_17__normal_iteratorIT_T1_EERKNSC_IT0_SE_EE@Base 2.3.0~svn544
 _ZN9__gnu_cxxeqIPN7blocxx86StringENSt9__cxx19986vectorIS2_SaIS2_EEEEEbRKNS_17__normal_iteratorIT_T0_EESD_@Base 2.3.0~svn544
 _ZN9__gnu_cxxeqIPN7blocxx86StringEPKS2_NSt9__cxx19986vectorIS2_SaIS2_EEEEEbRKNS_17__normal_iteratorIT_T1_EERKNSA_IT0_SC_EE@Base 2.3.0~svn544
 _ZN9__gnu_cxxeqIPN7blocxx89PerlRegEx7match_tEPKS3_NSt9__cxx19986vectorIS3_SaIS3_EEEEEbRKNS_17__normal_iteratorIT_T1_EERKNSB_IT0_SD_EE@Base 2.3.0~svn544
 _ZN9__gnu_cxxeqIPSt4pairIiN7blocxx812SelectEngine4DataEENSt9__cxx19986vectorIS5_SaIS5_EEEEEbRKNS_17__normal_iteratorIT_T0_EESG_@Base 2.3.0~svn544
 _ZN9__gnu_cxxeqIPSt4pairIiN7blocxx812SelectEngine4DataEEPKS5_NSt9__cxx19986vectorIS5_SaIS5_EEEEEbRKNS_17__normal_iteratorIT_T1_EERKNSD_IT0_SF_EE@Base 2.3.0~svn544
 _ZN9__gnu_cxxeqIPSt4pairIiN7blocxx85ArrayINS2_6StringEEEENSt9__cxx19986vectorIS6_SaIS6_EEEEEbRKNS_17__normal_iteratorIT_T0_EESH_@Base 2.3.0~svn544
 _ZN9__gnu_cxxeqIPSt4pairIiN7blocxx85ArrayINS2_6StringEEEEPKS6_NSt9__cxx19986vectorIS6_SaIS6_EEEEEbRKNS_17__normal_iteratorIT_T1_EERKNSE_IT0_SG_EE@Base 2.3.0~svn544
 _ZN9__gnu_cxxeqIPcNSt9__cxx19986vectorIcSaIcEEEEEbRKNS_17__normal_iteratorIT_T0_EESB_@Base 2.3.0~svn544
 _ZN9__gnu_cxxeqIPcPKcNSt9__cxx19986vectorIcSaIcEEEEEbRKNS_17__normal_iteratorIT_T1_EERKNS8_IT0_SA_EE@Base 2.3.0~svn544
 _ZN9__gnu_cxxeqIPhPKhNSt9__cxx19986vectorIhSaIhEEEEEbRKNS_17__normal_iteratorIT_T1_EERKNS8_IT0_SA_EE@Base 2.3.0~svn544
 _ZN9__gnu_cxxltIPN7blocxx86StringENSt9__cxx19986vectorIS2_SaIS2_EEEEEbRKNS_17__normal_iteratorIT_T0_EESD_@Base 2.3.0~svn544
 _ZN9__gnu_cxxmiIPK10regmatch_tNSt9__cxx19986vectorIS1_SaIS1_EEEEENS_17__normal_iteratorIT_T0_E15difference_typeERKSB_SE_@Base 2.3.0~svn544
 _ZN9__gnu_cxxmiIPKN7blocxx818IntrusiveReferenceINS1_16ParserOptionImplEEENSt9__cxx19986vectorIS4_SaIS4_EEEEENS_17__normal_iteratorIT_T0_E15difference_typeERKSE_SH_@Base 2.3.0~svn544
 _ZN9__gnu_cxxmiIPKN7blocxx818IntrusiveReferenceINS1_6ThreadEEENSt9__cxx19986vectorIS4_SaIS4_EEEEENS_17__normal_iteratorIT_T0_E15difference_typeERKSE_SH_@Base 2.3.0~svn544
 _ZN9__gnu_cxxmiIPKN7blocxx818IntrusiveReferenceINS1_6ThreadEEEPS4_NSt9__cxx19986vectorIS4_SaIS4_EEEEEDTmicldtfp_4baseEcldtfp0_4baseEERKNS_17__normal_iteratorIT_T1_EERKNSD_IT0_SF_EE@Base 2.3.0~svn544
 _ZN9__gnu_cxxmiIPKN7blocxx86StringENSt9__cxx19986vectorIS2_SaIS2_EEEEENS_17__normal_iteratorIT_T0_E15difference_typeERKSC_SF_@Base 2.3.0~svn544
 _ZN9__gnu_cxxmiIPKN7blocxx86StringEPS2_NSt9__cxx19986vectorIS2_SaIS2_EEEEEDTmicldtfp_4baseEcldtfp0_4baseEERKNS_17__normal_iteratorIT_T1_EERKNSB_IT0_SD_EE@Base 2.3.0~svn544
 _ZN9__gnu_cxxmiIPKN7blocxx89PerlRegEx7match_tENSt9__cxx19986vectorIS3_SaIS3_EEEEENS_17__normal_iteratorIT_T0_E15difference_typeERKSD_SG_@Base 2.3.0~svn544
 _ZN9__gnu_cxxmiIPKPKcNSt9__cxx19986vectorIS2_SaIS2_EEEEENS_17__normal_iteratorIT_T0_E15difference_typeERKSC_SF_@Base 2.3.0~svn544
 _ZN9__gnu_cxxmiIPKSt4pairIN7blocxx86StringES3_ENSt9__cxx19986vectorIS4_SaIS4_EEEEENS_17__normal_iteratorIT_T0_E15difference_typeERKSE_SH_@Base 2.3.0~svn544
 _ZN9__gnu_cxxmiIPKSt4pairIiN7blocxx812SelectEngine4DataEENSt9__cxx19986vectorIS5_SaIS5_EEEEENS_17__normal_iteratorIT_T0_E15difference_typeERKSF_SI_@Base 2.3.0~svn544
 _ZN9__gnu_cxxmiIPKSt4pairIiN7blocxx812SelectEngine4DataEEPS5_NSt9__cxx19986vectorIS5_SaIS5_EEEEEDTmicldtfp_4baseEcldtfp0_4baseEERKNS_17__normal_iteratorIT_T1_EERKNSE_IT0_SG_EE@Base 2.3.0~svn544
 _ZN9__gnu_cxxmiIPKSt4pairIiN7blocxx85ArrayINS2_6StringEEEENSt9__cxx19986vectorIS6_SaIS6_EEEEENS_17__normal_iteratorIT_T0_E15difference_typeERKSG_SJ_@Base 2.3.0~svn544
 _ZN9__gnu_cxxmiIPKSt4pairIiN7blocxx85ArrayINS2_6StringEEEEPS6_NSt9__cxx19986vectorIS6_SaIS6_EEEEEDTmicldtfp_4baseEcldtfp0_4baseEERKNS_17__normal_iteratorIT_T1_EERKNSF_IT0_SH_EE@Base 2.3.0~svn544
 _ZN9__gnu_cxxmiIPKcNSt9__cxx19986vectorIcSaIcEEEEENS_17__normal_iteratorIT_T0_E15difference_typeERKSA_SD_@Base 2.3.0~svn544
 _ZN9__gnu_cxxmiIPKcPcNSt9__cxx19986vectorIcSaIcEEEEEDTmicldtfp_4baseEcldtfp0_4baseEERKNS_17__normal_iteratorIT_T1_EERKNS9_IT0_SB_EE@Base 2.3.0~svn544
 _ZN9__gnu_cxxmiIPKhNSt9__cxx19986vectorIhSaIhEEEEENS_17__normal_iteratorIT_T0_E15difference_typeERKSA_SD_@Base 2.3.0~svn544
 _ZN9__gnu_cxxmiIPKiNSt9__cxx19986vectorIiSaIiEEEEENS_17__normal_iteratorIT_T0_E15difference_typeERKSA_SD_@Base 2.3.0~svn544
 _ZN9__gnu_cxxmiIPKtNSt9__cxx19986vectorItSaItEEEEENS_17__normal_iteratorIT_T0_E15difference_typeERKSA_SD_@Base 2.3.0~svn544
 _ZN9__gnu_cxxmiIPN7blocxx818IntrusiveReferenceINS1_11LogAppenderEEENSt9__cxx19986vectorIS4_SaIS4_EEEEENS_17__normal_iteratorIT_T0_E15difference_typeERKSD_SG_@Base 2.3.0~svn544
 _ZN9__gnu_cxxmiIPN7blocxx818IntrusiveReferenceINS1_16ParserOptionImplEEENSt9__cxx19986vectorIS4_SaIS4_EEEEENS_17__normal_iteratorIT_T0_E15difference_typeERKSD_SG_@Base 2.3.0~svn544
 _ZN9__gnu_cxxmiIPN7blocxx818IntrusiveReferenceINS1_26LogMessagePatternFormatter9ConverterEEENSt9__cxx19986vectorIS5_SaIS5_EEEEENS_17__normal_iteratorIT_T0_E15difference_typeERKSE_SH_@Base 2.3.0~svn544
 _ZN9__gnu_cxxmiIPN7blocxx818IntrusiveReferenceINS1_6ThreadEEENSt9__cxx19986vectorIS4_SaIS4_EEEEENS_17__normal_iteratorIT_T0_E15difference_typeERKSD_SG_@Base 2.3.0~svn544
 _ZN9__gnu_cxxmiIPN7blocxx818IntrusiveReferenceINS1_6ThreadEEEPKS4_NSt9__cxx19986vectorIS4_SaIS4_EEEEEDTmicldtfp_4baseEcldtfp0_4baseEERKNS_17__normal_iteratorIT_T1_EERKNSD_IT0_SF_EE@Base 2.3.0~svn544
 _ZN9__gnu_cxxmiIPN7blocxx818IntrusiveReferenceINS1_7ProcessEEENSt9__cxx19986vectorIS4_SaIS4_EEEEENS_17__normal_iteratorIT_T0_E15difference_typeERKSD_SG_@Base 2.3.0~svn544
 _ZN9__gnu_cxxmiIPN7blocxx86Select12SelectObjectENSt9__cxx19986vectorIS3_SaIS3_EEEEENS_17__normal_iteratorIT_T0_E15difference_typeERKSC_SF_@Base 2.3.0~svn544
 _ZN9__gnu_cxxmiIPN7blocxx86StringENSt9__cxx19986vectorIS2_SaIS2_EEEEENS_17__normal_iteratorIT_T0_E15difference_typeERKSB_SE_@Base 2.3.0~svn544
 _ZN9__gnu_cxxmiIPN7blocxx86StringEPKS2_NSt9__cxx19986vectorIS2_SaIS2_EEEEEDTmicldtfp_4baseEcldtfp0_4baseEERKNS_17__normal_iteratorIT_T1_EERKNSB_IT0_SD_EE@Base 2.3.0~svn544
 _ZN9__gnu_cxxmiIPPKcNSt9__cxx19986vectorIS2_SaIS2_EEEEENS_17__normal_iteratorIT_T0_E15difference_typeERKSB_SE_@Base 2.3.0~svn544
 _ZN9__gnu_cxxmiIPSt4pairIN7blocxx86StringENS2_17EFileStatusReturnEENSt9__cxx19986vectorIS5_SaIS5_EEEEENS_17__normal_iteratorIT_T0_E15difference_typeERKSE_SH_@Base 2.3.0~svn544
 _ZN9__gnu_cxxmiIPSt4pairIiN7blocxx812SelectEngine4DataEENSt9__cxx19986vectorIS5_SaIS5_EEEEENS_17__normal_iteratorIT_T0_E15difference_typeERKSE_SH_@Base 2.3.0~svn544
 _ZN9__gnu_cxxmiIPSt4pairIiN7blocxx812SelectEngine4DataEEPKS5_NSt9__cxx19986vectorIS5_SaIS5_EEEEEDTmicldtfp_4baseEcldtfp0_4baseEERKNS_17__normal_iteratorIT_T1_EERKNSE_IT0_SG_EE@Base 2.3.0~svn544
 _ZN9__gnu_cxxmiIPSt4pairIiN7blocxx85ArrayINS2_6StringEEEENSt9__cxx19986vectorIS6_SaIS6_EEEEENS_17__normal_iteratorIT_T0_E15difference_typeERKSF_SI_@Base 2.3.0~svn544
 _ZN9__gnu_cxxmiIPSt4pairIiN7blocxx85ArrayINS2_6StringEEEEPKS6_NSt9__cxx19986vectorIS6_SaIS6_EEEEEDTmicldtfp_4baseEcldtfp0_4baseEERKNS_17__normal_iteratorIT_T1_EERKNSF_IT0_SH_EE@Base 2.3.0~svn544
 _ZN9__gnu_cxxmiIPcNSt9__cxx19986vectorIcSaIcEEEEENS_17__normal_iteratorIT_T0_E15difference_typeERKS9_SC_@Base 2.3.0~svn544
 _ZN9__gnu_cxxmiIPcPKcNSt9__cxx19986vectorIcSaIcEEEEEDTmicldtfp_4baseEcldtfp0_4baseEERKNS_17__normal_iteratorIT_T1_EERKNS9_IT0_SB_EE@Base 2.3.0~svn544
 _ZN9__gnu_cxxmiIPcSsEENS_17__normal_iteratorIT_T0_E15difference_typeERKS5_S8_@Base 2.3.0~svn544
 _ZN9__gnu_cxxmiIPhNSt9__cxx19986vectorIhSaIhEEEEENS_17__normal_iteratorIT_T0_E15difference_typeERKS9_SC_@Base 2.3.0~svn544
 _ZN9__gnu_cxxmiIPiNSt9__cxx19986vectorIiSaIiEEEEENS_17__normal_iteratorIT_T0_E15difference_typeERKS9_SC_@Base 2.3.0~svn544
 _ZN9__gnu_cxxmiIPtNSt9__cxx19986vectorItSaItEEEEENS_17__normal_iteratorIT_T0_E15difference_typeERKS9_SC_@Base 2.3.0~svn544
 _ZN9__gnu_cxxneIPK10regmatch_tPS1_NSt9__cxx19986vectorIS1_SaIS1_EEEEEbRKNS_17__normal_iteratorIT_T1_EERKNS9_IT0_SB_EE@Base 2.3.0~svn544
 _ZN9__gnu_cxxneIPKN7blocxx818IntrusiveReferenceINS1_11LogAppenderEEENSt9__cxx19986vectorIS4_SaIS4_EEEEEbRKNS_17__normal_iteratorIT_T0_EESG_@Base 2.3.0~svn544
 _ZN9__gnu_cxxneIPKN7blocxx818IntrusiveReferenceINS1_16ParserOptionImplEEENSt9__cxx19986vectorIS4_SaIS4_EEEEEbRKNS_17__normal_iteratorIT_T0_EESG_@Base 2.3.0~svn544
 _ZN9__gnu_cxxneIPKN7blocxx818IntrusiveReferenceINS1_26LogMessagePatternFormatter9ConverterEEENSt9__cxx19986vectorIS5_SaIS5_EEEEEbRKNS_17__normal_iteratorIT_T0_EESH_@Base 2.3.0~svn544
 _ZN9__gnu_cxxneIPKN7blocxx818IntrusiveReferenceINS1_6ThreadEEENSt9__cxx19986vectorIS4_SaIS4_EEEEEbRKNS_17__normal_iteratorIT_T0_EESG_@Base 2.3.0~svn544
 _ZN9__gnu_cxxneIPKN7blocxx818IntrusiveReferenceINS1_7ProcessEEENSt9__cxx19986vectorIS4_SaIS4_EEEEEbRKNS_17__normal_iteratorIT_T0_EESG_@Base 2.3.0~svn544
 _ZN9__gnu_cxxneIPKN7blocxx85ArrayIcEENSt9__cxx19986vectorIS3_SaIS3_EEEEEbRKNS_17__normal_iteratorIT_T0_EESF_@Base 2.3.0~svn544
 _ZN9__gnu_cxxneIPKN7blocxx86Select12SelectObjectENSt9__cxx19986vectorIS3_SaIS3_EEEEEbRKNS_17__normal_iteratorIT_T0_EESF_@Base 2.3.0~svn544
 _ZN9__gnu_cxxneIPKN7blocxx86StringENSt9__cxx19986vectorIS2_SaIS2_EEEEEbRKNS_17__normal_iteratorIT_T0_EESE_@Base 2.3.0~svn544
 _ZN9__gnu_cxxneIPKN7blocxx86StringEPS2_NSt9__cxx19986vectorIS2_SaIS2_EEEEEbRKNS_17__normal_iteratorIT_T1_EERKNSA_IT0_SC_EE@Base 2.3.0~svn544
 _ZN9__gnu_cxxneIPKN7blocxx89PerlRegEx7match_tEPS3_NSt9__cxx19986vectorIS3_SaIS3_EEEEEbRKNS_17__normal_iteratorIT_T1_EERKNSB_IT0_SD_EE@Base 2.3.0~svn544
 _ZN9__gnu_cxxneIPKSt4pairIN7blocxx86StringENS2_17EFileStatusReturnEENSt9__cxx19986vectorIS5_SaIS5_EEEEEbRKNS_17__normal_iteratorIT_T0_EESH_@Base 2.3.0~svn544
 _ZN9__gnu_cxxneIPKSt4pairIN7blocxx86StringES3_ENSt9__cxx19986vectorIS4_SaIS4_EEEEEbRKNS_17__normal_iteratorIT_T0_EESG_@Base 2.3.0~svn544
 _ZN9__gnu_cxxneIPKSt4pairIiN7blocxx812SelectEngine4DataEENSt9__cxx19986vectorIS5_SaIS5_EEEEEbRKNS_17__normal_iteratorIT_T0_EESH_@Base 2.3.0~svn544
 _ZN9__gnu_cxxneIPKSt4pairIiN7blocxx812SelectEngine4DataEEPS5_NSt9__cxx19986vectorIS5_SaIS5_EEEEEbRKNS_17__normal_iteratorIT_T1_EERKNSD_IT0_SF_EE@Base 2.3.0~svn544
 _ZN9__gnu_cxxneIPKSt4pairIiN7blocxx85ArrayINS2_6StringEEEENSt9__cxx19986vectorIS6_SaIS6_EEEEEbRKNS_17__normal_iteratorIT_T0_EESI_@Base 2.3.0~svn544
 _ZN9__gnu_cxxneIPN7blocxx818IntrusiveReferenceINS1_6ThreadEEENSt9__cxx19986vectorIS4_SaIS4_EEEEEbRKNS_17__normal_iteratorIT_T0_EESF_@Base 2.3.0~svn544
 _ZN9__gnu_cxxneIPN7blocxx86StringENSt9__cxx19986vectorIS2_SaIS2_EEEEEbRKNS_17__normal_iteratorIT_T0_EESD_@Base 2.3.0~svn544
 _ZN9__gnu_cxxneIPSt4pairIiN7blocxx812SelectEngine4DataEENSt9__cxx19986vectorIS5_SaIS5_EEEEEbRKNS_17__normal_iteratorIT_T0_EESG_@Base 2.3.0~svn544
 _ZN9__gnu_cxxneIPSt4pairIiN7blocxx85ArrayINS2_6StringEEEENSt9__cxx19986vectorIS6_SaIS6_EEEEEbRKNS_17__normal_iteratorIT_T0_EESH_@Base 2.3.0~svn544
 _ZN9__gnu_cxxneIPcNSt9__cxx19986vectorIcSaIcEEEEEbRKNS_17__normal_iteratorIT_T0_EESB_@Base 2.3.0~svn544
 _ZN9__gnu_cxxneIPhNSt9__cxx19986vectorIhSaIhEEEEEbRKNS_17__normal_iteratorIT_T0_EESB_@Base 2.3.0~svn544
 _ZNK11__gnu_debug13_Not_equal_toISt23_Rb_tree_const_iteratorISt4pairIKN7blocxx86StringES4_EEEclERKS7_@Base 2.3.0~svn544
 _ZNK11__gnu_debug14_Safe_iteratorIN9__gnu_cxx17__normal_iteratorIP10regmatch_tNSt9__cxx19986vectorIS3_SaIS3_EEEEENSt7__debug6vectorIS3_S7_EEE11_M_constantEv@Base 2.3.0~svn544
 _ZNK11__gnu_debug14_Safe_iteratorIN9__gnu_cxx17__normal_iteratorIP10regmatch_tNSt9__cxx19986vectorIS3_SaIS3_EEEEENSt7__debug6vectorIS3_S7_EEE11_M_is_beginEv@Base 2.3.0~svn544
 _ZNK11__gnu_debug14_Safe_iteratorIN9__gnu_cxx17__normal_iteratorIP10regmatch_tNSt9__cxx19986vectorIS3_SaIS3_EEEEENSt7__debug6vectorIS3_S7_EEE15_M_get_sequenceEv@Base 2.3.0~svn544
 _ZNK11__gnu_debug14_Safe_iteratorIN9__gnu_cxx17__normal_iteratorIP10regmatch_tNSt9__cxx19986vectorIS3_SaIS3_EEEEENSt7__debug6vectorIS3_S7_EEE18_M_is_before_beginEv@Base 2.3.0~svn544
 _ZNK11__gnu_debug14_Safe_iteratorIN9__gnu_cxx17__normal_iteratorIP10regmatch_tNSt9__cxx19986vectorIS3_SaIS3_EEEEENSt7__debug6vectorIS3_S7_EEE4baseEv@Base 2.3.0~svn544
 _ZNK11__gnu_debug14_Safe_iteratorIN9__gnu_cxx17__normal_iteratorIP10regmatch_tNSt9__cxx19986vectorIS3_SaIS3_EEEEENSt7__debug6vectorIS3_S7_EEE9_M_is_endEv@Base 2.3.0~svn544
 _ZNK11__gnu_debug14_Safe_iteratorIN9__gnu_cxx17__normal_iteratorIPK10regmatch_tNSt9__cxx19986vectorIS3_SaIS3_EEEEENSt7__debug6vectorIS3_S8_EEE11_M_constantEv@Base 2.3.0~svn544
 _ZNK11__gnu_debug14_Safe_iteratorIN9__gnu_cxx17__normal_iteratorIPK10regmatch_tNSt9__cxx19986vectorIS3_SaIS3_EEEEENSt7__debug6vectorIS3_S8_EEE11_M_is_beginEv@Base 2.3.0~svn544
 _ZNK11__gnu_debug14_Safe_iteratorIN9__gnu_cxx17__normal_iteratorIPK10regmatch_tNSt9__cxx19986vectorIS3_SaIS3_EEEEENSt7__debug6vectorIS3_S8_EEE15_M_get_sequenceEv@Base 2.3.0~svn544
 _ZNK11__gnu_debug14_Safe_iteratorIN9__gnu_cxx17__normal_iteratorIPK10regmatch_tNSt9__cxx19986vectorIS3_SaIS3_EEEEENSt7__debug6vectorIS3_S8_EEE16_M_incrementableEv@Base 2.3.0~svn544
 _ZNK11__gnu_debug14_Safe_iteratorIN9__gnu_cxx17__normal_iteratorIPK10regmatch_tNSt9__cxx19986vectorIS3_SaIS3_EEEEENSt7__debug6vectorIS3_S8_EEE18_M_dereferenceableEv@Base 2.3.0~svn544
 _ZNK11__gnu_debug14_Safe_iteratorIN9__gnu_cxx17__normal_iteratorIPK10regmatch_tNSt9__cxx19986vectorIS3_SaIS3_EEEEENSt7__debug6vectorIS3_S8_EEE18_M_is_before_beginEv@Base 2.3.0~svn544
 _ZNK11__gnu_debug14_Safe_iteratorIN9__gnu_cxx17__normal_iteratorIPK10regmatch_tNSt9__cxx19986vectorIS3_SaIS3_EEEEENSt7__debug6vectorIS3_S8_EEE4baseEv@Base 2.3.0~svn544
 _ZNK11__gnu_debug14_Safe_iteratorIN9__gnu_cxx17__normal_iteratorIPK10regmatch_tNSt9__cxx19986vectorIS3_SaIS3_EEEEENSt7__debug6vectorIS3_S8_EEE9_M_is_endEv@Base 2.3.0~svn544
 _ZNK11__gnu_debug14_Safe_iteratorIN9__gnu_cxx17__normal_iteratorIPK10regmatch_tNSt9__cxx19986vectorIS3_SaIS3_EEEEENSt7__debug6vectorIS3_S8_EEEptEv@Base 2.3.0~svn544
 _ZNK11__gnu_debug14_Safe_iteratorIN9__gnu_cxx17__normal_iteratorIPKN7blocxx818IntrusiveReferenceINS3_16ParserOptionImplEEENSt9__cxx19986vectorIS6_SaIS6_EEEEENSt7__debug6vectorIS6_SB_EEE11_M_constantEv@Base 2.3.0~svn544
 _ZNK11__gnu_debug14_Safe_iteratorIN9__gnu_cxx17__normal_iteratorIPKN7blocxx818IntrusiveReferenceINS3_16ParserOptionImplEEENSt9__cxx19986vectorIS6_SaIS6_EEEEENSt7__debug6vectorIS6_SB_EEE11_M_is_beginEv@Base 2.3.0~svn544
 _ZNK11__gnu_debug14_Safe_iteratorIN9__gnu_cxx17__normal_iteratorIPKN7blocxx818IntrusiveReferenceINS3_16ParserOptionImplEEENSt9__cxx19986vectorIS6_SaIS6_EEEEENSt7__debug6vectorIS6_SB_EEE14_M_valid_rangeISD_EEbRKNS0_IT_SG_EE@Base 2.3.0~svn544
 _ZNK11__gnu_debug14_Safe_iteratorIN9__gnu_cxx17__normal_iteratorIPKN7blocxx818IntrusiveReferenceINS3_16ParserOptionImplEEENSt9__cxx19986vectorIS6_SaIS6_EEEEENSt7__debug6vectorIS6_SB_EEE15_M_get_sequenceEv@Base 2.3.0~svn544
 _ZNK11__gnu_debug14_Safe_iteratorIN9__gnu_cxx17__normal_iteratorIPKN7blocxx818IntrusiveReferenceINS3_16ParserOptionImplEEENSt9__cxx19986vectorIS6_SaIS6_EEEEENSt7__debug6vectorIS6_SB_EEE16_M_incrementableEv@Base 2.3.0~svn544
 _ZNK11__gnu_debug14_Safe_iteratorIN9__gnu_cxx17__normal_iteratorIPKN7blocxx818IntrusiveReferenceINS3_16ParserOptionImplEEENSt9__cxx19986vectorIS6_SaIS6_EEEEENSt7__debug6vectorIS6_SB_EEE18_M_dereferenceableEv@Base 2.3.0~svn544
 _ZNK11__gnu_debug14_Safe_iteratorIN9__gnu_cxx17__normal_iteratorIPKN7blocxx818IntrusiveReferenceINS3_16ParserOptionImplEEENSt9__cxx19986vectorIS6_SaIS6_EEEEENSt7__debug6vectorIS6_SB_EEE18_M_is_before_beginEv@Base 2.3.0~svn544
 _ZNK11__gnu_debug14_Safe_iteratorIN9__gnu_cxx17__normal_iteratorIPKN7blocxx818IntrusiveReferenceINS3_16ParserOptionImplEEENSt9__cxx19986vectorIS6_SaIS6_EEEEENSt7__debug6vectorIS6_SB_EEE4baseEv@Base 2.3.0~svn544
 _ZNK11__gnu_debug14_Safe_iteratorIN9__gnu_cxx17__normal_iteratorIPKN7blocxx818IntrusiveReferenceINS3_16ParserOptionImplEEENSt9__cxx19986vectorIS6_SaIS6_EEEEENSt7__debug6vectorIS6_SB_EEE9_M_is_endEv@Base 2.3.0~svn544
 _ZNK11__gnu_debug14_Safe_iteratorIN9__gnu_cxx17__normal_iteratorIPKN7blocxx818IntrusiveReferenceINS3_16ParserOptionImplEEENSt9__cxx19986vectorIS6_SaIS6_EEEEENSt7__debug6vectorIS6_SB_EEEdeEv@Base 2.3.0~svn544
 _ZNK11__gnu_debug14_Safe_iteratorIN9__gnu_cxx17__normal_iteratorIPKN7blocxx818IntrusiveReferenceINS3_26LogMessagePatternFormatter9ConverterEEENSt9__cxx19986vectorIS7_SaIS7_EEEEENSt7__debug6vectorIS7_SC_EEE11_M_constantEv@Base 2.3.0~svn544
 _ZNK11__gnu_debug14_Safe_iteratorIN9__gnu_cxx17__normal_iteratorIPKN7blocxx818IntrusiveReferenceINS3_26LogMessagePatternFormatter9ConverterEEENSt9__cxx19986vectorIS7_SaIS7_EEEEENSt7__debug6vectorIS7_SC_EEE11_M_is_beginEv@Base 2.3.0~svn544
 _ZNK11__gnu_debug14_Safe_iteratorIN9__gnu_cxx17__normal_iteratorIPKN7blocxx818IntrusiveReferenceINS3_26LogMessagePatternFormatter9ConverterEEENSt9__cxx19986vectorIS7_SaIS7_EEEEENSt7__debug6vectorIS7_SC_EEE15_M_get_sequenceEv@Base 2.3.0~svn544
 _ZNK11__gnu_debug14_Safe_iteratorIN9__gnu_cxx17__normal_iteratorIPKN7blocxx818IntrusiveReferenceINS3_26LogMessagePatternFormatter9ConverterEEENSt9__cxx19986vectorIS7_SaIS7_EEEEENSt7__debug6vectorIS7_SC_EEE16_M_incrementableEv@Base 2.3.0~svn544
 _ZNK11__gnu_debug14_Safe_iteratorIN9__gnu_cxx17__normal_iteratorIPKN7blocxx818IntrusiveReferenceINS3_26LogMessagePatternFormatter9ConverterEEENSt9__cxx19986vectorIS7_SaIS7_EEEEENSt7__debug6vectorIS7_SC_EEE18_M_dereferenceableEv@Base 2.3.0~svn544
 _ZNK11__gnu_debug14_Safe_iteratorIN9__gnu_cxx17__normal_iteratorIPKN7blocxx818IntrusiveReferenceINS3_26LogMessagePatternFormatter9ConverterEEENSt9__cxx19986vectorIS7_SaIS7_EEEEENSt7__debug6vectorIS7_SC_EEE18_M_is_before_beginEv@Base 2.3.0~svn544
 _ZNK11__gnu_debug14_Safe_iteratorIN9__gnu_cxx17__normal_iteratorIPKN7blocxx818IntrusiveReferenceINS3_26LogMessagePatternFormatter9ConverterEEENSt9__cxx19986vectorIS7_SaIS7_EEEEENSt7__debug6vectorIS7_SC_EEE4baseEv@Base 2.3.0~svn544
 _ZNK11__gnu_debug14_Safe_iteratorIN9__gnu_cxx17__normal_iteratorIPKN7blocxx818IntrusiveReferenceINS3_26LogMessagePatternFormatter9ConverterEEENSt9__cxx19986vectorIS7_SaIS7_EEEEENSt7__debug6vectorIS7_SC_EEE9_M_is_endEv@Base 2.3.0~svn544
 _ZNK11__gnu_debug14_Safe_iteratorIN9__gnu_cxx17__normal_iteratorIPKN7blocxx818IntrusiveReferenceINS3_26LogMessagePatternFormatter9ConverterEEENSt9__cxx19986vectorIS7_SaIS7_EEEEENSt7__debug6vectorIS7_SC_EEEdeEv@Base 2.3.0~svn544
 _ZNK11__gnu_debug14_Safe_iteratorIN9__gnu_cxx17__normal_iteratorIPKN7blocxx818IntrusiveReferenceINS3_6ThreadEEENSt9__cxx19986vectorIS6_SaIS6_EEEEENSt7__debug6vectorIS6_SB_EEE4baseEv@Base 2.3.0~svn544
 _ZNK11__gnu_debug14_Safe_iteratorIN9__gnu_cxx17__normal_iteratorIPKN7blocxx86StringENSt9__cxx19986vectorIS4_SaIS4_EEEEENSt7__debug6vectorIS4_S9_EEE11_M_constantEv@Base 2.3.0~svn544
 _ZNK11__gnu_debug14_Safe_iteratorIN9__gnu_cxx17__normal_iteratorIPKN7blocxx86StringENSt9__cxx19986vectorIS4_SaIS4_EEEEENSt7__debug6vectorIS4_S9_EEE11_M_is_beginEv@Base 2.3.0~svn544
 _ZNK11__gnu_debug14_Safe_iteratorIN9__gnu_cxx17__normal_iteratorIPKN7blocxx86StringENSt9__cxx19986vectorIS4_SaIS4_EEEEENSt7__debug6vectorIS4_S9_EEE14_M_can_advanceERKl@Base 2.3.0~svn544
 _ZNK11__gnu_debug14_Safe_iteratorIN9__gnu_cxx17__normal_iteratorIPKN7blocxx86StringENSt9__cxx19986vectorIS4_SaIS4_EEEEENSt7__debug6vectorIS4_S9_EEE14_M_valid_rangeISB_EEbRKNS0_IT_SE_EE@Base 2.3.0~svn544
 _ZNK11__gnu_debug14_Safe_iteratorIN9__gnu_cxx17__normal_iteratorIPKN7blocxx86StringENSt9__cxx19986vectorIS4_SaIS4_EEEEENSt7__debug6vectorIS4_S9_EEE15_M_get_sequenceEv@Base 2.3.0~svn544
 _ZNK11__gnu_debug14_Safe_iteratorIN9__gnu_cxx17__normal_iteratorIPKN7blocxx86StringENSt9__cxx19986vectorIS4_SaIS4_EEEEENSt7__debug6vectorIS4_S9_EEE16_M_incrementableEv@Base 2.3.0~svn544
 _ZNK11__gnu_debug14_Safe_iteratorIN9__gnu_cxx17__normal_iteratorIPKN7blocxx86StringENSt9__cxx19986vectorIS4_SaIS4_EEEEENSt7__debug6vectorIS4_S9_EEE18_M_dereferenceableEv@Base 2.3.0~svn544
 _ZNK11__gnu_debug14_Safe_iteratorIN9__gnu_cxx17__normal_iteratorIPKN7blocxx86StringENSt9__cxx19986vectorIS4_SaIS4_EEEEENSt7__debug6vectorIS4_S9_EEE18_M_is_before_beginEv@Base 2.3.0~svn544
 _ZNK11__gnu_debug14_Safe_iteratorIN9__gnu_cxx17__normal_iteratorIPKN7blocxx86StringENSt9__cxx19986vectorIS4_SaIS4_EEEEENSt7__debug6vectorIS4_S9_EEE4baseEv@Base 2.3.0~svn544
 _ZNK11__gnu_debug14_Safe_iteratorIN9__gnu_cxx17__normal_iteratorIPKN7blocxx86StringENSt9__cxx19986vectorIS4_SaIS4_EEEEENSt7__debug6vectorIS4_S9_EEE9_M_is_endEv@Base 2.3.0~svn544
 _ZNK11__gnu_debug14_Safe_iteratorIN9__gnu_cxx17__normal_iteratorIPKN7blocxx86StringENSt9__cxx19986vectorIS4_SaIS4_EEEEENSt7__debug6vectorIS4_S9_EEEdeEv@Base 2.3.0~svn544
 _ZNK11__gnu_debug14_Safe_iteratorIN9__gnu_cxx17__normal_iteratorIPKN7blocxx86StringENSt9__cxx19986vectorIS4_SaIS4_EEEEENSt7__debug6vectorIS4_S9_EEEplERKl@Base 2.3.0~svn544
 _ZNK11__gnu_debug14_Safe_iteratorIN9__gnu_cxx17__normal_iteratorIPKN7blocxx86StringENSt9__cxx19986vectorIS4_SaIS4_EEEEENSt7__debug6vectorIS4_S9_EEEptEv@Base 2.3.0~svn544
 _ZNK11__gnu_debug14_Safe_iteratorIN9__gnu_cxx17__normal_iteratorIPKN7blocxx89PerlRegEx7match_tENSt9__cxx19986vectorIS5_SaIS5_EEEEENSt7__debug6vectorIS5_SA_EEE11_M_constantEv@Base 2.3.0~svn544
 _ZNK11__gnu_debug14_Safe_iteratorIN9__gnu_cxx17__normal_iteratorIPKN7blocxx89PerlRegEx7match_tENSt9__cxx19986vectorIS5_SaIS5_EEEEENSt7__debug6vectorIS5_SA_EEE11_M_is_beginEv@Base 2.3.0~svn544
 _ZNK11__gnu_debug14_Safe_iteratorIN9__gnu_cxx17__normal_iteratorIPKN7blocxx89PerlRegEx7match_tENSt9__cxx19986vectorIS5_SaIS5_EEEEENSt7__debug6vectorIS5_SA_EEE15_M_get_sequenceEv@Base 2.3.0~svn544
 _ZNK11__gnu_debug14_Safe_iteratorIN9__gnu_cxx17__normal_iteratorIPKN7blocxx89PerlRegEx7match_tENSt9__cxx19986vectorIS5_SaIS5_EEEEENSt7__debug6vectorIS5_SA_EEE16_M_incrementableEv@Base 2.3.0~svn544
 _ZNK11__gnu_debug14_Safe_iteratorIN9__gnu_cxx17__normal_iteratorIPKN7blocxx89PerlRegEx7match_tENSt9__cxx19986vectorIS5_SaIS5_EEEEENSt7__debug6vectorIS5_SA_EEE18_M_dereferenceableEv@Base 2.3.0~svn544
 _ZNK11__gnu_debug14_Safe_iteratorIN9__gnu_cxx17__normal_iteratorIPKN7blocxx89PerlRegEx7match_tENSt9__cxx19986vectorIS5_SaIS5_EEEEENSt7__debug6vectorIS5_SA_EEE18_M_is_before_beginEv@Base 2.3.0~svn544
 _ZNK11__gnu_debug14_Safe_iteratorIN9__gnu_cxx17__normal_iteratorIPKN7blocxx89PerlRegEx7match_tENSt9__cxx19986vectorIS5_SaIS5_EEEEENSt7__debug6vectorIS5_SA_EEE4baseEv@Base 2.3.0~svn544
 _ZNK11__gnu_debug14_Safe_iteratorIN9__gnu_cxx17__normal_iteratorIPKN7blocxx89PerlRegEx7match_tENSt9__cxx19986vectorIS5_SaIS5_EEEEENSt7__debug6vectorIS5_SA_EEE9_M_is_endEv@Base 2.3.0~svn544
 _ZNK11__gnu_debug14_Safe_iteratorIN9__gnu_cxx17__normal_iteratorIPKN7blocxx89PerlRegEx7match_tENSt9__cxx19986vectorIS5_SaIS5_EEEEENSt7__debug6vectorIS5_SA_EEEptEv@Base 2.3.0~svn544
 _ZNK11__gnu_debug14_Safe_iteratorIN9__gnu_cxx17__normal_iteratorIPKSt4pairIN7blocxx86StringENS4_17EFileStatusReturnEENSt9__cxx19986vectorIS7_SaIS7_EEEEENSt7__debug6vectorIS7_SC_EEE11_M_constantEv@Base 2.3.0~svn544
 _ZNK11__gnu_debug14_Safe_iteratorIN9__gnu_cxx17__normal_iteratorIPKSt4pairIN7blocxx86StringENS4_17EFileStatusReturnEENSt9__cxx19986vectorIS7_SaIS7_EEEEENSt7__debug6vectorIS7_SC_EEE11_M_is_beginEv@Base 2.3.0~svn544
 _ZNK11__gnu_debug14_Safe_iteratorIN9__gnu_cxx17__normal_iteratorIPKSt4pairIN7blocxx86StringENS4_17EFileStatusReturnEENSt9__cxx19986vectorIS7_SaIS7_EEEEENSt7__debug6vectorIS7_SC_EEE15_M_get_sequenceEv@Base 2.3.0~svn544
 _ZNK11__gnu_debug14_Safe_iteratorIN9__gnu_cxx17__normal_iteratorIPKSt4pairIN7blocxx86StringENS4_17EFileStatusReturnEENSt9__cxx19986vectorIS7_SaIS7_EEEEENSt7__debug6vectorIS7_SC_EEE16_M_incrementableEv@Base 2.3.0~svn544
 _ZNK11__gnu_debug14_Safe_iteratorIN9__gnu_cxx17__normal_iteratorIPKSt4pairIN7blocxx86StringENS4_17EFileStatusReturnEENSt9__cxx19986vectorIS7_SaIS7_EEEEENSt7__debug6vectorIS7_SC_EEE18_M_dereferenceableEv@Base 2.3.0~svn544
 _ZNK11__gnu_debug14_Safe_iteratorIN9__gnu_cxx17__normal_iteratorIPKSt4pairIN7blocxx86StringENS4_17EFileStatusReturnEENSt9__cxx19986vectorIS7_SaIS7_EEEEENSt7__debug6vectorIS7_SC_EEE18_M_is_before_beginEv@Base 2.3.0~svn544
 _ZNK11__gnu_debug14_Safe_iteratorIN9__gnu_cxx17__normal_iteratorIPKSt4pairIN7blocxx86StringENS4_17EFileStatusReturnEENSt9__cxx19986vectorIS7_SaIS7_EEEEENSt7__debug6vectorIS7_SC_EEE4baseEv@Base 2.3.0~svn544
 _ZNK11__gnu_debug14_Safe_iteratorIN9__gnu_cxx17__normal_iteratorIPKSt4pairIN7blocxx86StringENS4_17EFileStatusReturnEENSt9__cxx19986vectorIS7_SaIS7_EEEEENSt7__debug6vectorIS7_SC_EEE9_M_is_endEv@Base 2.3.0~svn544
 _ZNK11__gnu_debug14_Safe_iteratorIN9__gnu_cxx17__normal_iteratorIPKSt4pairIN7blocxx86StringENS4_17EFileStatusReturnEENSt9__cxx19986vectorIS7_SaIS7_EEEEENSt7__debug6vectorIS7_SC_EEEptEv@Base 2.3.0~svn544
 _ZNK11__gnu_debug14_Safe_iteratorIN9__gnu_cxx17__normal_iteratorIPKSt4pairIN7blocxx86StringES5_ENSt9__cxx19986vectorIS6_SaIS6_EEEEENSt7__debug6vectorIS6_SB_EEE11_M_constantEv@Base 2.3.0~svn544
 _ZNK11__gnu_debug14_Safe_iteratorIN9__gnu_cxx17__normal_iteratorIPKSt4pairIN7blocxx86StringES5_ENSt9__cxx19986vectorIS6_SaIS6_EEEEENSt7__debug6vectorIS6_SB_EEE11_M_is_beginEv@Base 2.3.0~svn544
 _ZNK11__gnu_debug14_Safe_iteratorIN9__gnu_cxx17__normal_iteratorIPKSt4pairIN7blocxx86StringES5_ENSt9__cxx19986vectorIS6_SaIS6_EEEEENSt7__debug6vectorIS6_SB_EEE14_M_can_advanceERKl@Base 2.3.0~svn544
 _ZNK11__gnu_debug14_Safe_iteratorIN9__gnu_cxx17__normal_iteratorIPKSt4pairIN7blocxx86StringES5_ENSt9__cxx19986vectorIS6_SaIS6_EEEEENSt7__debug6vectorIS6_SB_EEE14_M_valid_rangeISD_EEbRKNS0_IT_SG_EE@Base 2.3.0~svn544
 _ZNK11__gnu_debug14_Safe_iteratorIN9__gnu_cxx17__normal_iteratorIPKSt4pairIN7blocxx86StringES5_ENSt9__cxx19986vectorIS6_SaIS6_EEEEENSt7__debug6vectorIS6_SB_EEE15_M_get_sequenceEv@Base 2.3.0~svn544
 _ZNK11__gnu_debug14_Safe_iteratorIN9__gnu_cxx17__normal_iteratorIPKSt4pairIN7blocxx86StringES5_ENSt9__cxx19986vectorIS6_SaIS6_EEEEENSt7__debug6vectorIS6_SB_EEE16_M_incrementableEv@Base 2.3.0~svn544
 _ZNK11__gnu_debug14_Safe_iteratorIN9__gnu_cxx17__normal_iteratorIPKSt4pairIN7blocxx86StringES5_ENSt9__cxx19986vectorIS6_SaIS6_EEEEENSt7__debug6vectorIS6_SB_EEE18_M_dereferenceableEv@Base 2.3.0~svn544
 _ZNK11__gnu_debug14_Safe_iteratorIN9__gnu_cxx17__normal_iteratorIPKSt4pairIN7blocxx86StringES5_ENSt9__cxx19986vectorIS6_SaIS6_EEEEENSt7__debug6vectorIS6_SB_EEE18_M_is_before_beginEv@Base 2.3.0~svn544
 _ZNK11__gnu_debug14_Safe_iteratorIN9__gnu_cxx17__normal_iteratorIPKSt4pairIN7blocxx86StringES5_ENSt9__cxx19986vectorIS6_SaIS6_EEEEENSt7__debug6vectorIS6_SB_EEE4baseEv@Base 2.3.0~svn544
 _ZNK11__gnu_debug14_Safe_iteratorIN9__gnu_cxx17__normal_iteratorIPKSt4pairIN7blocxx86StringES5_ENSt9__cxx19986vectorIS6_SaIS6_EEEEENSt7__debug6vectorIS6_SB_EEE9_M_is_endEv@Base 2.3.0~svn544
 _ZNK11__gnu_debug14_Safe_iteratorIN9__gnu_cxx17__normal_iteratorIPKSt4pairIN7blocxx86StringES5_ENSt9__cxx19986vectorIS6_SaIS6_EEEEENSt7__debug6vectorIS6_SB_EEEdeEv@Base 2.3.0~svn544
 _ZNK11__gnu_debug14_Safe_iteratorIN9__gnu_cxx17__normal_iteratorIPKSt4pairIN7blocxx86StringES5_ENSt9__cxx19986vectorIS6_SaIS6_EEEEENSt7__debug6vectorIS6_SB_EEEptEv@Base 2.3.0~svn544
 _ZNK11__gnu_debug14_Safe_iteratorIN9__gnu_cxx17__normal_iteratorIPKSt4pairIiN7blocxx812SelectEngine4DataEENSt9__cxx19986vectorIS7_SaIS7_EEEEENSt7__debug6vectorIS7_SC_EEE11_M_constantEv@Base 2.3.0~svn544
 _ZNK11__gnu_debug14_Safe_iteratorIN9__gnu_cxx17__normal_iteratorIPKSt4pairIiN7blocxx812SelectEngine4DataEENSt9__cxx19986vectorIS7_SaIS7_EEEEENSt7__debug6vectorIS7_SC_EEE11_M_is_beginEv@Base 2.3.0~svn544
 _ZNK11__gnu_debug14_Safe_iteratorIN9__gnu_cxx17__normal_iteratorIPKSt4pairIiN7blocxx812SelectEngine4DataEENSt9__cxx19986vectorIS7_SaIS7_EEEEENSt7__debug6vectorIS7_SC_EEE15_M_get_sequenceEv@Base 2.3.0~svn544
 _ZNK11__gnu_debug14_Safe_iteratorIN9__gnu_cxx17__normal_iteratorIPKSt4pairIiN7blocxx812SelectEngine4DataEENSt9__cxx19986vectorIS7_SaIS7_EEEEENSt7__debug6vectorIS7_SC_EEE16_M_incrementableEv@Base 2.3.0~svn544
 _ZNK11__gnu_debug14_Safe_iteratorIN9__gnu_cxx17__normal_iteratorIPKSt4pairIiN7blocxx812SelectEngine4DataEENSt9__cxx19986vectorIS7_SaIS7_EEEEENSt7__debug6vectorIS7_SC_EEE18_M_dereferenceableEv@Base 2.3.0~svn544
 _ZNK11__gnu_debug14_Safe_iteratorIN9__gnu_cxx17__normal_iteratorIPKSt4pairIiN7blocxx812SelectEngine4DataEENSt9__cxx19986vectorIS7_SaIS7_EEEEENSt7__debug6vectorIS7_SC_EEE18_M_is_before_beginEv@Base 2.3.0~svn544
 _ZNK11__gnu_debug14_Safe_iteratorIN9__gnu_cxx17__normal_iteratorIPKSt4pairIiN7blocxx812SelectEngine4DataEENSt9__cxx19986vectorIS7_SaIS7_EEEEENSt7__debug6vectorIS7_SC_EEE4baseEv@Base 2.3.0~svn544
 _ZNK11__gnu_debug14_Safe_iteratorIN9__gnu_cxx17__normal_iteratorIPKSt4pairIiN7blocxx812SelectEngine4DataEENSt9__cxx19986vectorIS7_SaIS7_EEEEENSt7__debug6vectorIS7_SC_EEE9_M_is_endEv@Base 2.3.0~svn544
 _ZNK11__gnu_debug14_Safe_iteratorIN9__gnu_cxx17__normal_iteratorIPKSt4pairIiN7blocxx812SelectEngine4DataEENSt9__cxx19986vectorIS7_SaIS7_EEEEENSt7__debug6vectorIS7_SC_EEEptEv@Base 2.3.0~svn544
 _ZNK11__gnu_debug14_Safe_iteratorIN9__gnu_cxx17__normal_iteratorIPKSt4pairIiN7blocxx85ArrayINS4_6StringEEEENSt9__cxx19986vectorIS8_SaIS8_EEEEENSt7__debug6vectorIS8_SD_EEE11_M_constantEv@Base 2.3.0~svn544
 _ZNK11__gnu_debug14_Safe_iteratorIN9__gnu_cxx17__normal_iteratorIPKSt4pairIiN7blocxx85ArrayINS4_6StringEEEENSt9__cxx19986vectorIS8_SaIS8_EEEEENSt7__debug6vectorIS8_SD_EEE11_M_is_beginEv@Base 2.3.0~svn544
 _ZNK11__gnu_debug14_Safe_iteratorIN9__gnu_cxx17__normal_iteratorIPKSt4pairIiN7blocxx85ArrayINS4_6StringEEEENSt9__cxx19986vectorIS8_SaIS8_EEEEENSt7__debug6vectorIS8_SD_EEE14_M_can_advanceERKl@Base 2.3.0~svn544
 _ZNK11__gnu_debug14_Safe_iteratorIN9__gnu_cxx17__normal_iteratorIPKSt4pairIiN7blocxx85ArrayINS4_6StringEEEENSt9__cxx19986vectorIS8_SaIS8_EEEEENSt7__debug6vectorIS8_SD_EEE14_M_valid_rangeISF_EEbRKNS0_IT_SI_EE@Base 2.3.0~svn544
 _ZNK11__gnu_debug14_Safe_iteratorIN9__gnu_cxx17__normal_iteratorIPKSt4pairIiN7blocxx85ArrayINS4_6StringEEEENSt9__cxx19986vectorIS8_SaIS8_EEEEENSt7__debug6vectorIS8_SD_EEE15_M_get_sequenceEv@Base 2.3.0~svn544
 _ZNK11__gnu_debug14_Safe_iteratorIN9__gnu_cxx17__normal_iteratorIPKSt4pairIiN7blocxx85ArrayINS4_6StringEEEENSt9__cxx19986vectorIS8_SaIS8_EEEEENSt7__debug6vectorIS8_SD_EEE16_M_incrementableEv@Base 2.3.0~svn544
 _ZNK11__gnu_debug14_Safe_iteratorIN9__gnu_cxx17__normal_iteratorIPKSt4pairIiN7blocxx85ArrayINS4_6StringEEEENSt9__cxx19986vectorIS8_SaIS8_EEEEENSt7__debug6vectorIS8_SD_EEE18_M_dereferenceableEv@Base 2.3.0~svn544
 _ZNK11__gnu_debug14_Safe_iteratorIN9__gnu_cxx17__normal_iteratorIPKSt4pairIiN7blocxx85ArrayINS4_6StringEEEENSt9__cxx19986vectorIS8_SaIS8_EEEEENSt7__debug6vectorIS8_SD_EEE18_M_is_before_beginEv@Base 2.3.0~svn544
 _ZNK11__gnu_debug14_Safe_iteratorIN9__gnu_cxx17__normal_iteratorIPKSt4pairIiN7blocxx85ArrayINS4_6StringEEEENSt9__cxx19986vectorIS8_SaIS8_EEEEENSt7__debug6vectorIS8_SD_EEE4baseEv@Base 2.3.0~svn544
 _ZNK11__gnu_debug14_Safe_iteratorIN9__gnu_cxx17__normal_iteratorIPKSt4pairIiN7blocxx85ArrayINS4_6StringEEEENSt9__cxx19986vectorIS8_SaIS8_EEEEENSt7__debug6vectorIS8_SD_EEE9_M_is_endEv@Base 2.3.0~svn544
 _ZNK11__gnu_debug14_Safe_iteratorIN9__gnu_cxx17__normal_iteratorIPKSt4pairIiN7blocxx85ArrayINS4_6StringEEEENSt9__cxx19986vectorIS8_SaIS8_EEEEENSt7__debug6vectorIS8_SD_EEEdeEv@Base 2.3.0~svn544
 _ZNK11__gnu_debug14_Safe_iteratorIN9__gnu_cxx17__normal_iteratorIPKSt4pairIiN7blocxx85ArrayINS4_6StringEEEENSt9__cxx19986vectorIS8_SaIS8_EEEEENSt7__debug6vectorIS8_SD_EEEptEv@Base 2.3.0~svn544
 _ZNK11__gnu_debug14_Safe_iteratorIN9__gnu_cxx17__normal_iteratorIPKcNSt9__cxx19986vectorIcSaIcEEEEENSt7__debug6vectorIcS7_EEE4baseEv@Base 2.3.0~svn544
 _ZNK11__gnu_debug14_Safe_iteratorIN9__gnu_cxx17__normal_iteratorIPKhNSt9__cxx19986vectorIhSaIhEEEEENSt7__debug6vectorIhS7_EEE4baseEv@Base 2.3.0~svn544
 _ZNK11__gnu_debug14_Safe_iteratorIN9__gnu_cxx17__normal_iteratorIPKiNSt9__cxx19986vectorIiSaIiEEEEENSt7__debug6vectorIiS7_EEE4baseEv@Base 2.3.0~svn544
 _ZNK11__gnu_debug14_Safe_iteratorIN9__gnu_cxx17__normal_iteratorIPN7blocxx818IntrusiveReferenceINS3_16ParserOptionImplEEENSt9__cxx19986vectorIS6_SaIS6_EEEEENSt7__debug6vectorIS6_SA_EEE11_M_constantEv@Base 2.3.0~svn544
 _ZNK11__gnu_debug14_Safe_iteratorIN9__gnu_cxx17__normal_iteratorIPN7blocxx818IntrusiveReferenceINS3_16ParserOptionImplEEENSt9__cxx19986vectorIS6_SaIS6_EEEEENSt7__debug6vectorIS6_SA_EEE11_M_is_beginEv@Base 2.3.0~svn544
 _ZNK11__gnu_debug14_Safe_iteratorIN9__gnu_cxx17__normal_iteratorIPN7blocxx818IntrusiveReferenceINS3_16ParserOptionImplEEENSt9__cxx19986vectorIS6_SaIS6_EEEEENSt7__debug6vectorIS6_SA_EEE14_M_valid_rangeISC_EEbRKNS0_IT_SF_EE@Base 2.3.0~svn544
 _ZNK11__gnu_debug14_Safe_iteratorIN9__gnu_cxx17__normal_iteratorIPN7blocxx818IntrusiveReferenceINS3_16ParserOptionImplEEENSt9__cxx19986vectorIS6_SaIS6_EEEEENSt7__debug6vectorIS6_SA_EEE15_M_get_sequenceEv@Base 2.3.0~svn544
 _ZNK11__gnu_debug14_Safe_iteratorIN9__gnu_cxx17__normal_iteratorIPN7blocxx818IntrusiveReferenceINS3_16ParserOptionImplEEENSt9__cxx19986vectorIS6_SaIS6_EEEEENSt7__debug6vectorIS6_SA_EEE16_M_incrementableEv@Base 2.3.0~svn544
 _ZNK11__gnu_debug14_Safe_iteratorIN9__gnu_cxx17__normal_iteratorIPN7blocxx818IntrusiveReferenceINS3_16ParserOptionImplEEENSt9__cxx19986vectorIS6_SaIS6_EEEEENSt7__debug6vectorIS6_SA_EEE18_M_dereferenceableEv@Base 2.3.0~svn544
 _ZNK11__gnu_debug14_Safe_iteratorIN9__gnu_cxx17__normal_iteratorIPN7blocxx818IntrusiveReferenceINS3_16ParserOptionImplEEENSt9__cxx19986vectorIS6_SaIS6_EEEEENSt7__debug6vectorIS6_SA_EEE18_M_is_before_beginEv@Base 2.3.0~svn544
 _ZNK11__gnu_debug14_Safe_iteratorIN9__gnu_cxx17__normal_iteratorIPN7blocxx818IntrusiveReferenceINS3_16ParserOptionImplEEENSt9__cxx19986vectorIS6_SaIS6_EEEEENSt7__debug6vectorIS6_SA_EEE4baseEv@Base 2.3.0~svn544
 _ZNK11__gnu_debug14_Safe_iteratorIN9__gnu_cxx17__normal_iteratorIPN7blocxx818IntrusiveReferenceINS3_16ParserOptionImplEEENSt9__cxx19986vectorIS6_SaIS6_EEEEENSt7__debug6vectorIS6_SA_EEE9_M_is_endEv@Base 2.3.0~svn544
 _ZNK11__gnu_debug14_Safe_iteratorIN9__gnu_cxx17__normal_iteratorIPN7blocxx818IntrusiveReferenceINS3_16ParserOptionImplEEENSt9__cxx19986vectorIS6_SaIS6_EEEEENSt7__debug6vectorIS6_SA_EEEdeEv@Base 2.3.0~svn544
 _ZNK11__gnu_debug14_Safe_iteratorIN9__gnu_cxx17__normal_iteratorIPN7blocxx818IntrusiveReferenceINS3_6ThreadEEENSt9__cxx19986vectorIS6_SaIS6_EEEEENSt7__debug6vectorIS6_SA_EEE11_M_constantEv@Base 2.3.0~svn544
 _ZNK11__gnu_debug14_Safe_iteratorIN9__gnu_cxx17__normal_iteratorIPN7blocxx818IntrusiveReferenceINS3_6ThreadEEENSt9__cxx19986vectorIS6_SaIS6_EEEEENSt7__debug6vectorIS6_SA_EEE11_M_is_beginEv@Base 2.3.0~svn544
 _ZNK11__gnu_debug14_Safe_iteratorIN9__gnu_cxx17__normal_iteratorIPN7blocxx818IntrusiveReferenceINS3_6ThreadEEENSt9__cxx19986vectorIS6_SaIS6_EEEEENSt7__debug6vectorIS6_SA_EEE14_M_can_advanceERKl@Base 2.3.0~svn544
 _ZNK11__gnu_debug14_Safe_iteratorIN9__gnu_cxx17__normal_iteratorIPN7blocxx818IntrusiveReferenceINS3_6ThreadEEENSt9__cxx19986vectorIS6_SaIS6_EEEEENSt7__debug6vectorIS6_SA_EEE15_M_get_sequenceEv@Base 2.3.0~svn544
 _ZNK11__gnu_debug14_Safe_iteratorIN9__gnu_cxx17__normal_iteratorIPN7blocxx818IntrusiveReferenceINS3_6ThreadEEENSt9__cxx19986vectorIS6_SaIS6_EEEEENSt7__debug6vectorIS6_SA_EEE18_M_dereferenceableEv@Base 2.3.0~svn544
 _ZNK11__gnu_debug14_Safe_iteratorIN9__gnu_cxx17__normal_iteratorIPN7blocxx818IntrusiveReferenceINS3_6ThreadEEENSt9__cxx19986vectorIS6_SaIS6_EEEEENSt7__debug6vectorIS6_SA_EEE18_M_is_before_beginEv@Base 2.3.0~svn544
 _ZNK11__gnu_debug14_Safe_iteratorIN9__gnu_cxx17__normal_iteratorIPN7blocxx818IntrusiveReferenceINS3_6ThreadEEENSt9__cxx19986vectorIS6_SaIS6_EEEEENSt7__debug6vectorIS6_SA_EEE4baseEv@Base 2.3.0~svn544
 _ZNK11__gnu_debug14_Safe_iteratorIN9__gnu_cxx17__normal_iteratorIPN7blocxx818IntrusiveReferenceINS3_6ThreadEEENSt9__cxx19986vectorIS6_SaIS6_EEEEENSt7__debug6vectorIS6_SA_EEE9_M_is_endEv@Base 2.3.0~svn544
 _ZNK11__gnu_debug14_Safe_iteratorIN9__gnu_cxx17__normal_iteratorIPN7blocxx818IntrusiveReferenceINS3_6ThreadEEENSt9__cxx19986vectorIS6_SaIS6_EEEEENSt7__debug6vectorIS6_SA_EEEplERKl@Base 2.3.0~svn544
 _ZNK11__gnu_debug14_Safe_iteratorIN9__gnu_cxx17__normal_iteratorIPN7blocxx86StringENSt9__cxx19986vectorIS4_SaIS4_EEEEENSt7__debug6vectorIS4_S8_EEE11_M_constantEv@Base 2.3.0~svn544
 _ZNK11__gnu_debug14_Safe_iteratorIN9__gnu_cxx17__normal_iteratorIPN7blocxx86StringENSt9__cxx19986vectorIS4_SaIS4_EEEEENSt7__debug6vectorIS4_S8_EEE11_M_is_beginEv@Base 2.3.0~svn544
 _ZNK11__gnu_debug14_Safe_iteratorIN9__gnu_cxx17__normal_iteratorIPN7blocxx86StringENSt9__cxx19986vectorIS4_SaIS4_EEEEENSt7__debug6vectorIS4_S8_EEE14_M_can_advanceERKl@Base 2.3.0~svn544
 _ZNK11__gnu_debug14_Safe_iteratorIN9__gnu_cxx17__normal_iteratorIPN7blocxx86StringENSt9__cxx19986vectorIS4_SaIS4_EEEEENSt7__debug6vectorIS4_S8_EEE14_M_valid_rangeISA_EEbRKNS0_IT_SD_EE@Base 2.3.0~svn544
 _ZNK11__gnu_debug14_Safe_iteratorIN9__gnu_cxx17__normal_iteratorIPN7blocxx86StringENSt9__cxx19986vectorIS4_SaIS4_EEEEENSt7__debug6vectorIS4_S8_EEE15_M_get_sequenceEv@Base 2.3.0~svn544
 _ZNK11__gnu_debug14_Safe_iteratorIN9__gnu_cxx17__normal_iteratorIPN7blocxx86StringENSt9__cxx19986vectorIS4_SaIS4_EEEEENSt7__debug6vectorIS4_S8_EEE16_M_decrementableEv@Base 2.3.0~svn544
 _ZNK11__gnu_debug14_Safe_iteratorIN9__gnu_cxx17__normal_iteratorIPN7blocxx86StringENSt9__cxx19986vectorIS4_SaIS4_EEEEENSt7__debug6vectorIS4_S8_EEE16_M_incrementableEv@Base 2.3.0~svn544
 _ZNK11__gnu_debug14_Safe_iteratorIN9__gnu_cxx17__normal_iteratorIPN7blocxx86StringENSt9__cxx19986vectorIS4_SaIS4_EEEEENSt7__debug6vectorIS4_S8_EEE18_M_dereferenceableEv@Base 2.3.0~svn544
 _ZNK11__gnu_debug14_Safe_iteratorIN9__gnu_cxx17__normal_iteratorIPN7blocxx86StringENSt9__cxx19986vectorIS4_SaIS4_EEEEENSt7__debug6vectorIS4_S8_EEE18_M_is_before_beginEv@Base 2.3.0~svn544
 _ZNK11__gnu_debug14_Safe_iteratorIN9__gnu_cxx17__normal_iteratorIPN7blocxx86StringENSt9__cxx19986vectorIS4_SaIS4_EEEEENSt7__debug6vectorIS4_S8_EEE4baseEv@Base 2.3.0~svn544
 _ZNK11__gnu_debug14_Safe_iteratorIN9__gnu_cxx17__normal_iteratorIPN7blocxx86StringENSt9__cxx19986vectorIS4_SaIS4_EEEEENSt7__debug6vectorIS4_S8_EEE9_M_is_endEv@Base 2.3.0~svn544
 _ZNK11__gnu_debug14_Safe_iteratorIN9__gnu_cxx17__normal_iteratorIPN7blocxx86StringENSt9__cxx19986vectorIS4_SaIS4_EEEEENSt7__debug6vectorIS4_S8_EEEdeEv@Base 2.3.0~svn544
 _ZNK11__gnu_debug14_Safe_iteratorIN9__gnu_cxx17__normal_iteratorIPN7blocxx86StringENSt9__cxx19986vectorIS4_SaIS4_EEEEENSt7__debug6vectorIS4_S8_EEEixERKl@Base 2.3.0~svn544
 _ZNK11__gnu_debug14_Safe_iteratorIN9__gnu_cxx17__normal_iteratorIPN7blocxx86StringENSt9__cxx19986vectorIS4_SaIS4_EEEEENSt7__debug6vectorIS4_S8_EEEmiERKl@Base 2.3.0~svn544
 _ZNK11__gnu_debug14_Safe_iteratorIN9__gnu_cxx17__normal_iteratorIPN7blocxx86StringENSt9__cxx19986vectorIS4_SaIS4_EEEEENSt7__debug6vectorIS4_S8_EEEplERKl@Base 2.3.0~svn544
 _ZNK11__gnu_debug14_Safe_iteratorIN9__gnu_cxx17__normal_iteratorIPN7blocxx89PerlRegEx7match_tENSt9__cxx19986vectorIS5_SaIS5_EEEEENSt7__debug6vectorIS5_S9_EEE11_M_constantEv@Base 2.3.0~svn544
 _ZNK11__gnu_debug14_Safe_iteratorIN9__gnu_cxx17__normal_iteratorIPN7blocxx89PerlRegEx7match_tENSt9__cxx19986vectorIS5_SaIS5_EEEEENSt7__debug6vectorIS5_S9_EEE11_M_is_beginEv@Base 2.3.0~svn544
 _ZNK11__gnu_debug14_Safe_iteratorIN9__gnu_cxx17__normal_iteratorIPN7blocxx89PerlRegEx7match_tENSt9__cxx19986vectorIS5_SaIS5_EEEEENSt7__debug6vectorIS5_S9_EEE15_M_get_sequenceEv@Base 2.3.0~svn544
 _ZNK11__gnu_debug14_Safe_iteratorIN9__gnu_cxx17__normal_iteratorIPN7blocxx89PerlRegEx7match_tENSt9__cxx19986vectorIS5_SaIS5_EEEEENSt7__debug6vectorIS5_S9_EEE18_M_is_before_beginEv@Base 2.3.0~svn544
 _ZNK11__gnu_debug14_Safe_iteratorIN9__gnu_cxx17__normal_iteratorIPN7blocxx89PerlRegEx7match_tENSt9__cxx19986vectorIS5_SaIS5_EEEEENSt7__debug6vectorIS5_S9_EEE4baseEv@Base 2.3.0~svn544
 _ZNK11__gnu_debug14_Safe_iteratorIN9__gnu_cxx17__normal_iteratorIPN7blocxx89PerlRegEx7match_tENSt9__cxx19986vectorIS5_SaIS5_EEEEENSt7__debug6vectorIS5_S9_EEE9_M_is_endEv@Base 2.3.0~svn544
 _ZNK11__gnu_debug14_Safe_iteratorIN9__gnu_cxx17__normal_iteratorIPSt4pairIiN7blocxx812SelectEngine4DataEENSt9__cxx19986vectorIS7_SaIS7_EEEEENSt7__debug6vectorIS7_SB_EEE11_M_constantEv@Base 2.3.0~svn544
 _ZNK11__gnu_debug14_Safe_iteratorIN9__gnu_cxx17__normal_iteratorIPSt4pairIiN7blocxx812SelectEngine4DataEENSt9__cxx19986vectorIS7_SaIS7_EEEEENSt7__debug6vectorIS7_SB_EEE11_M_is_beginEv@Base 2.3.0~svn544
 _ZNK11__gnu_debug14_Safe_iteratorIN9__gnu_cxx17__normal_iteratorIPSt4pairIiN7blocxx812SelectEngine4DataEENSt9__cxx19986vectorIS7_SaIS7_EEEEENSt7__debug6vectorIS7_SB_EEE14_M_can_advanceERKl@Base 2.3.0~svn544
 _ZNK11__gnu_debug14_Safe_iteratorIN9__gnu_cxx17__normal_iteratorIPSt4pairIiN7blocxx812SelectEngine4DataEENSt9__cxx19986vectorIS7_SaIS7_EEEEENSt7__debug6vectorIS7_SB_EEE14_M_valid_rangeISD_EEbRKNS0_IT_SG_EE@Base 2.3.0~svn544
 _ZNK11__gnu_debug14_Safe_iteratorIN9__gnu_cxx17__normal_iteratorIPSt4pairIiN7blocxx812SelectEngine4DataEENSt9__cxx19986vectorIS7_SaIS7_EEEEENSt7__debug6vectorIS7_SB_EEE15_M_get_sequenceEv@Base 2.3.0~svn544
 _ZNK11__gnu_debug14_Safe_iteratorIN9__gnu_cxx17__normal_iteratorIPSt4pairIiN7blocxx812SelectEngine4DataEENSt9__cxx19986vectorIS7_SaIS7_EEEEENSt7__debug6vectorIS7_SB_EEE16_M_incrementableEv@Base 2.3.0~svn544
 _ZNK11__gnu_debug14_Safe_iteratorIN9__gnu_cxx17__normal_iteratorIPSt4pairIiN7blocxx812SelectEngine4DataEENSt9__cxx19986vectorIS7_SaIS7_EEEEENSt7__debug6vectorIS7_SB_EEE18_M_dereferenceableEv@Base 2.3.0~svn544
 _ZNK11__gnu_debug14_Safe_iteratorIN9__gnu_cxx17__normal_iteratorIPSt4pairIiN7blocxx812SelectEngine4DataEENSt9__cxx19986vectorIS7_SaIS7_EEEEENSt7__debug6vectorIS7_SB_EEE18_M_is_before_beginEv@Base 2.3.0~svn544
 _ZNK11__gnu_debug14_Safe_iteratorIN9__gnu_cxx17__normal_iteratorIPSt4pairIiN7blocxx812SelectEngine4DataEENSt9__cxx19986vectorIS7_SaIS7_EEEEENSt7__debug6vectorIS7_SB_EEE4baseEv@Base 2.3.0~svn544
 _ZNK11__gnu_debug14_Safe_iteratorIN9__gnu_cxx17__normal_iteratorIPSt4pairIiN7blocxx812SelectEngine4DataEENSt9__cxx19986vectorIS7_SaIS7_EEEEENSt7__debug6vectorIS7_SB_EEE9_M_is_endEv@Base 2.3.0~svn544
 _ZNK11__gnu_debug14_Safe_iteratorIN9__gnu_cxx17__normal_iteratorIPSt4pairIiN7blocxx812SelectEngine4DataEENSt9__cxx19986vectorIS7_SaIS7_EEEEENSt7__debug6vectorIS7_SB_EEEdeEv@Base 2.3.0~svn544
 _ZNK11__gnu_debug14_Safe_iteratorIN9__gnu_cxx17__normal_iteratorIPSt4pairIiN7blocxx812SelectEngine4DataEENSt9__cxx19986vectorIS7_SaIS7_EEEEENSt7__debug6vectorIS7_SB_EEEptEv@Base 2.3.0~svn544
 _ZNK11__gnu_debug14_Safe_iteratorIN9__gnu_cxx17__normal_iteratorIPSt4pairIiN7blocxx85ArrayINS4_6StringEEEENSt9__cxx19986vectorIS8_SaIS8_EEEEENSt7__debug6vectorIS8_SC_EEE11_M_constantEv@Base 2.3.0~svn544
 _ZNK11__gnu_debug14_Safe_iteratorIN9__gnu_cxx17__normal_iteratorIPSt4pairIiN7blocxx85ArrayINS4_6StringEEEENSt9__cxx19986vectorIS8_SaIS8_EEEEENSt7__debug6vectorIS8_SC_EEE11_M_is_beginEv@Base 2.3.0~svn544
 _ZNK11__gnu_debug14_Safe_iteratorIN9__gnu_cxx17__normal_iteratorIPSt4pairIiN7blocxx85ArrayINS4_6StringEEEENSt9__cxx19986vectorIS8_SaIS8_EEEEENSt7__debug6vectorIS8_SC_EEE14_M_can_advanceERKl@Base 2.3.0~svn544
 _ZNK11__gnu_debug14_Safe_iteratorIN9__gnu_cxx17__normal_iteratorIPSt4pairIiN7blocxx85ArrayINS4_6StringEEEENSt9__cxx19986vectorIS8_SaIS8_EEEEENSt7__debug6vectorIS8_SC_EEE14_M_valid_rangeISE_EEbRKNS0_IT_SH_EE@Base 2.3.0~svn544
 _ZNK11__gnu_debug14_Safe_iteratorIN9__gnu_cxx17__normal_iteratorIPSt4pairIiN7blocxx85ArrayINS4_6StringEEEENSt9__cxx19986vectorIS8_SaIS8_EEEEENSt7__debug6vectorIS8_SC_EEE15_M_get_sequenceEv@Base 2.3.0~svn544
 _ZNK11__gnu_debug14_Safe_iteratorIN9__gnu_cxx17__normal_iteratorIPSt4pairIiN7blocxx85ArrayINS4_6StringEEEENSt9__cxx19986vectorIS8_SaIS8_EEEEENSt7__debug6vectorIS8_SC_EEE16_M_incrementableEv@Base 2.3.0~svn544
 _ZNK11__gnu_debug14_Safe_iteratorIN9__gnu_cxx17__normal_iteratorIPSt4pairIiN7blocxx85ArrayINS4_6StringEEEENSt9__cxx19986vectorIS8_SaIS8_EEEEENSt7__debug6vectorIS8_SC_EEE18_M_dereferenceableEv@Base 2.3.0~svn544
 _ZNK11__gnu_debug14_Safe_iteratorIN9__gnu_cxx17__normal_iteratorIPSt4pairIiN7blocxx85ArrayINS4_6StringEEEENSt9__cxx19986vectorIS8_SaIS8_EEEEENSt7__debug6vectorIS8_SC_EEE18_M_is_before_beginEv@Base 2.3.0~svn544
 _ZNK11__gnu_debug14_Safe_iteratorIN9__gnu_cxx17__normal_iteratorIPSt4pairIiN7blocxx85ArrayINS4_6StringEEEENSt9__cxx19986vectorIS8_SaIS8_EEEEENSt7__debug6vectorIS8_SC_EEE4baseEv@Base 2.3.0~svn544
 _ZNK11__gnu_debug14_Safe_iteratorIN9__gnu_cxx17__normal_iteratorIPSt4pairIiN7blocxx85ArrayINS4_6StringEEEENSt9__cxx19986vectorIS8_SaIS8_EEEEENSt7__debug6vectorIS8_SC_EEE9_M_is_endEv@Base 2.3.0~svn544
 _ZNK11__gnu_debug14_Safe_iteratorIN9__gnu_cxx17__normal_iteratorIPSt4pairIiN7blocxx85ArrayINS4_6StringEEEENSt9__cxx19986vectorIS8_SaIS8_EEEEENSt7__debug6vectorIS8_SC_EEEdeEv@Base 2.3.0~svn544
 _ZNK11__gnu_debug14_Safe_iteratorIN9__gnu_cxx17__normal_iteratorIPSt4pairIiN7blocxx85ArrayINS4_6StringEEEENSt9__cxx19986vectorIS8_SaIS8_EEEEENSt7__debug6vectorIS8_SC_EEEptEv@Base 2.3.0~svn544
 _ZNK11__gnu_debug14_Safe_iteratorIN9__gnu_cxx17__normal_iteratorIPcNSt9__cxx19986vectorIcSaIcEEEEENSt7__debug6vectorIcS6_EEE11_M_constantEv@Base 2.3.0~svn544
 _ZNK11__gnu_debug14_Safe_iteratorIN9__gnu_cxx17__normal_iteratorIPcNSt9__cxx19986vectorIcSaIcEEEEENSt7__debug6vectorIcS6_EEE11_M_is_beginEv@Base 2.3.0~svn544
 _ZNK11__gnu_debug14_Safe_iteratorIN9__gnu_cxx17__normal_iteratorIPcNSt9__cxx19986vectorIcSaIcEEEEENSt7__debug6vectorIcS6_EEE14_M_can_advanceERKl@Base 2.3.0~svn544
 _ZNK11__gnu_debug14_Safe_iteratorIN9__gnu_cxx17__normal_iteratorIPcNSt9__cxx19986vectorIcSaIcEEEEENSt7__debug6vectorIcS6_EEE14_M_valid_rangeIS8_EEbRKNS0_IT_SB_EE@Base 2.3.0~svn544
 _ZNK11__gnu_debug14_Safe_iteratorIN9__gnu_cxx17__normal_iteratorIPcNSt9__cxx19986vectorIcSaIcEEEEENSt7__debug6vectorIcS6_EEE15_M_get_sequenceEv@Base 2.3.0~svn544
 _ZNK11__gnu_debug14_Safe_iteratorIN9__gnu_cxx17__normal_iteratorIPcNSt9__cxx19986vectorIcSaIcEEEEENSt7__debug6vectorIcS6_EEE16_M_incrementableEv@Base 2.3.0~svn544
 _ZNK11__gnu_debug14_Safe_iteratorIN9__gnu_cxx17__normal_iteratorIPcNSt9__cxx19986vectorIcSaIcEEEEENSt7__debug6vectorIcS6_EEE18_M_dereferenceableEv@Base 2.3.0~svn544
 _ZNK11__gnu_debug14_Safe_iteratorIN9__gnu_cxx17__normal_iteratorIPcNSt9__cxx19986vectorIcSaIcEEEEENSt7__debug6vectorIcS6_EEE18_M_is_before_beginEv@Base 2.3.0~svn544
 _ZNK11__gnu_debug14_Safe_iteratorIN9__gnu_cxx17__normal_iteratorIPcNSt9__cxx19986vectorIcSaIcEEEEENSt7__debug6vectorIcS6_EEE4baseEv@Base 2.3.0~svn544
 _ZNK11__gnu_debug14_Safe_iteratorIN9__gnu_cxx17__normal_iteratorIPcNSt9__cxx19986vectorIcSaIcEEEEENSt7__debug6vectorIcS6_EEE9_M_is_endEv@Base 2.3.0~svn544
 _ZNK11__gnu_debug14_Safe_iteratorIN9__gnu_cxx17__normal_iteratorIPcNSt9__cxx19986vectorIcSaIcEEEEENSt7__debug6vectorIcS6_EEEdeEv@Base 2.3.0~svn544
 _ZNK11__gnu_debug14_Safe_iteratorIN9__gnu_cxx17__normal_iteratorIPcNSt9__cxx19986vectorIcSaIcEEEEENSt7__debug6vectorIcS6_EEEplERKl@Base 2.3.0~svn544
 _ZNK11__gnu_debug14_Safe_iteratorIN9__gnu_cxx17__normal_iteratorIPhNSt9__cxx19986vectorIhSaIhEEEEENSt7__debug6vectorIhS6_EEE11_M_constantEv@Base 2.3.0~svn544
 _ZNK11__gnu_debug14_Safe_iteratorIN9__gnu_cxx17__normal_iteratorIPhNSt9__cxx19986vectorIhSaIhEEEEENSt7__debug6vectorIhS6_EEE11_M_is_beginEv@Base 2.3.0~svn544
 _ZNK11__gnu_debug14_Safe_iteratorIN9__gnu_cxx17__normal_iteratorIPhNSt9__cxx19986vectorIhSaIhEEEEENSt7__debug6vectorIhS6_EEE15_M_get_sequenceEv@Base 2.3.0~svn544
 _ZNK11__gnu_debug14_Safe_iteratorIN9__gnu_cxx17__normal_iteratorIPhNSt9__cxx19986vectorIhSaIhEEEEENSt7__debug6vectorIhS6_EEE18_M_is_before_beginEv@Base 2.3.0~svn544
 _ZNK11__gnu_debug14_Safe_iteratorIN9__gnu_cxx17__normal_iteratorIPhNSt9__cxx19986vectorIhSaIhEEEEENSt7__debug6vectorIhS6_EEE4baseEv@Base 2.3.0~svn544
 _ZNK11__gnu_debug14_Safe_iteratorIN9__gnu_cxx17__normal_iteratorIPhNSt9__cxx19986vectorIhSaIhEEEEENSt7__debug6vectorIhS6_EEE9_M_is_endEv@Base 2.3.0~svn544
 _ZNK11__gnu_debug14_Safe_iteratorIN9__gnu_cxx17__normal_iteratorIPiNSt9__cxx19986vectorIiSaIiEEEEENSt7__debug6vectorIiS6_EEE4baseEv@Base 2.3.0~svn544
 _ZNK11__gnu_debug14_Safe_iteratorINSt9__cxx199815_Deque_iteratorIN7blocxx818IntrusiveReferenceINS3_8RunnableEEERKS6_PS7_EENSt7__debug5dequeIS6_SaIS6_EEEE4baseEv@Base 2.3.0~svn544
 _ZNK11__gnu_debug14_Safe_iteratorINSt9__cxx199815_Deque_iteratorIN7blocxx818IntrusiveReferenceINS3_8RunnableEEERS6_PS6_EENSt7__debug5dequeIS6_SaIS6_EEEE4baseEv@Base 2.3.0~svn544
 _ZNK11__gnu_debug14_Safe_iteratorISt17_Rb_tree_iteratorISt4pairIKN7blocxx86StringENS3_13SSLTrustStore8UserInfoEEENSt7__debug3mapIS4_S7_St4lessIS4_ESaIS8_EEEE11_M_constantEv@Base 2.3.0~svn544
 _ZNK11__gnu_debug14_Safe_iteratorISt17_Rb_tree_iteratorISt4pairIKN7blocxx86StringENS3_13SSLTrustStore8UserInfoEEENSt7__debug3mapIS4_S7_St4lessIS4_ESaIS8_EEEE11_M_is_beginEv@Base 2.3.0~svn544
 _ZNK11__gnu_debug14_Safe_iteratorISt17_Rb_tree_iteratorISt4pairIKN7blocxx86StringENS3_13SSLTrustStore8UserInfoEEENSt7__debug3mapIS4_S7_St4lessIS4_ESaIS8_EEEE15_M_get_sequenceEv@Base 2.3.0~svn544
 _ZNK11__gnu_debug14_Safe_iteratorISt17_Rb_tree_iteratorISt4pairIKN7blocxx86StringENS3_13SSLTrustStore8UserInfoEEENSt7__debug3mapIS4_S7_St4lessIS4_ESaIS8_EEEE18_M_is_before_beginEv@Base 2.3.0~svn544
 _ZNK11__gnu_debug14_Safe_iteratorISt17_Rb_tree_iteratorISt4pairIKN7blocxx86StringENS3_13SSLTrustStore8UserInfoEEENSt7__debug3mapIS4_S7_St4lessIS4_ESaIS8_EEEE4baseEv@Base 2.3.0~svn544
 _ZNK11__gnu_debug14_Safe_iteratorISt17_Rb_tree_iteratorISt4pairIKN7blocxx86StringENS3_13SSLTrustStore8UserInfoEEENSt7__debug3mapIS4_S7_St4lessIS4_ESaIS8_EEEE9_M_is_endEv@Base 2.3.0~svn544
 _ZNK11__gnu_debug14_Safe_iteratorISt17_Rb_tree_iteratorISt4pairIKN7blocxx86StringES4_EENSt7__debug3mapIS4_S4_St4lessIS4_ESaIS6_EEEE11_M_constantEv@Base 2.3.0~svn544
 _ZNK11__gnu_debug14_Safe_iteratorISt17_Rb_tree_iteratorISt4pairIKN7blocxx86StringES4_EENSt7__debug3mapIS4_S4_St4lessIS4_ESaIS6_EEEE11_M_is_beginEv@Base 2.3.0~svn544
 _ZNK11__gnu_debug14_Safe_iteratorISt17_Rb_tree_iteratorISt4pairIKN7blocxx86StringES4_EENSt7__debug3mapIS4_S4_St4lessIS4_ESaIS6_EEEE15_M_get_sequenceEv@Base 2.3.0~svn544
 _ZNK11__gnu_debug14_Safe_iteratorISt17_Rb_tree_iteratorISt4pairIKN7blocxx86StringES4_EENSt7__debug3mapIS4_S4_St4lessIS4_ESaIS6_EEEE18_M_dereferenceableEv@Base 2.3.0~svn544
 _ZNK11__gnu_debug14_Safe_iteratorISt17_Rb_tree_iteratorISt4pairIKN7blocxx86StringES4_EENSt7__debug3mapIS4_S4_St4lessIS4_ESaIS6_EEEE18_M_is_before_beginEv@Base 2.3.0~svn544
 _ZNK11__gnu_debug14_Safe_iteratorISt17_Rb_tree_iteratorISt4pairIKN7blocxx86StringES4_EENSt7__debug3mapIS4_S4_St4lessIS4_ESaIS6_EEEE4baseEv@Base 2.3.0~svn544
 _ZNK11__gnu_debug14_Safe_iteratorISt17_Rb_tree_iteratorISt4pairIKN7blocxx86StringES4_EENSt7__debug3mapIS4_S4_St4lessIS4_ESaIS6_EEEE9_M_is_endEv@Base 2.3.0~svn544
 _ZNK11__gnu_debug14_Safe_iteratorISt17_Rb_tree_iteratorISt4pairIKN7blocxx86StringES4_EENSt7__debug3mapIS4_S4_St4lessIS4_ESaIS6_EEEEptEv@Base 2.3.0~svn544
 _ZNK11__gnu_debug14_Safe_iteratorISt17_Rb_tree_iteratorISt4pairIKmN7blocxx817GenericRWLockImplImNS4_8RWLocker14ThreadComparerEE10LockerInfoEEENSt7__debug3mapImS9_S7_SaISA_EEEE11_M_constantEv@Base 2.3.0~svn544
 _ZNK11__gnu_debug14_Safe_iteratorISt17_Rb_tree_iteratorISt4pairIKmN7blocxx817GenericRWLockImplImNS4_8RWLocker14ThreadComparerEE10LockerInfoEEENSt7__debug3mapImS9_S7_SaISA_EEEE11_M_is_beginEv@Base 2.3.0~svn544
 _ZNK11__gnu_debug14_Safe_iteratorISt17_Rb_tree_iteratorISt4pairIKmN7blocxx817GenericRWLockImplImNS4_8RWLocker14ThreadComparerEE10LockerInfoEEENSt7__debug3mapImS9_S7_SaISA_EEEE15_M_get_sequenceEv@Base 2.3.0~svn544
 _ZNK11__gnu_debug14_Safe_iteratorISt17_Rb_tree_iteratorISt4pairIKmN7blocxx817GenericRWLockImplImNS4_8RWLocker14ThreadComparerEE10LockerInfoEEENSt7__debug3mapImS9_S7_SaISA_EEEE18_M_dereferenceableEv@Base 2.3.0~svn544
 _ZNK11__gnu_debug14_Safe_iteratorISt17_Rb_tree_iteratorISt4pairIKmN7blocxx817GenericRWLockImplImNS4_8RWLocker14ThreadComparerEE10LockerInfoEEENSt7__debug3mapImS9_S7_SaISA_EEEE18_M_is_before_beginEv@Base 2.3.0~svn544
 _ZNK11__gnu_debug14_Safe_iteratorISt17_Rb_tree_iteratorISt4pairIKmN7blocxx817GenericRWLockImplImNS4_8RWLocker14ThreadComparerEE10LockerInfoEEENSt7__debug3mapImS9_S7_SaISA_EEEE4baseEv@Base 2.3.0~svn544
 _ZNK11__gnu_debug14_Safe_iteratorISt17_Rb_tree_iteratorISt4pairIKmN7blocxx817GenericRWLockImplImNS4_8RWLocker14ThreadComparerEE10LockerInfoEEENSt7__debug3mapImS9_S7_SaISA_EEEE9_M_is_endEv@Base 2.3.0~svn544
 _ZNK11__gnu_debug14_Safe_iteratorISt17_Rb_tree_iteratorISt4pairIKmN7blocxx817GenericRWLockImplImNS4_8RWLocker14ThreadComparerEE10LockerInfoEEENSt7__debug3mapImS9_S7_SaISA_EEEEptEv@Base 2.3.0~svn544
 _ZNK11__gnu_debug14_Safe_iteratorISt23_Rb_tree_const_iteratorISt4pairIKN7blocxx86StringENS3_13SSLTrustStore8UserInfoEEENSt7__debug3mapIS4_S7_St4lessIS4_ESaIS8_EEEE11_M_constantEv@Base 2.3.0~svn544
 _ZNK11__gnu_debug14_Safe_iteratorISt23_Rb_tree_const_iteratorISt4pairIKN7blocxx86StringENS3_13SSLTrustStore8UserInfoEEENSt7__debug3mapIS4_S7_St4lessIS4_ESaIS8_EEEE11_M_is_beginEv@Base 2.3.0~svn544
 _ZNK11__gnu_debug14_Safe_iteratorISt23_Rb_tree_const_iteratorISt4pairIKN7blocxx86StringENS3_13SSLTrustStore8UserInfoEEENSt7__debug3mapIS4_S7_St4lessIS4_ESaIS8_EEEE15_M_get_sequenceEv@Base 2.3.0~svn544
 _ZNK11__gnu_debug14_Safe_iteratorISt23_Rb_tree_const_iteratorISt4pairIKN7blocxx86StringENS3_13SSLTrustStore8UserInfoEEENSt7__debug3mapIS4_S7_St4lessIS4_ESaIS8_EEEE16_M_incrementableEv@Base 2.3.0~svn544
 _ZNK11__gnu_debug14_Safe_iteratorISt23_Rb_tree_const_iteratorISt4pairIKN7blocxx86StringENS3_13SSLTrustStore8UserInfoEEENSt7__debug3mapIS4_S7_St4lessIS4_ESaIS8_EEEE18_M_dereferenceableEv@Base 2.3.0~svn544
 _ZNK11__gnu_debug14_Safe_iteratorISt23_Rb_tree_const_iteratorISt4pairIKN7blocxx86StringENS3_13SSLTrustStore8UserInfoEEENSt7__debug3mapIS4_S7_St4lessIS4_ESaIS8_EEEE18_M_is_before_beginEv@Base 2.3.0~svn544
 _ZNK11__gnu_debug14_Safe_iteratorISt23_Rb_tree_const_iteratorISt4pairIKN7blocxx86StringENS3_13SSLTrustStore8UserInfoEEENSt7__debug3mapIS4_S7_St4lessIS4_ESaIS8_EEEE4baseEv@Base 2.3.0~svn544
 _ZNK11__gnu_debug14_Safe_iteratorISt23_Rb_tree_const_iteratorISt4pairIKN7blocxx86StringENS3_13SSLTrustStore8UserInfoEEENSt7__debug3mapIS4_S7_St4lessIS4_ESaIS8_EEEE9_M_is_endEv@Base 2.3.0~svn544
 _ZNK11__gnu_debug14_Safe_iteratorISt23_Rb_tree_const_iteratorISt4pairIKN7blocxx86StringENS3_13SSLTrustStore8UserInfoEEENSt7__debug3mapIS4_S7_St4lessIS4_ESaIS8_EEEEptEv@Base 2.3.0~svn544
 _ZNK11__gnu_debug14_Safe_iteratorISt23_Rb_tree_const_iteratorISt4pairIKN7blocxx86StringES4_EENSt7__debug3mapIS4_S4_St4lessIS4_ESaIS6_EEEE11_M_constantEv@Base 2.3.0~svn544
 _ZNK11__gnu_debug14_Safe_iteratorISt23_Rb_tree_const_iteratorISt4pairIKN7blocxx86StringES4_EENSt7__debug3mapIS4_S4_St4lessIS4_ESaIS6_EEEE11_M_is_beginEv@Base 2.3.0~svn544
 _ZNK11__gnu_debug14_Safe_iteratorISt23_Rb_tree_const_iteratorISt4pairIKN7blocxx86StringES4_EENSt7__debug3mapIS4_S4_St4lessIS4_ESaIS6_EEEE15_M_get_sequenceEv@Base 2.3.0~svn544
 _ZNK11__gnu_debug14_Safe_iteratorISt23_Rb_tree_const_iteratorISt4pairIKN7blocxx86StringES4_EENSt7__debug3mapIS4_S4_St4lessIS4_ESaIS6_EEEE16_M_incrementableEv@Base 2.3.0~svn544
 _ZNK11__gnu_debug14_Safe_iteratorISt23_Rb_tree_const_iteratorISt4pairIKN7blocxx86StringES4_EENSt7__debug3mapIS4_S4_St4lessIS4_ESaIS6_EEEE18_M_dereferenceableEv@Base 2.3.0~svn544
 _ZNK11__gnu_debug14_Safe_iteratorISt23_Rb_tree_const_iteratorISt4pairIKN7blocxx86StringES4_EENSt7__debug3mapIS4_S4_St4lessIS4_ESaIS6_EEEE18_M_is_before_beginEv@Base 2.3.0~svn544
 _ZNK11__gnu_debug14_Safe_iteratorISt23_Rb_tree_const_iteratorISt4pairIKN7blocxx86StringES4_EENSt7__debug3mapIS4_S4_St4lessIS4_ESaIS6_EEEE4baseEv@Base 2.3.0~svn544
 _ZNK11__gnu_debug14_Safe_iteratorISt23_Rb_tree_const_iteratorISt4pairIKN7blocxx86StringES4_EENSt7__debug3mapIS4_S4_St4lessIS4_ESaIS6_EEEE9_M_is_endEv@Base 2.3.0~svn544
 _ZNK11__gnu_debug14_Safe_iteratorISt23_Rb_tree_const_iteratorISt4pairIKN7blocxx86StringES4_EENSt7__debug3mapIS4_S4_St4lessIS4_ESaIS6_EEEEptEv@Base 2.3.0~svn544
 _ZNK11__gnu_debug14_Safe_iteratorISt23_Rb_tree_const_iteratorISt4pairIKmN7blocxx817GenericRWLockImplImNS4_8RWLocker14ThreadComparerEE10LockerInfoEEENSt7__debug3mapImS9_S7_SaISA_EEEE11_M_constantEv@Base 2.3.0~svn544
 _ZNK11__gnu_debug14_Safe_iteratorISt23_Rb_tree_const_iteratorISt4pairIKmN7blocxx817GenericRWLockImplImNS4_8RWLocker14ThreadComparerEE10LockerInfoEEENSt7__debug3mapImS9_S7_SaISA_EEEE11_M_is_beginEv@Base 2.3.0~svn544
 _ZNK11__gnu_debug14_Safe_iteratorISt23_Rb_tree_const_iteratorISt4pairIKmN7blocxx817GenericRWLockImplImNS4_8RWLocker14ThreadComparerEE10LockerInfoEEENSt7__debug3mapImS9_S7_SaISA_EEEE15_M_get_sequenceEv@Base 2.3.0~svn544
 _ZNK11__gnu_debug14_Safe_iteratorISt23_Rb_tree_const_iteratorISt4pairIKmN7blocxx817GenericRWLockImplImNS4_8RWLocker14ThreadComparerEE10LockerInfoEEENSt7__debug3mapImS9_S7_SaISA_EEEE18_M_dereferenceableEv@Base 2.3.0~svn544
 _ZNK11__gnu_debug14_Safe_iteratorISt23_Rb_tree_const_iteratorISt4pairIKmN7blocxx817GenericRWLockImplImNS4_8RWLocker14ThreadComparerEE10LockerInfoEEENSt7__debug3mapImS9_S7_SaISA_EEEE18_M_is_before_beginEv@Base 2.3.0~svn544
 _ZNK11__gnu_debug14_Safe_iteratorISt23_Rb_tree_const_iteratorISt4pairIKmN7blocxx817GenericRWLockImplImNS4_8RWLocker14ThreadComparerEE10LockerInfoEEENSt7__debug3mapImS9_S7_SaISA_EEEE4baseEv@Base 2.3.0~svn544
 _ZNK11__gnu_debug14_Safe_iteratorISt23_Rb_tree_const_iteratorISt4pairIKmN7blocxx817GenericRWLockImplImNS4_8RWLocker14ThreadComparerEE10LockerInfoEEENSt7__debug3mapImS9_S7_SaISA_EEEE9_M_is_endEv@Base 2.3.0~svn544
 _ZNK11__gnu_debug15_After_nth_fromIN9__gnu_cxx17__normal_iteratorIPK10regmatch_tNSt9__cxx19986vectorIS3_SaIS3_EEEEEEclERKSA_@Base 2.3.0~svn544
 _ZNK11__gnu_debug15_After_nth_fromIN9__gnu_cxx17__normal_iteratorIPKN7blocxx818IntrusiveReferenceINS3_6ThreadEEENSt9__cxx19986vectorIS6_SaIS6_EEEEEEclERKSD_@Base 2.3.0~svn544
 _ZNK11__gnu_debug15_After_nth_fromIN9__gnu_cxx17__normal_iteratorIPKN7blocxx86StringENSt9__cxx19986vectorIS4_SaIS4_EEEEEEclERKSB_@Base 2.3.0~svn544
 _ZNK11__gnu_debug15_After_nth_fromIN9__gnu_cxx17__normal_iteratorIPKN7blocxx89PerlRegEx7match_tENSt9__cxx19986vectorIS5_SaIS5_EEEEEEclERKSC_@Base 2.3.0~svn544
 _ZNK11__gnu_debug15_After_nth_fromIN9__gnu_cxx17__normal_iteratorIPKSt4pairIiN7blocxx812SelectEngine4DataEENSt9__cxx19986vectorIS7_SaIS7_EEEEEEclERKSE_@Base 2.3.0~svn544
 _ZNK11__gnu_debug15_After_nth_fromIN9__gnu_cxx17__normal_iteratorIPKSt4pairIiN7blocxx85ArrayINS4_6StringEEEENSt9__cxx19986vectorIS8_SaIS8_EEEEEEclERKSF_@Base 2.3.0~svn544
 _ZNK11__gnu_debug15_After_nth_fromIN9__gnu_cxx17__normal_iteratorIPKcNSt9__cxx19986vectorIcSaIcEEEEEEclERKS9_@Base 2.3.0~svn544
 _ZNK11__gnu_debug15_After_nth_fromIN9__gnu_cxx17__normal_iteratorIPKhNSt9__cxx19986vectorIhSaIhEEEEEEclERKS9_@Base 2.3.0~svn544
 _ZNK11__gnu_debug15_After_nth_fromIN9__gnu_cxx17__normal_iteratorIPKiNSt9__cxx19986vectorIiSaIiEEEEEEclERKS9_@Base 2.3.0~svn544
 _ZNK11__gnu_debug16_Error_formatter10_M_integerElPKc@Base 2.3.0~svn544
 _ZNK11__gnu_debug16_Error_formatter11_M_iteratorIN9__gnu_cxx17__normal_iteratorIPK10regmatch_tNSt9__cxx19986vectorIS4_SaIS4_EEEEEEERKS0_RKT_PKc@Base 2.3.0~svn544
 _ZNK11__gnu_debug16_Error_formatter11_M_iteratorIN9__gnu_cxx17__normal_iteratorIPKN7blocxx89PerlRegEx7match_tENSt9__cxx19986vectorIS6_SaIS6_EEEEEEERKS0_RKT_PKc@Base 2.3.0~svn544
 _ZNK11__gnu_debug16_Error_formatter11_M_iteratorIN9__gnu_cxx17__normal_iteratorIPKPKcNSt9__cxx19986vectorIS5_SaIS5_EEEEEEERKS0_RKT_S5_@Base 2.3.0~svn544
 _ZNK11__gnu_debug16_Error_formatter11_M_iteratorIN9__gnu_cxx17__normal_iteratorIPKcNSt9__cxx19986vectorIcSaIcEEEEEEERKS0_RKT_S5_@Base 2.3.0~svn544
 _ZNK11__gnu_debug16_Error_formatter11_M_iteratorIN9__gnu_cxx17__normal_iteratorIPKiNSt9__cxx19986vectorIiSaIiEEEEEEERKS0_RKT_PKc@Base 2.3.0~svn544
 _ZNK11__gnu_debug16_Error_formatter11_M_iteratorIN9__gnu_cxx17__normal_iteratorIPKtNSt9__cxx19986vectorItSaItEEEEEEERKS0_RKT_PKc@Base 2.3.0~svn544
 _ZNK11__gnu_debug16_Error_formatter11_M_iteratorIN9__gnu_cxx17__normal_iteratorIPN7blocxx818IntrusiveReferenceINS4_6ThreadEEENSt9__cxx19986vectorIS7_SaIS7_EEEEEEERKS0_RKT_PKc@Base 2.3.0~svn544
 _ZNK11__gnu_debug16_Error_formatter11_M_iteratorIN9__gnu_cxx17__normal_iteratorIPN7blocxx86StringENSt9__cxx19986vectorIS5_SaIS5_EEEEEEERKS0_RKT_PKc@Base 2.3.0~svn544
 _ZNK11__gnu_debug16_Error_formatter11_M_iteratorIN9__gnu_cxx17__normal_iteratorIPSt4pairIiN7blocxx812SelectEngine4DataEENSt9__cxx19986vectorIS8_SaIS8_EEEEEEERKS0_RKT_PKc@Base 2.3.0~svn544
 _ZNK11__gnu_debug16_Error_formatter11_M_iteratorIN9__gnu_cxx17__normal_iteratorIPcNSt9__cxx19986vectorIcSaIcEEEEEEERKS0_RKT_PKc@Base 2.3.0~svn544
 _ZNK11__gnu_debug16_Error_formatter11_M_iteratorINS_14_Safe_iteratorIN9__gnu_cxx17__normal_iteratorIP10regmatch_tNSt9__cxx19986vectorIS5_SaIS5_EEEEENSt7__debug6vectorIS5_S9_EEEEEERKS0_RKT_PKc@Base 2.3.0~svn544
 _ZNK11__gnu_debug16_Error_formatter11_M_iteratorINS_14_Safe_iteratorIN9__gnu_cxx17__normal_iteratorIPK10regmatch_tNSt9__cxx19986vectorIS5_SaIS5_EEEEENSt7__debug6vectorIS5_SA_EEEEEERKS0_RKT_PKc@Base 2.3.0~svn544
 _ZNK11__gnu_debug16_Error_formatter11_M_iteratorINS_14_Safe_iteratorIN9__gnu_cxx17__normal_iteratorIPKN7blocxx818IntrusiveReferenceINS5_16ParserOptionImplEEENSt9__cxx19986vectorIS8_SaIS8_EEEEENSt7__debug6vectorIS8_SD_EEEEEERKS0_RKT_PKc@Base 2.3.0~svn544
 _ZNK11__gnu_debug16_Error_formatter11_M_iteratorINS_14_Safe_iteratorIN9__gnu_cxx17__normal_iteratorIPKN7blocxx818IntrusiveReferenceINS5_26LogMessagePatternFormatter9ConverterEEENSt9__cxx19986vectorIS9_SaIS9_EEEEENSt7__debug6vectorIS9_SE_EEEEEERKS0_RKT_PKc@Base 2.3.0~svn544
 _ZNK11__gnu_debug16_Error_formatter11_M_iteratorINS_14_Safe_iteratorIN9__gnu_cxx17__normal_iteratorIPKN7blocxx86StringENSt9__cxx19986vectorIS6_SaIS6_EEEEENSt7__debug6vectorIS6_SB_EEEEEERKS0_RKT_PKc@Base 2.3.0~svn544
 _ZNK11__gnu_debug16_Error_formatter11_M_iteratorINS_14_Safe_iteratorIN9__gnu_cxx17__normal_iteratorIPKN7blocxx89PerlRegEx7match_tENSt9__cxx19986vectorIS7_SaIS7_EEEEENSt7__debug6vectorIS7_SC_EEEEEERKS0_RKT_PKc@Base 2.3.0~svn544
 _ZNK11__gnu_debug16_Error_formatter11_M_iteratorINS_14_Safe_iteratorIN9__gnu_cxx17__normal_iteratorIPKSt4pairIN7blocxx86StringENS6_17EFileStatusReturnEENSt9__cxx19986vectorIS9_SaIS9_EEEEENSt7__debug6vectorIS9_SE_EEEEEERKS0_RKT_PKc@Base 2.3.0~svn544
 _ZNK11__gnu_debug16_Error_formatter11_M_iteratorINS_14_Safe_iteratorIN9__gnu_cxx17__normal_iteratorIPKSt4pairIN7blocxx86StringES7_ENSt9__cxx19986vectorIS8_SaIS8_EEEEENSt7__debug6vectorIS8_SD_EEEEEERKS0_RKT_PKc@Base 2.3.0~svn544
 _ZNK11__gnu_debug16_Error_formatter11_M_iteratorINS_14_Safe_iteratorIN9__gnu_cxx17__normal_iteratorIPKSt4pairIiN7blocxx812SelectEngine4DataEENSt9__cxx19986vectorIS9_SaIS9_EEEEENSt7__debug6vectorIS9_SE_EEEEEERKS0_RKT_PKc@Base 2.3.0~svn544
 _ZNK11__gnu_debug16_Error_formatter11_M_iteratorINS_14_Safe_iteratorIN9__gnu_cxx17__normal_iteratorIPKSt4pairIiN7blocxx85ArrayINS6_6StringEEEENSt9__cxx19986vectorISA_SaISA_EEEEENSt7__debug6vectorISA_SF_EEEEEERKS0_RKT_PKc@Base 2.3.0~svn544
 _ZNK11__gnu_debug16_Error_formatter11_M_iteratorINS_14_Safe_iteratorIN9__gnu_cxx17__normal_iteratorIPN7blocxx818IntrusiveReferenceINS5_16ParserOptionImplEEENSt9__cxx19986vectorIS8_SaIS8_EEEEENSt7__debug6vectorIS8_SC_EEEEEERKS0_RKT_PKc@Base 2.3.0~svn544
 _ZNK11__gnu_debug16_Error_formatter11_M_iteratorINS_14_Safe_iteratorIN9__gnu_cxx17__normal_iteratorIPN7blocxx818IntrusiveReferenceINS5_6ThreadEEENSt9__cxx19986vectorIS8_SaIS8_EEEEENSt7__debug6vectorIS8_SC_EEEEEERKS0_RKT_PKc@Base 2.3.0~svn544
 _ZNK11__gnu_debug16_Error_formatter11_M_iteratorINS_14_Safe_iteratorIN9__gnu_cxx17__normal_iteratorIPN7blocxx86StringENSt9__cxx19986vectorIS6_SaIS6_EEEEENSt7__debug6vectorIS6_SA_EEEEEERKS0_RKT_PKc@Base 2.3.0~svn544
 _ZNK11__gnu_debug16_Error_formatter11_M_iteratorINS_14_Safe_iteratorIN9__gnu_cxx17__normal_iteratorIPN7blocxx89PerlRegEx7match_tENSt9__cxx19986vectorIS7_SaIS7_EEEEENSt7__debug6vectorIS7_SB_EEEEEERKS0_RKT_PKc@Base 2.3.0~svn544
 _ZNK11__gnu_debug16_Error_formatter11_M_iteratorINS_14_Safe_iteratorIN9__gnu_cxx17__normal_iteratorIPSt4pairIiN7blocxx812SelectEngine4DataEENSt9__cxx19986vectorIS9_SaIS9_EEEEENSt7__debug6vectorIS9_SD_EEEEEERKS0_RKT_PKc@Base 2.3.0~svn544
 _ZNK11__gnu_debug16_Error_formatter11_M_iteratorINS_14_Safe_iteratorIN9__gnu_cxx17__normal_iteratorIPSt4pairIiN7blocxx85ArrayINS6_6StringEEEENSt9__cxx19986vectorISA_SaISA_EEEEENSt7__debug6vectorISA_SE_EEEEEERKS0_RKT_PKc@Base 2.3.0~svn544
 _ZNK11__gnu_debug16_Error_formatter11_M_iteratorINS_14_Safe_iteratorIN9__gnu_cxx17__normal_iteratorIPcNSt9__cxx19986vectorIcSaIcEEEEENSt7__debug6vectorIcS8_EEEEEERKS0_RKT_PKc@Base 2.3.0~svn544
 _ZNK11__gnu_debug16_Error_formatter11_M_iteratorINS_14_Safe_iteratorIN9__gnu_cxx17__normal_iteratorIPhNSt9__cxx19986vectorIhSaIhEEEEENSt7__debug6vectorIhS8_EEEEEERKS0_RKT_PKc@Base 2.3.0~svn544
 _ZNK11__gnu_debug16_Error_formatter11_M_iteratorINS_14_Safe_iteratorISt17_Rb_tree_iteratorISt4pairIKN7blocxx86StringENS5_13SSLTrustStore8UserInfoEEENSt7__debug3mapIS6_S9_St4lessIS6_ESaISA_EEEEEEERKS0_RKT_PKc@Base 2.3.0~svn544
 _ZNK11__gnu_debug16_Error_formatter11_M_iteratorINS_14_Safe_iteratorISt17_Rb_tree_iteratorISt4pairIKN7blocxx86StringES6_EENSt7__debug3mapIS6_S6_St4lessIS6_ESaIS8_EEEEEEERKS0_RKT_PKc@Base 2.3.0~svn544
 _ZNK11__gnu_debug16_Error_formatter11_M_iteratorINS_14_Safe_iteratorISt17_Rb_tree_iteratorISt4pairIKmN7blocxx817GenericRWLockImplImNS6_8RWLocker14ThreadComparerEE10LockerInfoEEENSt7__debug3mapImSB_S9_SaISC_EEEEEEERKS0_RKT_PKc@Base 2.3.0~svn544
 _ZNK11__gnu_debug16_Error_formatter11_M_iteratorINS_14_Safe_iteratorISt23_Rb_tree_const_iteratorISt4pairIKN7blocxx86StringENS5_13SSLTrustStore8UserInfoEEENSt7__debug3mapIS6_S9_St4lessIS6_ESaISA_EEEEEEERKS0_RKT_PKc@Base 2.3.0~svn544
 _ZNK11__gnu_debug16_Error_formatter11_M_iteratorINS_14_Safe_iteratorISt23_Rb_tree_const_iteratorISt4pairIKN7blocxx86StringES6_EENSt7__debug3mapIS6_S6_St4lessIS6_ESaIS8_EEEEEEERKS0_RKT_PKc@Base 2.3.0~svn544
 _ZNK11__gnu_debug16_Error_formatter11_M_iteratorINS_14_Safe_iteratorISt23_Rb_tree_const_iteratorISt4pairIKmN7blocxx817GenericRWLockImplImNS6_8RWLocker14ThreadComparerEE10LockerInfoEEENSt7__debug3mapImSB_S9_SaISC_EEEEEEERKS0_RKT_PKc@Base 2.3.0~svn544
 _ZNK11__gnu_debug16_Error_formatter11_M_iteratorIPKcEERKS0_RKT_S3_@Base 2.3.0~svn544
 _ZNK11__gnu_debug16_Error_formatter11_M_iteratorIPN7blocxx818IntrusiveReferenceINS2_11LogAppenderEEEEERKS0_RKT_PKc@Base 2.3.0~svn544
 _ZNK11__gnu_debug16_Error_formatter11_M_iteratorIPN7blocxx818IntrusiveReferenceINS2_16ParserOptionImplEEEEERKS0_RKT_PKc@Base 2.3.0~svn544
 _ZNK11__gnu_debug16_Error_formatter11_M_iteratorIPN7blocxx818IntrusiveReferenceINS2_26LogMessagePatternFormatter9ConverterEEEEERKS0_RKT_PKc@Base 2.3.0~svn544
 _ZNK11__gnu_debug16_Error_formatter11_M_iteratorIPN7blocxx818IntrusiveReferenceINS2_6ThreadEEEEERKS0_RKT_PKc@Base 2.3.0~svn544
 _ZNK11__gnu_debug16_Error_formatter11_M_iteratorIPN7blocxx818IntrusiveReferenceINS2_7ProcessEEEEERKS0_RKT_PKc@Base 2.3.0~svn544
 _ZNK11__gnu_debug16_Error_formatter11_M_iteratorIPN7blocxx86Select12SelectObjectEEERKS0_RKT_PKc@Base 2.3.0~svn544
 _ZNK11__gnu_debug16_Error_formatter11_M_iteratorIPN7blocxx86StringEEERKS0_RKT_PKc@Base 2.3.0~svn544
 _ZNK11__gnu_debug16_Error_formatter11_M_iteratorIPPKcEERKS0_RKT_S3_@Base 2.3.0~svn544
 _ZNK11__gnu_debug16_Error_formatter11_M_iteratorIPPN7blocxx818IntrusiveReferenceINS2_8RunnableEEEEERKS0_RKT_PKc@Base 2.3.0~svn544
 _ZNK11__gnu_debug16_Error_formatter11_M_iteratorIPPcEERKS0_RKT_PKc@Base 2.3.0~svn544
 _ZNK11__gnu_debug16_Error_formatter11_M_iteratorIPSt4pairIN7blocxx86StringENS3_17EFileStatusReturnEEEERKS0_RKT_PKc@Base 2.3.0~svn544
 _ZNK11__gnu_debug16_Error_formatter11_M_iteratorIPSt4pairIiN7blocxx812SelectEngine4DataEEEERKS0_RKT_PKc@Base 2.3.0~svn544
 _ZNK11__gnu_debug16_Error_formatter11_M_iteratorIPSt4pairIiN7blocxx85ArrayINS3_6StringEEEEEERKS0_RKT_PKc@Base 2.3.0~svn544
 _ZNK11__gnu_debug16_Error_formatter11_M_iteratorIPcEERKS0_RKT_PKc@Base 2.3.0~svn544
 _ZNK11__gnu_debug16_Error_formatter11_M_iteratorIPhEERKS0_RKT_PKc@Base 2.3.0~svn544
 _ZNK11__gnu_debug16_Error_formatter11_M_iteratorIPiEERKS0_RKT_PKc@Base 2.3.0~svn544
 _ZNK11__gnu_debug16_Error_formatter11_M_iteratorIPtEERKS0_RKT_PKc@Base 2.3.0~svn544
 _ZNK11__gnu_debug16_Error_formatter11_M_iteratorISt13move_iteratorIP10regmatch_tEEERKS0_RKT_PKc@Base 2.3.0~svn544
 _ZNK11__gnu_debug16_Error_formatter11_M_iteratorISt13move_iteratorIPN7blocxx89PerlRegEx7match_tEEEERKS0_RKT_PKc@Base 2.3.0~svn544
 _ZNK11__gnu_debug16_Error_formatter11_M_iteratorISt13move_iteratorIPPKcEEERKS0_RKT_S4_@Base 2.3.0~svn544
 _ZNK11__gnu_debug16_Error_formatter11_M_iteratorISt13move_iteratorIPcEEERKS0_RKT_PKc@Base 2.3.0~svn544
 _ZNK11__gnu_debug16_Error_formatter11_M_iteratorISt13move_iteratorIPhEEERKS0_RKT_PKc@Base 2.3.0~svn544
 _ZNK11__gnu_debug16_Error_formatter11_M_iteratorISt13move_iteratorIPiEEERKS0_RKT_PKc@Base 2.3.0~svn544
 _ZNK11__gnu_debug16_Error_formatter11_M_iteratorISt13move_iteratorIPtEEERKS0_RKT_PKc@Base 2.3.0~svn544
 _ZNK11__gnu_debug16_Error_formatter11_M_sequenceINSt7__debug3mapIN7blocxx86StringES5_St4lessIS5_ESaISt4pairIKS5_S5_EEEEEERKS0_RKT_PKc@Base 2.3.0~svn544
 _ZNK11__gnu_debug16_Error_formatter11_M_sequenceINSt7__debug3mapImN7blocxx817GenericRWLockImplImNS4_8RWLocker14ThreadComparerEE10LockerInfoES7_SaISt4pairIKmS9_EEEEEERKS0_RKT_PKc@Base 2.3.0~svn544
 _ZNK11__gnu_debug16_Error_formatter11_M_sequenceINSt7__debug5dequeIN7blocxx818IntrusiveReferenceINS4_8RunnableEEESaIS7_EEEEERKS0_RKT_PKc@Base 2.3.0~svn544
 _ZNK11__gnu_debug16_Error_formatter11_M_sequenceINSt7__debug6vectorI10regmatch_tSaIS4_EEEEERKS0_RKT_PKc@Base 2.3.0~svn544
 _ZNK11__gnu_debug16_Error_formatter11_M_sequenceINSt7__debug6vectorIN7blocxx818IntrusiveReferenceINS4_11LogAppenderEEESaIS7_EEEEERKS0_RKT_PKc@Base 2.3.0~svn544
 _ZNK11__gnu_debug16_Error_formatter11_M_sequenceINSt7__debug6vectorIN7blocxx818IntrusiveReferenceINS4_6ThreadEEESaIS7_EEEEERKS0_RKT_PKc@Base 2.3.0~svn544
 _ZNK11__gnu_debug16_Error_formatter11_M_sequenceINSt7__debug6vectorIN7blocxx818IntrusiveReferenceINS4_7ProcessEEESaIS7_EEEEERKS0_RKT_PKc@Base 2.3.0~svn544
 _ZNK11__gnu_debug16_Error_formatter11_M_sequenceINSt7__debug6vectorIN7blocxx85ArrayIcEESaIS6_EEEEERKS0_RKT_PKc@Base 2.3.0~svn544
 _ZNK11__gnu_debug16_Error_formatter11_M_sequenceINSt7__debug6vectorIN7blocxx86Select12SelectObjectESaIS6_EEEEERKS0_RKT_PKc@Base 2.3.0~svn544
 _ZNK11__gnu_debug16_Error_formatter11_M_sequenceINSt7__debug6vectorIN7blocxx86StringESaIS5_EEEEERKS0_RKT_PKc@Base 2.3.0~svn544
 _ZNK11__gnu_debug16_Error_formatter11_M_sequenceINSt7__debug6vectorIN7blocxx89PerlRegEx7match_tESaIS6_EEEEERKS0_RKT_PKc@Base 2.3.0~svn544
 _ZNK11__gnu_debug16_Error_formatter11_M_sequenceINSt7__debug6vectorIN7blocxx89ReferenceINS4_22DelayedFormatInternals26DelayedFormatReferenceBaseEEESaIS8_EEEEERKS0_RKT_PKc@Base 2.3.0~svn544
 _ZNK11__gnu_debug16_Error_formatter11_M_sequenceINSt7__debug6vectorIP7x509_stSaIS5_EEEEERKS0_RKT_PKc@Base 2.3.0~svn544
 _ZNK11__gnu_debug16_Error_formatter11_M_sequenceINSt7__debug6vectorIPKcSaIS5_EEEEERKS0_RKT_S5_@Base 2.3.0~svn544
 _ZNK11__gnu_debug16_Error_formatter11_M_sequenceINSt7__debug6vectorISt4pairIiN7blocxx812SelectEngine4DataEESaIS8_EEEEERKS0_RKT_PKc@Base 2.3.0~svn544
 _ZNK11__gnu_debug16_Error_formatter11_M_sequenceINSt7__debug6vectorISt4pairIiN7blocxx85ArrayINS5_6StringEEEESaIS9_EEEEERKS0_RKT_PKc@Base 2.3.0~svn544
 _ZNK11__gnu_debug16_Error_formatter11_M_sequenceINSt7__debug6vectorIbSaIbEEEEERKS0_RKT_PKc@Base 2.3.0~svn544
 _ZNK11__gnu_debug16_Error_formatter11_M_sequenceINSt7__debug6vectorIcSaIcEEEEERKS0_RKT_PKc@Base 2.3.0~svn544
 _ZNK11__gnu_debug16_Error_formatter11_M_sequenceINSt7__debug6vectorIhSaIhEEEEERKS0_RKT_PKc@Base 2.3.0~svn544
 _ZNK11__gnu_debug16_Error_formatter11_M_sequenceINSt7__debug6vectorIiSaIiEEEEERKS0_RKT_PKc@Base 2.3.0~svn544
 _ZNK11__gnu_debug16_Error_formatter11_M_sequenceINSt7__debug6vectorItSaItEEEEERKS0_RKT_PKc@Base 2.3.0~svn544
 _ZNK11__gnu_debug16_Error_formatter9_M_stringEPKcS2_@Base 2.3.0~svn544
 _ZNK11__gnu_debug19_Safe_iterator_base14_M_attached_toEPKNS_19_Safe_sequence_baseE@Base 2.3.0~svn544
 _ZNK11__gnu_debug19_Safe_sequence_base17_M_invalidate_allEv@Base 2.3.0~svn544
 _ZNK11__gnu_debug9_Equal_toIN9__gnu_cxx17__normal_iteratorIPKN7blocxx818IntrusiveReferenceINS3_6ThreadEEENSt9__cxx19986vectorIS6_SaIS6_EEEEEEclERKSD_@Base 2.3.0~svn544
 _ZNK11__gnu_debug9_Equal_toIN9__gnu_cxx17__normal_iteratorIPKcNSt9__cxx19986vectorIcSaIcEEEEEEclERKS9_@Base 2.3.0~svn544
 _ZNK11__gnu_debug9_Equal_toINSt9__cxx199815_Deque_iteratorIN7blocxx818IntrusiveReferenceINS3_8RunnableEEERKS6_PS7_EEEclERKSA_@Base 2.3.0~svn544
 _ZNK11__gnu_debug9_Equal_toISt23_Rb_tree_const_iteratorISt4pairIKN7blocxx86StringES4_EEEclERKS7_@Base 2.3.0~svn544
 _ZNK11__gnu_debug9_Equal_toISt23_Rb_tree_const_iteratorISt4pairIKmN7blocxx817GenericRWLockImplImNS4_8RWLocker14ThreadComparerEE10LockerInfoEEEEclERKSB_@Base 2.3.0~svn544
 _ZNK7blocxx810AutoPtrVecI10regmatch_tE3getEv@Base 2.3.0~svn544
 _ZNK7blocxx810AutoPtrVecI11epoll_eventE3getEv@Base 2.3.0~svn544
 _ZNK7blocxx810AutoPtrVecI6pollfdE3getEv@Base 2.3.0~svn544
 _ZNK7blocxx810AutoPtrVecIcE3getEv@Base 2.3.0~svn544
 _ZNK7blocxx810LazyGlobalINS_18IntrusiveReferenceINS_11UnnamedPipeEEEiNS_6Socket24ShutDownMechanismFactoryEE3getEv@Base 2.3.0~svn544
 _ZNK7blocxx810LazyGlobalINS_5ArrayINS_6StringEEEKPKcNS_29StringArrayConstructorFactoryEE3getEv@Base 2.3.0~svn544
 _ZNK7blocxx810LazyGlobalINS_5ArrayINS_6StringEEEKPKcNS_29StringArrayConstructorFactoryEEcvRKS3_Ev@Base 2.3.0~svn544
 _ZNK7blocxx810LazyGlobalINS_5MutexEiNS_33DefaultConstructedVariableFactoryIS1_EEE3getEv@Base 2.3.0~svn544
 _ZNK7blocxx810LazyGlobalINS_6StringEKPKcNS_33DefaultVariableConstructorFactoryIS1_S4_EEE3getEv@Base 2.3.0~svn544
 _ZNK7blocxx810LazyGlobalINS_6StringEKPKcNS_33DefaultVariableConstructorFactoryIS1_S4_EEEcvRKS1_Ev@Base 2.3.0~svn544
 _ZNK7blocxx810PosixRegEx10isCompiledEv@Base 2.3.0~svn544
 _ZNK7blocxx810PosixRegEx11errorStringEv@Base 2.3.0~svn544
 _ZNK7blocxx810PosixRegEx12compileFlagsEv@Base 2.3.0~svn544
 _ZNK7blocxx810PosixRegEx13patternStringEv@Base 2.3.0~svn544
 _ZNK7blocxx810PosixRegEx5matchERKNS_6StringEmi@Base 2.3.0~svn544
 _ZNK7blocxx810SSLCtxBase9getSSLCtxEv@Base 2.3.0~svn544
 _ZNK7blocxx810SocketImpl12getSelectObjEv@Base 2.3.0~svn544
 _ZNK7blocxx810StringJoin8toStringEv@Base 2.3.0~svn544
 _ZNK7blocxx810StringJoincvNS_6StringEEv@Base 2.3.0~svn544
 _ZNK7blocxx811IFileStream6isOpenEv@Base 2.3.0~svn544
 _ZNK7blocxx811IOException4typeEv@Base 2.3.0~svn544
 _ZNK7blocxx811IOException5cloneEv@Base 2.3.0~svn544
 _ZNK7blocxx811IOException7rethrowEv@Base 2.3.0~svn544
 _ZNK7blocxx811LogAppender10logMessageERKNS_10LogMessageE@Base 2.3.0~svn544
 _ZNK7blocxx811LogAppender11getLogLevelEv@Base 2.3.0~svn544
 _ZNK7blocxx811LogAppender17categoryIsEnabledERKNS_6StringE@Base 2.3.0~svn544
 _ZNK7blocxx811LogAppender30componentAndCategoryAreEnabledERKNS_6StringES3_@Base 2.3.0~svn544
 _ZNK7blocxx811SafeCString17OverflowException4typeEv@Base 2.3.0~svn544
 _ZNK7blocxx811SafeCString17OverflowException5cloneEv@Base 2.3.0~svn544
 _ZNK7blocxx811SafeCString17OverflowException7rethrowEv@Base 2.3.0~svn544
 _ZNK7blocxx812AutoResourceINS_20AutoDescriptorPolicyEE3getEv@Base 2.3.0~svn544
 _ZNK7blocxx812COWReferenceINSt7__debug3mapINS_6StringENS_13SSLTrustStore8UserInfoESt4lessIS3_ESaISt4pairIKS3_S5_EEEEEptEv@Base 2.3.0~svn544
 _ZNK7blocxx812COWReferenceINSt7__debug3mapINS_6StringES3_St4lessIS3_ESaISt4pairIKS3_S3_EEEEEptEv@Base 2.3.0~svn544
 _ZNK7blocxx812COWReferenceINSt7__debug6vectorI10regmatch_tSaIS3_EEEEptEv@Base 2.3.0~svn544
 _ZNK7blocxx812COWReferenceINSt7__debug6vectorINS_18IntrusiveReferenceINS_11LogAppenderEEESaIS5_EEEEptEv@Base 2.3.0~svn544
 _ZNK7blocxx812COWReferenceINSt7__debug6vectorINS_18IntrusiveReferenceINS_16ParserOptionImplEEESaIS5_EEEEptEv@Base 2.3.0~svn544
 _ZNK7blocxx812COWReferenceINSt7__debug6vectorINS_18IntrusiveReferenceINS_26LogMessagePatternFormatter9ConverterEEESaIS6_EEEEptEv@Base 2.3.0~svn544
 _ZNK7blocxx812COWReferenceINSt7__debug6vectorINS_18IntrusiveReferenceINS_6ThreadEEESaIS5_EEEEptEv@Base 2.3.0~svn544
 _ZNK7blocxx812COWReferenceINSt7__debug6vectorINS_18IntrusiveReferenceINS_7ProcessEEESaIS5_EEEEptEv@Base 2.3.0~svn544
 _ZNK7blocxx812COWReferenceINSt7__debug6vectorINS_5ArrayIcEESaIS4_EEEEptEv@Base 2.3.0~svn544
 _ZNK7blocxx812COWReferenceINSt7__debug6vectorINS_6Select12SelectObjectESaIS4_EEEEptEv@Base 2.3.0~svn544
 _ZNK7blocxx812COWReferenceINSt7__debug6vectorINS_6StringESaIS3_EEEEptEv@Base 2.3.0~svn544
 _ZNK7blocxx812COWReferenceINSt7__debug6vectorINS_9PerlRegEx7match_tESaIS4_EEEEptEv@Base 2.3.0~svn544
 _ZNK7blocxx812COWReferenceINSt7__debug6vectorINS_9ReferenceINS_22DelayedFormatInternals26DelayedFormatReferenceBaseEEESaIS6_EEEEptEv@Base 2.3.0~svn544
 _ZNK7blocxx812COWReferenceINSt7__debug6vectorIP7x509_stSaIS4_EEEEptEv@Base 2.3.0~svn544
 _ZNK7blocxx812COWReferenceINSt7__debug6vectorIPKcSaIS4_EEEEptEv@Base 2.3.0~svn544
 _ZNK7blocxx812COWReferenceINSt7__debug6vectorISt4pairINS_6StringENS_17EFileStatusReturnEESaIS6_EEEEptEv@Base 2.3.0~svn544
 _ZNK7blocxx812COWReferenceINSt7__debug6vectorISt4pairINS_6StringES4_ESaIS5_EEEEptEv@Base 2.3.0~svn544
 _ZNK7blocxx812COWReferenceINSt7__debug6vectorISt4pairIiNS_5ArrayINS_6StringEEEESaIS7_EEEEptEv@Base 2.3.0~svn544
 _ZNK7blocxx812COWReferenceINSt7__debug6vectorIcSaIcEEEEptEv@Base 2.3.0~svn544
 _ZNK7blocxx812COWReferenceINSt7__debug6vectorIiSaIiEEEEptEv@Base 2.3.0~svn544
 _ZNK7blocxx812COWReferenceINSt7__debug6vectorItSaItEEEEptEv@Base 2.3.0~svn544
 _ZNK7blocxx812CerrAppender19doProcessLogMessageERKNS_6StringERKNS_10LogMessageE@Base 2.3.0~svn544
 _ZNK7blocxx812FileAppender19doProcessLogMessageERKNS_6StringERKNS_10LogMessageE@Base 2.3.0~svn544
 _ZNK7blocxx812MD5Exception4typeEv@Base 2.3.0~svn544
 _ZNK7blocxx812MD5Exception5cloneEv@Base 2.3.0~svn544
 _ZNK7blocxx812MD5Exception7rethrowEv@Base 2.3.0~svn544
 _ZNK7blocxx812NullAppender19doProcessLogMessageERKNS_6StringERKNS_10LogMessageE@Base 2.3.0~svn544
 _ZNK7blocxx812SSLException4typeEv@Base 2.3.0~svn544
 _ZNK7blocxx812SSLException5cloneEv@Base 2.3.0~svn544
 _ZNK7blocxx812SSLException7rethrowEv@Base 2.3.0~svn544
 _ZNK7blocxx812ServerSocket12getSelectObjEv@Base 2.3.0~svn544
 _ZNK7blocxx812ServerSocket5getfdEv@Base 2.3.0~svn544
 _ZNK7blocxx812StringBuffer10startsWithEc@Base 2.3.0~svn544
 _ZNK7blocxx812StringBuffer5c_strEv@Base 2.3.0~svn544
 _ZNK7blocxx812StringBuffer6equalsEPKc@Base 2.3.0~svn544
 _ZNK7blocxx812StringBuffer6equalsERKS0_@Base 2.3.0~svn544
 _ZNK7blocxx812StringBuffer6lengthEv@Base 2.3.0~svn544
 _ZNK7blocxx812StringBuffer8endsWithEc@Base 2.3.0~svn544
 _ZNK7blocxx812StringBuffer8toStringEv@Base 2.3.0~svn544
 _ZNK7blocxx812StringBufferixEm@Base 2.3.0~svn544
 _ZNK7blocxx812TimeoutTimer10asTimespecER8timespec@Base 2.3.0~svn544
 _ZNK7blocxx812TimeoutTimer11calcSecondsEd@Base 2.3.0~svn544
 _ZNK7blocxx812TimeoutTimer11calcSecondsEv@Base 2.3.0~svn544
 _ZNK7blocxx812TimeoutTimer14getCurrentTimeEv@Base 2.3.0~svn544
 _ZNK7blocxx812TimeoutTimer17asAbsoluteTimeoutEv@Base 2.3.0~svn544
 _ZNK7blocxx812TimeoutTimer17asRelativeTimeoutEd@Base 2.3.0~svn544
 _ZNK7blocxx812TimeoutTimer17asRelativeTimeoutEv@Base 2.3.0~svn544
 _ZNK7blocxx812TimeoutTimer7asIntMsEd@Base 2.3.0~svn544
 _ZNK7blocxx812TimeoutTimer7asIntMsEv@Base 2.3.0~svn544
 _ZNK7blocxx812TimeoutTimer7expiredEv@Base 2.3.0~svn544
 _ZNK7blocxx812TimeoutTimer8infiniteEv@Base 2.3.0~svn544
 _ZNK7blocxx812TimeoutTimer9asTimeoutEv@Base 2.3.0~svn544
 _ZNK7blocxx812TimeoutTimer9asTimevalER7timeval@Base 2.3.0~svn544
 _ZNK7blocxx812TimeoutTimer9asTimevalER7timevald@Base 2.3.0~svn544
 _ZNK7blocxx813CmdLineParser11getOptionIDERKNS_6StringE@Base 2.3.0~svn544
 _ZNK7blocxx813CmdLineParser14getOptionValueEiPKc@Base 2.3.0~svn544
 _ZNK7blocxx813CmdLineParser15getAllOptionIDsEv@Base 2.3.0~svn544
 _ZNK7blocxx813CmdLineParser15getNonOptionArgEm@Base 2.3.0~svn544
 _ZNK7blocxx813CmdLineParser16getNonOptionArgsEv@Base 2.3.0~svn544
 _ZNK7blocxx813CmdLineParser17getLongOptionByIDEi@Base 2.3.0~svn544
 _ZNK7blocxx813CmdLineParser17getNonOptionCountEv@Base 2.3.0~svn544
 _ZNK7blocxx813CmdLineParser18getDescriptionByIDEi@Base 2.3.0~svn544
 _ZNK7blocxx813CmdLineParser18getOptionValueListEi@Base 2.3.0~svn544
 _ZNK7blocxx813CmdLineParser18getShortOptionByIDEi@Base 2.3.0~svn544
 _ZNK7blocxx813CmdLineParser18mustGetOptionValueEiPKc@Base 2.3.0~svn544
 _ZNK7blocxx813CmdLineParser20verifyOptionValidityERKNS_18IntrusiveReferenceINS_16ParserOptionImplEEE@Base 2.3.0~svn544
 _ZNK7blocxx813CmdLineParser22mustGetOptionValueListEiPKc@Base 2.3.0~svn544
 _ZNK7blocxx813CmdLineParser5isSetERKNS_6StringE@Base 2.3.0~svn544
 _ZNK7blocxx813CmdLineParser5isSetEi@Base 2.3.0~svn544
 _ZNK7blocxx813CmdLineParser8getUsageEjNS0_20EUsageVisibilityFlagE@Base 2.3.0~svn544
 _ZNK7blocxx813DelayedFormat16formatWithStringEPKc@Base 2.3.0~svn544
 _ZNK7blocxx813DelayedFormat16formatWithStringERKNS_6StringE@Base 2.3.0~svn544
 _ZNK7blocxx813DelayedFormat6formatEv@Base 2.3.0~svn544
 _ZNK7blocxx813DelayedFormatcvNS_6StringEEv@Base 2.3.0~svn544
 _ZNK7blocxx813MultiAppender19doProcessLogMessageERKNS_6StringERKNS_10LogMessageE@Base 2.3.0~svn544
 _ZNK7blocxx813OStringStream5c_strEv@Base 2.3.0~svn544
 _ZNK7blocxx813OStringStream6lengthEv@Base 2.3.0~svn544
 _ZNK7blocxx813OStringStream8toStringEv@Base 2.3.0~svn544
 _ZNK7blocxx813SSLSocketImpl11isConnectedEv@Base 2.3.0~svn544
 _ZNK7blocxx813SSLSocketImpl12getSelectObjEv@Base 2.3.0~svn544
 _ZNK7blocxx813SSLSocketImpl16peerCertVerifiedEv@Base 2.3.0~svn544
 _ZNK7blocxx813SSLSocketImpl6getSSLEv@Base 2.3.0~svn544
 _ZNK7blocxx813SocketAddress10getAddressEv@Base 2.3.0~svn544
 _ZNK7blocxx813SocketAddress13getNativeFormEv@Base 2.3.0~svn544
 _ZNK7blocxx813SocketAddress14getInetAddressEv@Base 2.3.0~svn544
 _ZNK7blocxx813SocketAddress14getUnixAddressEv@Base 2.3.0~svn544
 _ZNK7blocxx813SocketAddress17getNativeFormSizeEv@Base 2.3.0~svn544
 _ZNK7blocxx813SocketAddress7getNameEv@Base 2.3.0~svn544
 _ZNK7blocxx813SocketAddress7getPortEv@Base 2.3.0~svn544
 _ZNK7blocxx813SocketAddress7getTypeEv@Base 2.3.0~svn544
 _ZNK7blocxx813SocketAddress8toStringEv@Base 2.3.0~svn544
 _ZNK7blocxx813UUIDException4typeEv@Base 2.3.0~svn544
 _ZNK7blocxx813UUIDException5cloneEv@Base 2.3.0~svn544
 _ZNK7blocxx813UUIDException7rethrowEv@Base 2.3.0~svn544
 _ZNK7blocxx814SocketBaseImpl11isConnectedEv@Base 2.3.0~svn544
 _ZNK7blocxx814SocketBaseImpl12getSelectObjEv@Base 2.3.0~svn544
 _ZNK7blocxx814SocketBaseImpl14getPeerAddressEv@Base 2.3.0~svn544
 _ZNK7blocxx814SocketBaseImpl5getfdEv@Base 2.3.0~svn544
 _ZNK7blocxx814SyslogAppender19doProcessLogMessageERKNS_6StringERKNS_10LogMessageE@Base 2.3.0~svn544
 _ZNK7blocxx814TempFileBuffer13usingTempFileEv@Base 2.3.0~svn544
 _ZNK7blocxx814TempFileStream13usingTempFileEv@Base 2.3.0~svn544
 _ZNK7blocxx815ExceptionDetail9FormatMsg3getEv@Base 2.3.0~svn544
 _ZNK7blocxx815FormatException4typeEv@Base 2.3.0~svn544
 _ZNK7blocxx815FormatException5cloneEv@Base 2.3.0~svn544
 _ZNK7blocxx815FormatException7rethrowEv@Base 2.3.0~svn544
 _ZNK7blocxx815LoggerException4typeEv@Base 2.3.0~svn544
 _ZNK7blocxx815LoggerException5cloneEv@Base 2.3.0~svn544
 _ZNK7blocxx815LoggerException7rethrowEv@Base 2.3.0~svn544
 _ZNK7blocxx815SelectException4typeEv@Base 2.3.0~svn544
 _ZNK7blocxx815SelectException5cloneEv@Base 2.3.0~svn544
 _ZNK7blocxx815SelectException7rethrowEv@Base 2.3.0~svn544
 _ZNK7blocxx815SocketException4typeEv@Base 2.3.0~svn544
 _ZNK7blocxx815SocketException5cloneEv@Base 2.3.0~svn544
 _ZNK7blocxx815SocketException7rethrowEv@Base 2.3.0~svn544
 _ZNK7blocxx815SortedVectorMapINS_6StringES1_NS_26SortedVectorMapDataCompareIS1_S1_St4lessIS1_EEEE3endEv@Base 2.3.0~svn544
 _ZNK7blocxx815SortedVectorMapINS_6StringES1_NS_26SortedVectorMapDataCompareIS1_S1_St4lessIS1_EEEE4findERKS1_@Base 2.3.0~svn544
 _ZNK7blocxx815SortedVectorMapIiNS_5ArrayINS_6StringEEENS_26SortedVectorMapDataCompareIiS3_St4lessIiEEEE3endEv@Base 2.3.0~svn544
 _ZNK7blocxx815SortedVectorMapIiNS_5ArrayINS_6StringEEENS_26SortedVectorMapDataCompareIiS3_St4lessIiEEEE4findERKi@Base 2.3.0~svn544
 _ZNK7blocxx815SortedVectorMapIiNS_5ArrayINS_6StringEEENS_26SortedVectorMapDataCompareIiS3_St4lessIiEEEE5countERKi@Base 2.3.0~svn544
 _ZNK7blocxx815SortedVectorSetINS_6StringESt4lessIS1_EE4sizeEv@Base 2.3.0~svn544
 _ZNK7blocxx815SortedVectorSetINS_6StringESt4lessIS1_EE5countERKS1_@Base 2.3.0~svn544
 _ZNK7blocxx815ThreadException4typeEv@Base 2.3.0~svn544
 _ZNK7blocxx815ThreadException5cloneEv@Base 2.3.0~svn544
 _ZNK7blocxx815ThreadException7rethrowEv@Base 2.3.0~svn544
 _ZNK7blocxx815dlSharedLibrary20doGetFunctionPointerERKNS_6StringEPPv@Base 2.3.0~svn544
 _ZNK7blocxx816COWReferenceBase22refCountGreaterThanOneEv@Base 2.3.0~svn544
 _ZNK7blocxx816OStringStreamBuf5c_strEv@Base 2.3.0~svn544
 _ZNK7blocxx816OStringStreamBuf6lengthEv@Base 2.3.0~svn544
 _ZNK7blocxx816OStringStreamBuf8toStringEv@Base 2.3.0~svn544
 _ZNK7blocxx816PosixUnnamedPipe14getInputHandleEv@Base 2.3.0~svn544
 _ZNK7blocxx816PosixUnnamedPipe15getOutputHandleEv@Base 2.3.0~svn544
 _ZNK7blocxx816PosixUnnamedPipe15getReadBlockingEv@Base 2.3.0~svn544
 _ZNK7blocxx816PosixUnnamedPipe16getReadSelectObjEv@Base 2.3.0~svn544
 _ZNK7blocxx816PosixUnnamedPipe16getWriteBlockingEv@Base 2.3.0~svn544
 _ZNK7blocxx816PosixUnnamedPipe17getWriteSelectObjEv@Base 2.3.0~svn544
 _ZNK7blocxx816PosixUnnamedPipe18getInputDescriptorEv@Base 2.3.0~svn544
 _ZNK7blocxx816PosixUnnamedPipe19getOutputDescriptorEv@Base 2.3.0~svn544
 _ZNK7blocxx816PosixUnnamedPipe6isOpenEv@Base 2.3.0~svn544
 _ZNK7blocxx816ServerSocketImpl12getSelectObjEv@Base 2.3.0~svn544
 _ZNK7blocxx816ServerSocketImpl5getfdEv@Base 2.3.0~svn544
 _ZNK7blocxx816TimeoutException4typeEv@Base 2.3.0~svn544
 _ZNK7blocxx816TimeoutException5cloneEv@Base 2.3.0~svn544
 _ZNK7blocxx816TimeoutException7rethrowEv@Base 2.3.0~svn544
 _ZNK7blocxx817DateTimeException4typeEv@Base 2.3.0~svn544
 _ZNK7blocxx817DateTimeException5cloneEv@Base 2.3.0~svn544
 _ZNK7blocxx817DateTimeException7rethrowEv@Base 2.3.0~svn544
 _ZNK7blocxx817DeadlockException4typeEv@Base 2.3.0~svn544
 _ZNK7blocxx817DeadlockException5cloneEv@Base 2.3.0~svn544
 _ZNK7blocxx817DeadlockException7rethrowEv@Base 2.3.0~svn544
 _ZNK7blocxx817GenericRWLockImplImNS_8RWLocker14ThreadComparerEE10LockerInfo8isReaderEv@Base 2.3.0~svn544
 _ZNK7blocxx817GenericRWLockImplImNS_8RWLocker14ThreadComparerEE10LockerInfo8isWriterEv@Base 2.3.0~svn544
 _ZNK7blocxx817RWLockerException4typeEv@Base 2.3.0~svn544
 _ZNK7blocxx817RWLockerException5cloneEv@Base 2.3.0~svn544
 _ZNK7blocxx817RWLockerException7rethrowEv@Base 2.3.0~svn544
 _ZNK7blocxx817ThreadSafeProcess2inEv@Base 2.3.0~svn544
 _ZNK7blocxx817ThreadSafeProcess3errEv@Base 2.3.0~svn544
 _ZNK7blocxx817ThreadSafeProcess3outEv@Base 2.3.0~svn544
 _ZNK7blocxx817ThreadSafeProcess3pidEv@Base 2.3.0~svn544
 _ZNK7blocxx818AssertionException4typeEv@Base 2.3.0~svn544
 _ZNK7blocxx818AssertionException5cloneEv@Base 2.3.0~svn544
 _ZNK7blocxx818AssertionException7rethrowEv@Base 2.3.0~svn544
 _ZNK7blocxx818ExecErrorException4typeEv@Base 2.3.0~svn544
 _ZNK7blocxx818ExecErrorException5cloneEv@Base 2.3.0~svn544
 _ZNK7blocxx818ExecErrorException7rethrowEv@Base 2.3.0~svn544
 _ZNK7blocxx818IntrusiveReferenceINS_11LogAppenderEE7cast_toINS_13MultiAppenderEEENS0_IT_EEv@Base 2.3.0~svn544
 _ZNK7blocxx818IntrusiveReferenceINS_11LogAppenderEEcvMS2_PS1_Ev@Base 2.3.0~svn544
 _ZNK7blocxx818IntrusiveReferenceINS_11LogAppenderEEptEv@Base 2.3.0~svn544
 _ZNK7blocxx818IntrusiveReferenceINS_11ProcessImplEEptEv@Base 2.3.0~svn544
 _ZNK7blocxx818IntrusiveReferenceINS_11UnnamedPipeEE6getPtrEv@Base 2.3.0~svn544
 _ZNK7blocxx818IntrusiveReferenceINS_11UnnamedPipeEE7cast_toINS_16PosixUnnamedPipeEEENS0_IT_EEv@Base 2.3.0~svn544
 _ZNK7blocxx818IntrusiveReferenceINS_11UnnamedPipeEEcvMS2_PS1_Ev@Base 2.3.0~svn544
 _ZNK7blocxx818IntrusiveReferenceINS_11UnnamedPipeEEntEv@Base 2.3.0~svn544
 _ZNK7blocxx818IntrusiveReferenceINS_11UnnamedPipeEEptEv@Base 2.3.0~svn544
 _ZNK7blocxx818IntrusiveReferenceINS_12SSLClientCtxEEcvMS2_PS1_Ev@Base 2.3.0~svn544
 _ZNK7blocxx818IntrusiveReferenceINS_12SSLClientCtxEEntEv@Base 2.3.0~svn544
 _ZNK7blocxx818IntrusiveReferenceINS_12SSLClientCtxEEptEv@Base 2.3.0~svn544
 _ZNK7blocxx818IntrusiveReferenceINS_12SSLServerCtxEEcvMS2_PS1_Ev@Base 2.3.0~svn544
 _ZNK7blocxx818IntrusiveReferenceINS_12SSLServerCtxEEntEv@Base 2.3.0~svn544
 _ZNK7blocxx818IntrusiveReferenceINS_12SSLServerCtxEEptEv@Base 2.3.0~svn544
 _ZNK7blocxx818IntrusiveReferenceINS_13MultiAppenderEEntEv@Base 2.3.0~svn544
 _ZNK7blocxx818IntrusiveReferenceINS_13MultiAppenderEEptEv@Base 2.3.0~svn544
 _ZNK7blocxx818IntrusiveReferenceINS_13SSLSocketImplEEntEv@Base 2.3.0~svn544
 _ZNK7blocxx818IntrusiveReferenceINS_13SSLSocketImplEEptEv@Base 2.3.0~svn544
 _ZNK7blocxx818IntrusiveReferenceINS_13ThreadCounterEEptEv@Base 2.3.0~svn544
 _ZNK7blocxx818IntrusiveReferenceINS_14SocketBaseImplEE7cast_toINS_13SSLSocketImplEEENS0_IT_EEv@Base 2.3.0~svn544
 _ZNK7blocxx818IntrusiveReferenceINS_14SocketBaseImplEEptEv@Base 2.3.0~svn544
 _ZNK7blocxx818IntrusiveReferenceINS_14ThreadPoolImplEEptEv@Base 2.3.0~svn544
 _ZNK7blocxx818IntrusiveReferenceINS_16ParserOptionImplEEptEv@Base 2.3.0~svn544
 _ZNK7blocxx818IntrusiveReferenceINS_16PosixUnnamedPipeEEntEv@Base 2.3.0~svn544
 _ZNK7blocxx818IntrusiveReferenceINS_16PosixUnnamedPipeEEptEv@Base 2.3.0~svn544
 _ZNK7blocxx818IntrusiveReferenceINS_16ServerSocketImplEEptEv@Base 2.3.0~svn544
 _ZNK7blocxx818IntrusiveReferenceINS_17ThreadBarrierImplEEptEv@Base 2.3.0~svn544
 _ZNK7blocxx818IntrusiveReferenceINS_18ThreadDoneCallbackEEcvMS2_PS1_Ev@Base 2.3.0~svn544
 _ZNK7blocxx818IntrusiveReferenceINS_18ThreadDoneCallbackEEptEv@Base 2.3.0~svn544
 _ZNK7blocxx818IntrusiveReferenceINS_21SelectableCallbackIFCEEptEv@Base 2.3.0~svn544
 _ZNK7blocxx818IntrusiveReferenceINS_26LogMessagePatternFormatter9ConverterEEptEv@Base 2.3.0~svn544
 _ZNK7blocxx818IntrusiveReferenceINS_6ThreadEEptEv@Base 2.3.0~svn544
 _ZNK7blocxx818IntrusiveReferenceINS_7ProcessEEdeEv@Base 2.3.0~svn544
 _ZNK7blocxx818IntrusiveReferenceINS_7ProcessEEptEv@Base 2.3.0~svn544
 _ZNK7blocxx818IntrusiveReferenceINS_8RunnableEEcvMS2_PS1_Ev@Base 2.3.0~svn544
 _ZNK7blocxx818IntrusiveReferenceINS_8RunnableEEntEv@Base 2.3.0~svn544
 _ZNK7blocxx818IntrusiveReferenceINS_8RunnableEEptEv@Base 2.3.0~svn544
 _ZNK7blocxx818NULLValueException4typeEv@Base 2.3.0~svn544
 _ZNK7blocxx818NULLValueException5cloneEv@Base 2.3.0~svn544
 _ZNK7blocxx818NULLValueException7rethrowEv@Base 2.3.0~svn544
 _ZNK7blocxx819FileSystemException4typeEv@Base 2.3.0~svn544
 _ZNK7blocxx819FileSystemException5cloneEv@Base 2.3.0~svn544
 _ZNK7blocxx819FileSystemException7rethrowEv@Base 2.3.0~svn544
 _ZNK7blocxx819SecureRandException4typeEv@Base 2.3.0~svn544
 _ZNK7blocxx819SecureRandException5cloneEv@Base 2.3.0~svn544
 _ZNK7blocxx819SecureRandException7rethrowEv@Base 2.3.0~svn544
 _ZNK7blocxx819ThreadPoolException4typeEv@Base 2.3.0~svn544
 _ZNK7blocxx819ThreadPoolException5cloneEv@Base 2.3.0~svn544
 _ZNK7blocxx819ThreadPoolException7rethrowEv@Base 2.3.0~svn544
 _ZNK7blocxx820EnumerationException4typeEv@Base 2.3.0~svn544
 _ZNK7blocxx820EnumerationException5cloneEv@Base 2.3.0~svn544
 _ZNK7blocxx820EnumerationException7rethrowEv@Base 2.3.0~svn544
 _ZNK7blocxx820ExecTimeoutException4typeEv@Base 2.3.0~svn544
 _ZNK7blocxx820ExecTimeoutException5cloneEv@Base 2.3.0~svn544
 _ZNK7blocxx820ExecTimeoutException7rethrowEv@Base 2.3.0~svn544
 _ZNK7blocxx820InvalidUTF8Exception4typeEv@Base 2.3.0~svn544
 _ZNK7blocxx820InvalidUTF8Exception5cloneEv@Base 2.3.0~svn544
 _ZNK7blocxx820InvalidUTF8Exception7rethrowEv@Base 2.3.0~svn544
 _ZNK7blocxx820OutOfBoundsException4typeEv@Base 2.3.0~svn544
 _ZNK7blocxx820OutOfBoundsException5cloneEv@Base 2.3.0~svn544
 _ZNK7blocxx820OutOfBoundsException7rethrowEv@Base 2.3.0~svn544
 _ZNK7blocxx820UnknownHostException4typeEv@Base 2.3.0~svn544
 _ZNK7blocxx820UnknownHostException5cloneEv@Base 2.3.0~svn544
 _ZNK7blocxx820UnknownHostException7rethrowEv@Base 2.3.0~svn544
 _ZNK7blocxx820UnnamedPipeException4typeEv@Base 2.3.0~svn544
 _ZNK7blocxx820UnnamedPipeException5cloneEv@Base 2.3.0~svn544
 _ZNK7blocxx820UnnamedPipeException7rethrowEv@Base 2.3.0~svn544
 _ZNK7blocxx821BadSignatureException4typeEv@Base 2.3.0~svn544
 _ZNK7blocxx821BadSignatureException5cloneEv@Base 2.3.0~svn544
 _ZNK7blocxx821BadSignatureException7rethrowEv@Base 2.3.0~svn544
 _ZNK7blocxx821COWIntrusiveReferenceINS_6String7ByteBufEEcvMS3_PS2_Ev@Base 2.3.0~svn544
 _ZNK7blocxx821COWIntrusiveReferenceINS_6String7ByteBufEEntEv@Base 2.3.0~svn544
 _ZNK7blocxx821COWIntrusiveReferenceINS_6String7ByteBufEEptEv@Base 2.3.0~svn544
 _ZNK7blocxx821NonRecursiveMutexLock8isLockedEv@Base 2.3.0~svn544
 _ZNK7blocxx821ProcessErrorException4typeEv@Base 2.3.0~svn544
 _ZNK7blocxx821ProcessErrorException5cloneEv@Base 2.3.0~svn544
 _ZNK7blocxx821ProcessErrorException7rethrowEv@Base 2.3.0~svn544
 _ZNK7blocxx821RegExCompileException4typeEv@Base 2.3.0~svn544
 _ZNK7blocxx821RegExCompileException5cloneEv@Base 2.3.0~svn544
 _ZNK7blocxx821RegExCompileException7rethrowEv@Base 2.3.0~svn544
 _ZNK7blocxx821RegExExecuteException4typeEv@Base 2.3.0~svn544
 _ZNK7blocxx821RegExExecuteException5cloneEv@Base 2.3.0~svn544
 _ZNK7blocxx821RegExExecuteException7rethrowEv@Base 2.3.0~svn544
 _ZNK7blocxx821dlSharedLibraryLoader17loadSharedLibraryERKNS_6StringE@Base 2.3.0~svn544
 _ZNK7blocxx822CmdLineParserException4typeEv@Base 2.3.0~svn544
 _ZNK7blocxx822CmdLineParserException5cloneEv@Base 2.3.0~svn544
 _ZNK7blocxx822CmdLineParserException7rethrowEv@Base 2.3.0~svn544
 _ZNK7blocxx822ConditionLockException4typeEv@Base 2.3.0~svn544
 _ZNK7blocxx822ConditionLockException5cloneEv@Base 2.3.0~svn544
 _ZNK7blocxx822ConditionLockException7rethrowEv@Base 2.3.0~svn544
 _ZNK7blocxx822DelayedFormatInternals26DelayedFormatReferenceBase12dumpToStreamERSo@Base 2.3.0~svn544
 _ZNK7blocxx822NULLReferenceException4typeEv@Base 2.3.0~svn544
 _ZNK7blocxx822NULLReferenceException5cloneEv@Base 2.3.0~svn544
 _ZNK7blocxx822NULLReferenceException7rethrowEv@Base 2.3.0~svn544
 _ZNK7blocxx822SharedLibraryException4typeEv@Base 2.3.0~svn544
 _ZNK7blocxx822SharedLibraryException5cloneEv@Base 2.3.0~svn544
 _ZNK7blocxx822SharedLibraryException7rethrowEv@Base 2.3.0~svn544
 _ZNK7blocxx822SocketAddressException4typeEv@Base 2.3.0~svn544
 _ZNK7blocxx822SocketAddressException5cloneEv@Base 2.3.0~svn544
 _ZNK7blocxx822SocketAddressException7rethrowEv@Base 2.3.0~svn544
 _ZNK7blocxx822SocketTimeoutException4typeEv@Base 2.3.0~svn544
 _ZNK7blocxx822SocketTimeoutException5cloneEv@Base 2.3.0~svn544
 _ZNK7blocxx822SocketTimeoutException7rethrowEv@Base 2.3.0~svn544
 _ZNK7blocxx822ThreadBarrierException4typeEv@Base 2.3.0~svn544
 _ZNK7blocxx822ThreadBarrierException5cloneEv@Base 2.3.0~svn544
 _ZNK7blocxx822ThreadBarrierException7rethrowEv@Base 2.3.0~svn544
 _ZNK7blocxx823ExecBufferFullException4typeEv@Base 2.3.0~svn544
 _ZNK7blocxx823ExecBufferFullException5cloneEv@Base 2.3.0~svn544
 _ZNK7blocxx823ExecBufferFullException7rethrowEv@Base 2.3.0~svn544
 _ZNK7blocxx824MultiProcessFileAppender19doProcessLogMessageERKNS_6StringERKNS_10LogMessageE@Base 2.3.0~svn544
 _ZNK7blocxx825StringConversionException4typeEv@Base 2.3.0~svn544
 _ZNK7blocxx825StringConversionException5cloneEv@Base 2.3.0~svn544
 _ZNK7blocxx825StringConversionException7rethrowEv@Base 2.3.0~svn544
 _ZNK7blocxx826ConditionResourceException4typeEv@Base 2.3.0~svn544
 _ZNK7blocxx826ConditionResourceException5cloneEv@Base 2.3.0~svn544
 _ZNK7blocxx826ConditionResourceException7rethrowEv@Base 2.3.0~svn544
 _ZNK7blocxx826GenericRWLockImplException4typeEv@Base 2.3.0~svn544
 _ZNK7blocxx826GenericRWLockImplException5cloneEv@Base 2.3.0~svn544
 _ZNK7blocxx826GenericRWLockImplException7rethrowEv@Base 2.3.0~svn544
 _ZNK7blocxx826LogMessagePatternFormatter13formatMessageERKNS_10LogMessageERNS_12StringBufferE@Base 2.3.0~svn544
 _ZNK7blocxx826LogMessagePatternFormatter9Converter13formatMessageERKNS_10LogMessageERNS_12StringBufferE@Base 2.3.0~svn544
 _ZNK7blocxx826SortedVectorMapDataCompareINS_6StringES1_St4lessIS1_EE7keyLessERKS1_S6_@Base 2.3.0~svn544
 _ZNK7blocxx826SortedVectorMapDataCompareINS_6StringES1_St4lessIS1_EEclERKS1_S6_@Base 2.3.0~svn544
 _ZNK7blocxx826SortedVectorMapDataCompareINS_6StringES1_St4lessIS1_EEclERKSt4pairIS1_S1_ERKS1_@Base 2.3.0~svn544
 _ZNK7blocxx826SortedVectorMapDataCompareIiNS_12SelectEngine4DataESt4lessIiEE7keyLessERKiS7_@Base 2.3.0~svn544
 _ZNK7blocxx826SortedVectorMapDataCompareIiNS_12SelectEngine4DataESt4lessIiEEclERKSt4pairIiS2_ERKi@Base 2.3.0~svn544
 _ZNK7blocxx826SortedVectorMapDataCompareIiNS_12SelectEngine4DataESt4lessIiEEclERKSt4pairIiS2_ES9_@Base 2.3.0~svn544
 _ZNK7blocxx826SortedVectorMapDataCompareIiNS_12SelectEngine4DataESt4lessIiEEclERKiS7_@Base 2.3.0~svn544
 _ZNK7blocxx826SortedVectorMapDataCompareIiNS_5ArrayINS_6StringEEESt4lessIiEE7keyLessERKiS8_@Base 2.3.0~svn544
 _ZNK7blocxx826SortedVectorMapDataCompareIiNS_5ArrayINS_6StringEEESt4lessIiEEclERKSt4pairIiS3_ERKi@Base 2.3.0~svn544
 _ZNK7blocxx826SortedVectorMapDataCompareIiNS_5ArrayINS_6StringEEESt4lessIiEEclERKiRKSt4pairIiS3_E@Base 2.3.0~svn544
 _ZNK7blocxx826SortedVectorMapDataCompareIiNS_5ArrayINS_6StringEEESt4lessIiEEclERKiS8_@Base 2.3.0~svn544
 _ZNK7blocxx827CancellationDeniedException4typeEv@Base 2.3.0~svn544
 _ZNK7blocxx827CancellationDeniedException5cloneEv@Base 2.3.0~svn544
 _ZNK7blocxx827CancellationDeniedException7rethrowEv@Base 2.3.0~svn544
 _ZNK7blocxx827TempFileEnumerationImplBase12throwIfEmptyEv@Base 2.3.0~svn544
 _ZNK7blocxx827TempFileEnumerationImplBase13usingTempFileEv@Base 2.3.0~svn544
 _ZNK7blocxx827TempFileEnumerationImplBase15hasMoreElementsEv@Base 2.3.0~svn544
 _ZNK7blocxx827TempFileEnumerationImplBase16numberOfElementsEv@Base 2.3.0~svn544
 _ZNK7blocxx835LogMessagePatternFormatterException4typeEv@Base 2.3.0~svn544
 _ZNK7blocxx835LogMessagePatternFormatterException5cloneEv@Base 2.3.0~svn544
 _ZNK7blocxx835LogMessagePatternFormatterException7rethrowEv@Base 2.3.0~svn544
 _ZNK7blocxx836ExecMockObjectUnimplementedException4typeEv@Base 2.3.0~svn544
 _ZNK7blocxx836ExecMockObjectUnimplementedException5cloneEv@Base 2.3.0~svn544
 _ZNK7blocxx836ExecMockObjectUnimplementedException7rethrowEv@Base 2.3.0~svn544
 _ZNK7blocxx83MapINS_6StringENS_13SSLTrustStore8UserInfoESt4lessIS1_EE4sizeEv@Base 2.3.0~svn544
 _ZNK7blocxx83MapINS_6StringES1_St4lessIS1_EE3endEv@Base 2.3.0~svn544
 _ZNK7blocxx83MapINS_6StringES1_St4lessIS1_EE4findERKS1_@Base 2.3.0~svn544
 _ZNK7blocxx83MapINS_6StringES1_St4lessIS1_EE4sizeEv@Base 2.3.0~svn544
 _ZNK7blocxx83MapINS_6StringES1_St4lessIS1_EE5beginEv@Base 2.3.0~svn544
 _ZNK7blocxx842FileSystemMockObjectUnimplementedException4typeEv@Base 2.3.0~svn544
 _ZNK7blocxx842FileSystemMockObjectUnimplementedException5cloneEv@Base 2.3.0~svn544
 _ZNK7blocxx842FileSystemMockObjectUnimplementedException7rethrowEv@Base 2.3.0~svn544
 _ZNK7blocxx84Bool11writeObjectERSt15basic_streambufIcSt11char_traitsIcEE@Base 2.3.0~svn544
 _ZNK7blocxx84Bool8toStringEv@Base 2.3.0~svn544
 _ZNK7blocxx84BoolcvbEv@Base 2.3.0~svn544
 _ZNK7blocxx84File4readEPvml@Base 2.3.0~svn544
 _ZNK7blocxx84File4seekEli@Base 2.3.0~svn544
 _ZNK7blocxx84File4sizeEv@Base 2.3.0~svn544
 _ZNK7blocxx84File4tellEv@Base 2.3.0~svn544
 _ZNK7blocxx84FilecvMS0_iEv@Base 2.3.0~svn544
 _ZNK7blocxx84FilentEv@Base 2.3.0~svn544
 _ZNK7blocxx84JoinINS_9ReferenceINS_12StringBufferEEENS_6StringENS_8JoinImpl20StringBufferAppenderEE7storageEv@Base 2.3.0~svn544
 _ZNK7blocxx84Time10TimePeriod3endEv@Base 2.3.0~svn544
 _ZNK7blocxx84Time10TimePeriod5beginEv@Base 2.3.0~svn544
 _ZNK7blocxx84Time10TimePeriod5emptyEv@Base 2.3.0~svn544
 _ZNK7blocxx84Time10TimePeriod6lengthEv@Base 2.3.0~svn544
 _ZNK7blocxx84Time10TimePeriod8containsERKNS_8DateTimeE@Base 2.3.0~svn544
 _ZNK7blocxx84Time10TimePeriod8containsERKS1_@Base 2.3.0~svn544
 _ZNK7blocxx84Time10TimePeriod8toStringERKNS_6StringE@Base 2.3.0~svn544
 _ZNK7blocxx84Time10TimePeriod8toStringEv@Base 2.3.0~svn544
 _ZNK7blocxx84Time12TimeDuration10isInfiniteEv@Base 2.3.0~svn544
 _ZNK7blocxx84Time12TimeDuration11realSecondsEv@Base 2.3.0~svn544
 _ZNK7blocxx84Time12TimeDuration12completeDaysEv@Base 2.3.0~svn544
 _ZNK7blocxx84Time12TimeDuration12microsecondsEv@Base 2.3.0~svn544
 _ZNK7blocxx84Time12TimeDuration12minuteInHourEv@Base 2.3.0~svn544
 _ZNK7blocxx84Time12TimeDuration12relativeDaysEv@Base 2.3.0~svn544
 _ZNK7blocxx84Time12TimeDuration13completeHoursEv@Base 2.3.0~svn544
 _ZNK7blocxx84Time12TimeDuration14getSpecialFlagEv@Base 2.3.0~svn544
 _ZNK7blocxx84Time12TimeDuration14secondInMinuteEv@Base 2.3.0~svn544
 _ZNK7blocxx84Time12TimeDuration15completeMinutesEv@Base 2.3.0~svn544
 _ZNK7blocxx84Time12TimeDuration15completeSecondsEv@Base 2.3.0~svn544
 _ZNK7blocxx84Time12TimeDuration19microsecondInSecondEv@Base 2.3.0~svn544
 _ZNK7blocxx84Time12TimeDuration8toStringEPKc@Base 2.3.0~svn544
 _ZNK7blocxx84Time12TimeDuration8toStringEv@Base 2.3.0~svn544
 _ZNK7blocxx84Time12TimeDuration9hourInDayEv@Base 2.3.0~svn544
 _ZNK7blocxx84Time12TimeDuration9isInvalidEv@Base 2.3.0~svn544
 _ZNK7blocxx84Time12TimeDuration9isSpecialEv@Base 2.3.0~svn544
 _ZNK7blocxx84UUID8toStringEv@Base 2.3.0~svn544
 _ZNK7blocxx85ArrayI10regmatch_tE15checkValidIndexEm@Base 2.3.0~svn544
 _ZNK7blocxx85ArrayI10regmatch_tE4sizeEv@Base 2.3.0~svn544
 _ZNK7blocxx85ArrayI10regmatch_tE5emptyEv@Base 2.3.0~svn544
 _ZNK7blocxx85ArrayI10regmatch_tEixEm@Base 2.3.0~svn544
 _ZNK7blocxx85ArrayINS0_IcEEE15checkValidIndexEm@Base 2.3.0~svn544
 _ZNK7blocxx85ArrayINS0_IcEEE4sizeEv@Base 2.3.0~svn544
 _ZNK7blocxx85ArrayINS_18IntrusiveReferenceINS_11LogAppenderEEEE15checkValidIndexEm@Base 2.3.0~svn544
 _ZNK7blocxx85ArrayINS_18IntrusiveReferenceINS_11LogAppenderEEEE4sizeEv@Base 2.3.0~svn544
 _ZNK7blocxx85ArrayINS_18IntrusiveReferenceINS_11LogAppenderEEEEixEm@Base 2.3.0~svn544
 _ZNK7blocxx85ArrayINS_18IntrusiveReferenceINS_16ParserOptionImplEEEE3endEv@Base 2.3.0~svn544
 _ZNK7blocxx85ArrayINS_18IntrusiveReferenceINS_16ParserOptionImplEEEE4sizeEv@Base 2.3.0~svn544
 _ZNK7blocxx85ArrayINS_18IntrusiveReferenceINS_16ParserOptionImplEEEE5beginEv@Base 2.3.0~svn544
 _ZNK7blocxx85ArrayINS_18IntrusiveReferenceINS_26LogMessagePatternFormatter9ConverterEEEE3endEv@Base 2.3.0~svn544
 _ZNK7blocxx85ArrayINS_18IntrusiveReferenceINS_26LogMessagePatternFormatter9ConverterEEEE5beginEv@Base 2.3.0~svn544
 _ZNK7blocxx85ArrayINS_18IntrusiveReferenceINS_6ThreadEEEE15checkValidIndexEm@Base 2.3.0~svn544
 _ZNK7blocxx85ArrayINS_18IntrusiveReferenceINS_6ThreadEEEE4sizeEv@Base 2.3.0~svn544
 _ZNK7blocxx85ArrayINS_18IntrusiveReferenceINS_7ProcessEEEE15checkValidIndexEm@Base 2.3.0~svn544
 _ZNK7blocxx85ArrayINS_18IntrusiveReferenceINS_7ProcessEEEE4sizeEv@Base 2.3.0~svn544
 _ZNK7blocxx85ArrayINS_6Select12SelectObjectEE15checkValidIndexEm@Base 2.3.0~svn544
 _ZNK7blocxx85ArrayINS_6Select12SelectObjectEE4sizeEv@Base 2.3.0~svn544
 _ZNK7blocxx85ArrayINS_6Select12SelectObjectEE5emptyEv@Base 2.3.0~svn544
 _ZNK7blocxx85ArrayINS_6StringEE15checkValidIndexEm@Base 2.3.0~svn544
 _ZNK7blocxx85ArrayINS_6StringEE3endEv@Base 2.3.0~svn544
 _ZNK7blocxx85ArrayINS_6StringEE4sizeEv@Base 2.3.0~svn544
 _ZNK7blocxx85ArrayINS_6StringEE5beginEv@Base 2.3.0~svn544
 _ZNK7blocxx85ArrayINS_6StringEE5emptyEv@Base 2.3.0~svn544
 _ZNK7blocxx85ArrayINS_6StringEEixEm@Base 2.3.0~svn544
 _ZNK7blocxx85ArrayINS_9PerlRegEx7match_tEE15checkValidIndexEm@Base 2.3.0~svn544
 _ZNK7blocxx85ArrayINS_9PerlRegEx7match_tEE4sizeEv@Base 2.3.0~svn544
 _ZNK7blocxx85ArrayINS_9PerlRegEx7match_tEE5emptyEv@Base 2.3.0~svn544
 _ZNK7blocxx85ArrayINS_9PerlRegEx7match_tEEixEm@Base 2.3.0~svn544
 _ZNK7blocxx85ArrayINS_9ReferenceINS_22DelayedFormatInternals26DelayedFormatReferenceBaseEEEE15checkValidIndexEm@Base 2.3.0~svn544
 _ZNK7blocxx85ArrayINS_9ReferenceINS_22DelayedFormatInternals26DelayedFormatReferenceBaseEEEE4sizeEv@Base 2.3.0~svn544
 _ZNK7blocxx85ArrayINS_9ReferenceINS_22DelayedFormatInternals26DelayedFormatReferenceBaseEEEEixEm@Base 2.3.0~svn544
 _ZNK7blocxx85ArrayIP7x509_stE15checkValidIndexEm@Base 2.3.0~svn544
 _ZNK7blocxx85ArrayIP7x509_stE4sizeEv@Base 2.3.0~svn544
 _ZNK7blocxx85ArrayIP7x509_stEixEm@Base 2.3.0~svn544
 _ZNK7blocxx85ArrayIPKcE15checkValidIndexEm@Base 2.3.0~svn544
 _ZNK7blocxx85ArrayIPKcE4sizeEv@Base 2.3.0~svn544
 _ZNK7blocxx85ArrayISt4pairINS_6StringENS_17EFileStatusReturnEEE3endEv@Base 2.3.0~svn544
 _ZNK7blocxx85ArrayISt4pairINS_6StringENS_17EFileStatusReturnEEE5beginEv@Base 2.3.0~svn544
 _ZNK7blocxx85ArrayIcE15checkValidIndexEm@Base 2.3.0~svn544
 _ZNK7blocxx85ArrayIcE4sizeEv@Base 2.3.0~svn544
 _ZNK7blocxx85ArrayIcE5emptyEv@Base 2.3.0~svn544
 _ZNK7blocxx85ArrayIcEixEm@Base 2.3.0~svn544
 _ZNK7blocxx85ArrayIiE15checkValidIndexEm@Base 2.3.0~svn544
 _ZNK7blocxx85ArrayIiE4sizeEv@Base 2.3.0~svn544
 _ZNK7blocxx85ArrayIiEixEm@Base 2.3.0~svn544
 _ZNK7blocxx85ArrayItE15checkValidIndexEm@Base 2.3.0~svn544
 _ZNK7blocxx85ArrayItE4sizeEv@Base 2.3.0~svn544
 _ZNK7blocxx85ArrayItE5emptyEv@Base 2.3.0~svn544
 _ZNK7blocxx85ArrayItEixEm@Base 2.3.0~svn544
 _ZNK7blocxx86Char1611writeObjectERSt15basic_streambufIcSt11char_traitsIcEE@Base 2.3.0~svn544
 _ZNK7blocxx86Char168getValueEv@Base 2.3.0~svn544
 _ZNK7blocxx86Char168toStringEv@Base 2.3.0~svn544
 _ZNK7blocxx86Format5c_strEv@Base 2.3.0~svn544
 _ZNK7blocxx86Format8toStringEv@Base 2.3.0~svn544
 _ZNK7blocxx86FormatcvNS_6StringEEv@Base 2.3.0~svn544
 _ZNK7blocxx86Logger10logMessageERKNS_10LogMessageE@Base 2.3.0~svn544
 _ZNK7blocxx86Logger10logMessageERKNS_6StringES3_@Base 2.3.0~svn544
 _ZNK7blocxx86Logger10logMessageERKNS_6StringES3_PKciS5_@Base 2.3.0~svn544
 _ZNK7blocxx86Logger10logMessageERKNS_6StringES3_S3_@Base 2.3.0~svn544
 _ZNK7blocxx86Logger10logMessageERKNS_6StringES3_S3_PKciS5_@Base 2.3.0~svn544
 _ZNK7blocxx86Logger10logWarningERKNS_6StringEPKciS5_@Base 2.3.0~svn544
 _ZNK7blocxx86Logger11getLogLevelEv@Base 2.3.0~svn544
 _ZNK7blocxx86Logger13logFatalErrorERKNS_6StringEPKciS5_@Base 2.3.0~svn544
 _ZNK7blocxx86Logger14levelIsEnabledENS_9ELogLevelE@Base 2.3.0~svn544
 _ZNK7blocxx86Logger17categoryIsEnabledERKNS_6StringE@Base 2.3.0~svn544
 _ZNK7blocxx86Logger17processLogMessageERKNS_10LogMessageE@Base 2.3.0~svn544
 _ZNK7blocxx86Logger19getDefaultComponentEv@Base 2.3.0~svn544
 _ZNK7blocxx86Logger30componentAndCategoryAreEnabledERKNS_6StringES3_@Base 2.3.0~svn544
 _ZNK7blocxx86Logger7logInfoERKNS_6StringEPKciS5_@Base 2.3.0~svn544
 _ZNK7blocxx86Logger8logDebugERKNS_6StringEPKciS5_@Base 2.3.0~svn544
 _ZNK7blocxx86Logger8logErrorERKNS_6StringEPKciS5_@Base 2.3.0~svn544
 _ZNK7blocxx86Logger9logDebug2ERKNS_6StringEPKciS5_@Base 2.3.0~svn544
 _ZNK7blocxx86Logger9logDebug3ERKNS_6StringEPKciS5_@Base 2.3.0~svn544
 _ZNK7blocxx86Secure21ProcessAbortException4typeEv@Base 2.3.0~svn544
 _ZNK7blocxx86Secure21ProcessAbortException5cloneEv@Base 2.3.0~svn544
 _ZNK7blocxx86Secure21ProcessAbortException7rethrowEv@Base 2.3.0~svn544
 _ZNK7blocxx86Socket12getSelectObjEv@Base 2.3.0~svn544
 _ZNK7blocxx86Socket16peerCertVerifiedEv@Base 2.3.0~svn544
 _ZNK7blocxx86Socket6getSSLEv@Base 2.3.0~svn544
 _ZNK7blocxx86String10UTF8LengthEv@Base 2.3.0~svn544
 _ZNK7blocxx86String10startsWithEPKcNS0_15EIgnoreCaseFlagE@Base 2.3.0~svn544
 _ZNK7blocxx86String10startsWithERKS0_NS0_15EIgnoreCaseFlagE@Base 2.3.0~svn544
 _ZNK7blocxx86String10startsWithEc@Base 2.3.0~svn544
 _ZNK7blocxx86String11lastIndexOfEPKcm@Base 2.3.0~svn544
 _ZNK7blocxx86String11lastIndexOfEcm@Base 2.3.0~svn544
 _ZNK7blocxx86String11writeObjectERSt15basic_streambufIcSt11char_traitsIcEE@Base 2.3.0~svn544
 _ZNK7blocxx86String13toUnsignedIntEi@Base 2.3.0~svn544
 _ZNK7blocxx86String15allocateCStringEv@Base 2.3.0~svn544
 _ZNK7blocxx86String16equalsIgnoreCaseEPKc@Base 2.3.0~svn544
 _ZNK7blocxx86String16equalsIgnoreCaseERKS0_@Base 2.3.0~svn544
 _ZNK7blocxx86String19compareToIgnoreCaseEPKc@Base 2.3.0~svn544
 _ZNK7blocxx86String19compareToIgnoreCaseERKS0_@Base 2.3.0~svn544
 _ZNK7blocxx86String4sizeEv@Base 2.3.0~svn544
 _ZNK7blocxx86String5c_strEv@Base 2.3.0~svn544
 _ZNK7blocxx86String5emptyEv@Base 2.3.0~svn544
 _ZNK7blocxx86String5toIntEi@Base 2.3.0~svn544
 _ZNK7blocxx86String6charAtEm@Base 2.3.0~svn544
 _ZNK7blocxx86String6equalsEPKc@Base 2.3.0~svn544
 _ZNK7blocxx86String6equalsERKS0_@Base 2.3.0~svn544
 _ZNK7blocxx86String6lengthEv@Base 2.3.0~svn544
 _ZNK7blocxx86String6toBoolEv@Base 2.3.0~svn544
 _ZNK7blocxx86String6toInt8Ei@Base 2.3.0~svn544
 _ZNK7blocxx86String7ByteBuf4dataEv@Base 2.3.0~svn544
 _ZNK7blocxx86String7ByteBuf5cloneEv@Base 2.3.0~svn544
 _ZNK7blocxx86String7ByteBuf6lengthEv@Base 2.3.0~svn544
 _ZNK7blocxx86String7indexOfEPKcm@Base 2.3.0~svn544
 _ZNK7blocxx86String7indexOfERKS0_m@Base 2.3.0~svn544
 _ZNK7blocxx86String7indexOfEcm@Base 2.3.0~svn544
 _ZNK7blocxx86String7toInt16Ei@Base 2.3.0~svn544
 _ZNK7blocxx86String7toInt32Ei@Base 2.3.0~svn544
 _ZNK7blocxx86String7toInt64Ei@Base 2.3.0~svn544
 _ZNK7blocxx86String7toUInt8Ei@Base 2.3.0~svn544
 _ZNK7blocxx86String8endsWithEPKcNS0_15EIgnoreCaseFlagE@Base 2.3.0~svn544
 _ZNK7blocxx86String8endsWithEc@Base 2.3.0~svn544
 _ZNK7blocxx86String8hashCodeEv@Base 2.3.0~svn544
 _ZNK7blocxx86String8isSpacesEv@Base 2.3.0~svn544
 _ZNK7blocxx86String8toReal32Ev@Base 2.3.0~svn544
 _ZNK7blocxx86String8toReal64Ev@Base 2.3.0~svn544
 _ZNK7blocxx86String8toStringEv@Base 2.3.0~svn544
 _ZNK7blocxx86String8toUInt16Ei@Base 2.3.0~svn544
 _ZNK7blocxx86String8toUInt32Ei@Base 2.3.0~svn544
 _ZNK7blocxx86String8toUInt64Ei@Base 2.3.0~svn544
 _ZNK7blocxx86String8tokenizeEPKcNS0_21EReturnDelimitersFlagENS0_21EEmptyTokenReturnFlagE@Base 2.3.0~svn544
 _ZNK7blocxx86String9compareToEPKc@Base 2.3.0~svn544
 _ZNK7blocxx86String9compareToERKS0_@Base 2.3.0~svn544
 _ZNK7blocxx86String9substringEmm@Base 2.3.0~svn544
 _ZNK7blocxx86StringixEm@Base 2.3.0~svn544
 _ZNK7blocxx87AutoPtrINS_14TempFileBufferEEptEv@Base 2.3.0~svn544
 _ZNK7blocxx87AutoPtrINS_15ExceptionDetail13FormatMsgImplEEptEv@Base 2.3.0~svn544
 _ZNK7blocxx87AutoPtrINS_5ArrayINS_6StringEEEEdeEv@Base 2.3.0~svn544
 _ZNK7blocxx87AutoPtrINS_5ArrayINS_6StringEEEEptEv@Base 2.3.0~svn544
 _ZNK7blocxx87EnvVars10deleteEnvpEv@Base 2.3.0~svn544
 _ZNK7blocxx87EnvVars7getenvpEv@Base 2.3.0~svn544
 _ZNK7blocxx87EnvVars8getValueERKNS_6StringES3_@Base 2.3.0~svn544
 _ZNK7blocxx87FileBuf6isOpenEv@Base 2.3.0~svn544
 _ZNK7blocxx87Process2inEv@Base 2.3.0~svn544
 _ZNK7blocxx87Process3errEv@Base 2.3.0~svn544
 _ZNK7blocxx87Process3outEv@Base 2.3.0~svn544
 _ZNK7blocxx87Process3pidEv@Base 2.3.0~svn544
 _ZNK7blocxx87Process6Status10exitStatusEv@Base 2.3.0~svn544
 _ZNK7blocxx87Process6Status10stopSignalEv@Base 2.3.0~svn544
 _ZNK7blocxx87Process6Status10termSignalEv@Base 2.3.0~svn544
 _ZNK7blocxx87Process6Status10terminatedEv@Base 2.3.0~svn544
 _ZNK7blocxx87Process6Status14exitTerminatedEv@Base 2.3.0~svn544
 _ZNK7blocxx87Process6Status16signalTerminatedEv@Base 2.3.0~svn544
 _ZNK7blocxx87Process6Status21getPOSIXwaitpidStatusEv@Base 2.3.0~svn544
 _ZNK7blocxx87Process6Status22terminatedSuccessfullyEv@Base 2.3.0~svn544
 _ZNK7blocxx87Process6Status4reprERiS2_@Base 2.3.0~svn544
 _ZNK7blocxx87Process6Status7runningEv@Base 2.3.0~svn544
 _ZNK7blocxx87Process6Status7stoppedEv@Base 2.3.0~svn544
 _ZNK7blocxx87Process6Status8toStringEv@Base 2.3.0~svn544
 _ZNK7blocxx87Timeout11getAbsoluteEv@Base 2.3.0~svn544
 _ZNK7blocxx87Timeout11getRelativeEv@Base 2.3.0~svn544
 _ZNK7blocxx87Timeout7getTypeEv@Base 2.3.0~svn544
 _ZNK7blocxx88DateTime14getMicrosecondEv@Base 2.3.0~svn544
 _ZNK7blocxx88DateTime18getSpecialTimeFlagEv@Base 2.3.0~svn544
 _ZNK7blocxx88DateTime3getEv@Base 2.3.0~svn544
 _ZNK7blocxx88DateTime5getTmENS0_11ETimeOffsetE@Base 2.3.0~svn544
 _ZNK7blocxx88DateTime6getDayENS0_11ETimeOffsetE@Base 2.3.0~svn544
 _ZNK7blocxx88DateTime6getDowENS0_11ETimeOffsetE@Base 2.3.0~svn544
 _ZNK7blocxx88DateTime7getHourENS0_11ETimeOffsetE@Base 2.3.0~svn544
 _ZNK7blocxx88DateTime7getYearENS0_11ETimeOffsetE@Base 2.3.0~svn544
 _ZNK7blocxx88DateTime7toLocalER2tm@Base 2.3.0~svn544
 _ZNK7blocxx88DateTime8getMonthENS0_11ETimeOffsetE@Base 2.3.0~svn544
 _ZNK7blocxx88DateTime8toStringENS0_11ETimeOffsetE@Base 2.3.0~svn544
 _ZNK7blocxx88DateTime8toStringEPKcNS0_11ETimeOffsetE@Base 2.3.0~svn544
 _ZNK7blocxx88DateTime9getMinuteENS0_11ETimeOffsetE@Base 2.3.0~svn544
 _ZNK7blocxx88DateTime9getSecondENS0_11ETimeOffsetE@Base 2.3.0~svn544
 _ZNK7blocxx88DateTimeeqERKS0_@Base 2.3.0~svn544
 _ZNK7blocxx88DateTimegeERKS0_@Base 2.3.0~svn544
 _ZNK7blocxx88DateTimegtERKS0_@Base 2.3.0~svn544
 _ZNK7blocxx88DateTimeleERKS0_@Base 2.3.0~svn544
 _ZNK7blocxx88DateTimeltERKS0_@Base 2.3.0~svn544
 _ZNK7blocxx88DateTimeneERKS0_@Base 2.3.0~svn544
 _ZNK7blocxx88RWLocker14ThreadComparerclEmm@Base 2.3.0~svn544
 _ZNK7blocxx88RefCount3getEv@Base 2.3.0~svn544
 _ZNK7blocxx89ClockImpl3nowEv@Base 2.3.0~svn544
 _ZNK7blocxx89Exception10getMessageEv@Base 2.3.0~svn544
 _ZNK7blocxx89Exception12getErrorCodeEv@Base 2.3.0~svn544
 _ZNK7blocxx89Exception13getSubClassIdEv@Base 2.3.0~svn544
 _ZNK7blocxx89Exception15getSubExceptionEv@Base 2.3.0~svn544
 _ZNK7blocxx89Exception4typeEv@Base 2.3.0~svn544
 _ZNK7blocxx89Exception4whatEv@Base 2.3.0~svn544
 _ZNK7blocxx89Exception5cloneEv@Base 2.3.0~svn544
 _ZNK7blocxx89Exception7getFileEv@Base 2.3.0~svn544
 _ZNK7blocxx89Exception7getLineEv@Base 2.3.0~svn544
 _ZNK7blocxx89Exception7rethrowEv@Base 2.3.0~svn544
 _ZNK7blocxx89GlobalPtrINS_14ExecMockObjectENS_4Exec4Impl11NullFactoryEE3getEv@Base 2.3.0~svn544
 _ZNK7blocxx89GlobalPtrINS_20FileSystemMockObjectENS_10FileSystem11NullFactoryEE3getEv@Base 2.3.0~svn544
 _ZNK7blocxx89GlobalPtrINS_20FileSystemMockObjectENS_10FileSystem11NullFactoryEEcvMS4_PS1_Ev@Base 2.3.0~svn544
 _ZNK7blocxx89GlobalPtrINS_20FileSystemMockObjectENS_10FileSystem11NullFactoryEEptEv@Base 2.3.0~svn544
 _ZNK7blocxx89PerlRegEx10isCompiledEv@Base 2.3.0~svn544
 _ZNK7blocxx89PerlRegEx11errorStringEv@Base 2.3.0~svn544
 _ZNK7blocxx89PerlRegEx12compileFlagsEv@Base 2.3.0~svn544
 _ZNK7blocxx89PerlRegEx13patternStringEv@Base 2.3.0~svn544
 _ZNK7blocxx89PerlRegEx5matchERKNS_6StringEmi@Base 2.3.0~svn544
 _ZNK7blocxx89PosixExec13SystemPreExec7keepStdEi@Base 2.3.0~svn544
 _ZNK7blocxx89PosixExec15StandardPreExec7keepStdEi@Base 2.3.0~svn544
 _ZNK7blocxx89ReferenceINS_12StringBufferEEcvMS2_VPS1_Ev@Base 2.3.0~svn544
 _ZNK7blocxx89ReferenceINS_12StringBufferEEntEv@Base 2.3.0~svn544
 _ZNK7blocxx89ReferenceINS_12StringBufferEEptEv@Base 2.3.0~svn544
 _ZNK7blocxx89ReferenceINS_13DelayedFormatEEcvMS2_VPS1_Ev@Base 2.3.0~svn544
 _ZNK7blocxx89ReferenceINS_13DelayedFormatEEptEv@Base 2.3.0~svn544
 _ZNK7blocxx89ReferenceINS_22DelayedFormatInternals26DelayedFormatReferenceBaseEEdeEv@Base 2.3.0~svn544
 _ZNK7blocxx89ReferenceINS_9ExceptionEE6getPtrEv@Base 2.3.0~svn544
 _ZNK9__gnu_cxx13new_allocatorI10regmatch_tE8max_sizeEv@Base 2.3.0~svn544
 _ZNK9__gnu_cxx13new_allocatorIN7blocxx818IntrusiveReferenceINS1_11LogAppenderEEEE8max_sizeEv@Base 2.3.0~svn544
 _ZNK9__gnu_cxx13new_allocatorIN7blocxx818IntrusiveReferenceINS1_16ParserOptionImplEEEE8max_sizeEv@Base 2.3.0~svn544
 _ZNK9__gnu_cxx13new_allocatorIN7blocxx818IntrusiveReferenceINS1_26LogMessagePatternFormatter9ConverterEEEE8max_sizeEv@Base 2.3.0~svn544
 _ZNK9__gnu_cxx13new_allocatorIN7blocxx818IntrusiveReferenceINS1_6ThreadEEEE8max_sizeEv@Base 2.3.0~svn544
 _ZNK9__gnu_cxx13new_allocatorIN7blocxx818IntrusiveReferenceINS1_7ProcessEEEE8max_sizeEv@Base 2.3.0~svn544
 _ZNK9__gnu_cxx13new_allocatorIN7blocxx818IntrusiveReferenceINS1_8RunnableEEEE8max_sizeEv@Base 2.3.0~svn544
 _ZNK9__gnu_cxx13new_allocatorIN7blocxx85ArrayIcEEE8max_sizeEv@Base 2.3.0~svn544
 _ZNK9__gnu_cxx13new_allocatorIN7blocxx86Select12SelectObjectEE8max_sizeEv@Base 2.3.0~svn544
 _ZNK9__gnu_cxx13new_allocatorIN7blocxx86StringEE8max_sizeEv@Base 2.3.0~svn544
 _ZNK9__gnu_cxx13new_allocatorIN7blocxx89PerlRegEx7match_tEE8max_sizeEv@Base 2.3.0~svn544
 _ZNK9__gnu_cxx13new_allocatorIPKcE8max_sizeEv@Base 2.3.0~svn544
 _ZNK9__gnu_cxx13new_allocatorIPN7blocxx818IntrusiveReferenceINS1_8RunnableEEEE8max_sizeEv@Base 2.3.0~svn544
 _ZNK9__gnu_cxx13new_allocatorISt13_Rb_tree_nodeISt4pairIKN7blocxx86StringENS3_13SSLTrustStore8UserInfoEEEE8max_sizeEv@Base 2.3.0~svn544
 _ZNK9__gnu_cxx13new_allocatorISt13_Rb_tree_nodeISt4pairIKN7blocxx86StringES4_EEE8max_sizeEv@Base 2.3.0~svn544
 _ZNK9__gnu_cxx13new_allocatorISt13_Rb_tree_nodeISt4pairIKiiEEE8max_sizeEv@Base 2.3.0~svn544
 _ZNK9__gnu_cxx13new_allocatorISt13_Rb_tree_nodeISt4pairIKmN7blocxx817GenericRWLockImplImNS4_8RWLocker14ThreadComparerEE10LockerInfoEEEE8max_sizeEv@Base 2.3.0~svn544
 _ZNK9__gnu_cxx13new_allocatorISt4pairIN7blocxx86StringENS2_17EFileStatusReturnEEE8max_sizeEv@Base 2.3.0~svn544
 _ZNK9__gnu_cxx13new_allocatorISt4pairIiN7blocxx812SelectEngine4DataEEE8max_sizeEv@Base 2.3.0~svn544
 _ZNK9__gnu_cxx13new_allocatorISt4pairIiN7blocxx85ArrayINS2_6StringEEEEE8max_sizeEv@Base 2.3.0~svn544
 _ZNK9__gnu_cxx13new_allocatorIcE8max_sizeEv@Base 2.3.0~svn544
 _ZNK9__gnu_cxx13new_allocatorIhE8max_sizeEv@Base 2.3.0~svn544
 _ZNK9__gnu_cxx13new_allocatorIiE8max_sizeEv@Base 2.3.0~svn544
 _ZNK9__gnu_cxx13new_allocatorItE8max_sizeEv@Base 2.3.0~svn544
 _ZNK9__gnu_cxx17__normal_iteratorIP10regmatch_tNSt9__cxx19986vectorIS1_SaIS1_EEEE4baseEv@Base 2.3.0~svn544
 _ZNK9__gnu_cxx17__normal_iteratorIPK10regmatch_tNSt9__cxx19986vectorIS1_SaIS1_EEEE4baseEv@Base 2.3.0~svn544
 _ZNK9__gnu_cxx17__normal_iteratorIPK10regmatch_tNSt9__cxx19986vectorIS1_SaIS1_EEEEdeEv@Base 2.3.0~svn544
 _ZNK9__gnu_cxx17__normal_iteratorIPKN7blocxx818IntrusiveReferenceINS1_11LogAppenderEEENSt9__cxx19986vectorIS4_SaIS4_EEEE4baseEv@Base 2.3.0~svn544
 _ZNK9__gnu_cxx17__normal_iteratorIPKN7blocxx818IntrusiveReferenceINS1_11LogAppenderEEENSt9__cxx19986vectorIS4_SaIS4_EEEEdeEv@Base 2.3.0~svn544
 _ZNK9__gnu_cxx17__normal_iteratorIPKN7blocxx818IntrusiveReferenceINS1_16ParserOptionImplEEENSt9__cxx19986vectorIS4_SaIS4_EEEE4baseEv@Base 2.3.0~svn544
 _ZNK9__gnu_cxx17__normal_iteratorIPKN7blocxx818IntrusiveReferenceINS1_16ParserOptionImplEEENSt9__cxx19986vectorIS4_SaIS4_EEEEdeEv@Base 2.3.0~svn544
 _ZNK9__gnu_cxx17__normal_iteratorIPKN7blocxx818IntrusiveReferenceINS1_26LogMessagePatternFormatter9ConverterEEENSt9__cxx19986vectorIS5_SaIS5_EEEE4baseEv@Base 2.3.0~svn544
 _ZNK9__gnu_cxx17__normal_iteratorIPKN7blocxx818IntrusiveReferenceINS1_26LogMessagePatternFormatter9ConverterEEENSt9__cxx19986vectorIS5_SaIS5_EEEEdeEv@Base 2.3.0~svn544
 _ZNK9__gnu_cxx17__normal_iteratorIPKN7blocxx818IntrusiveReferenceINS1_6ThreadEEENSt9__cxx19986vectorIS4_SaIS4_EEEE4baseEv@Base 2.3.0~svn544
 _ZNK9__gnu_cxx17__normal_iteratorIPKN7blocxx818IntrusiveReferenceINS1_6ThreadEEENSt9__cxx19986vectorIS4_SaIS4_EEEEdeEv@Base 2.3.0~svn544
 _ZNK9__gnu_cxx17__normal_iteratorIPKN7blocxx818IntrusiveReferenceINS1_7ProcessEEENSt9__cxx19986vectorIS4_SaIS4_EEEE4baseEv@Base 2.3.0~svn544
 _ZNK9__gnu_cxx17__normal_iteratorIPKN7blocxx818IntrusiveReferenceINS1_7ProcessEEENSt9__cxx19986vectorIS4_SaIS4_EEEEdeEv@Base 2.3.0~svn544
 _ZNK9__gnu_cxx17__normal_iteratorIPKN7blocxx85ArrayIcEENSt9__cxx19986vectorIS3_SaIS3_EEEE4baseEv@Base 2.3.0~svn544
 _ZNK9__gnu_cxx17__normal_iteratorIPKN7blocxx85ArrayIcEENSt9__cxx19986vectorIS3_SaIS3_EEEEdeEv@Base 2.3.0~svn544
 _ZNK9__gnu_cxx17__normal_iteratorIPKN7blocxx86Select12SelectObjectENSt9__cxx19986vectorIS3_SaIS3_EEEE4baseEv@Base 2.3.0~svn544
 _ZNK9__gnu_cxx17__normal_iteratorIPKN7blocxx86Select12SelectObjectENSt9__cxx19986vectorIS3_SaIS3_EEEEdeEv@Base 2.3.0~svn544
 _ZNK9__gnu_cxx17__normal_iteratorIPKN7blocxx86StringENSt9__cxx19986vectorIS2_SaIS2_EEEE4baseEv@Base 2.3.0~svn544
 _ZNK9__gnu_cxx17__normal_iteratorIPKN7blocxx86StringENSt9__cxx19986vectorIS2_SaIS2_EEEEdeEv@Base 2.3.0~svn544
 _ZNK9__gnu_cxx17__normal_iteratorIPKN7blocxx89PerlRegEx7match_tENSt9__cxx19986vectorIS3_SaIS3_EEEE4baseEv@Base 2.3.0~svn544
 _ZNK9__gnu_cxx17__normal_iteratorIPKN7blocxx89PerlRegEx7match_tENSt9__cxx19986vectorIS3_SaIS3_EEEEdeEv@Base 2.3.0~svn544
 _ZNK9__gnu_cxx17__normal_iteratorIPKPKcNSt9__cxx19986vectorIS2_SaIS2_EEEE4baseEv@Base 2.3.0~svn544
 _ZNK9__gnu_cxx17__normal_iteratorIPKSt4pairIN7blocxx86StringENS2_17EFileStatusReturnEENSt9__cxx19986vectorIS5_SaIS5_EEEE4baseEv@Base 2.3.0~svn544
 _ZNK9__gnu_cxx17__normal_iteratorIPKSt4pairIN7blocxx86StringENS2_17EFileStatusReturnEENSt9__cxx19986vectorIS5_SaIS5_EEEEdeEv@Base 2.3.0~svn544
 _ZNK9__gnu_cxx17__normal_iteratorIPKSt4pairIN7blocxx86StringES3_ENSt9__cxx19986vectorIS4_SaIS4_EEEE4baseEv@Base 2.3.0~svn544
 _ZNK9__gnu_cxx17__normal_iteratorIPKSt4pairIN7blocxx86StringES3_ENSt9__cxx19986vectorIS4_SaIS4_EEEEdeEv@Base 2.3.0~svn544
 _ZNK9__gnu_cxx17__normal_iteratorIPKSt4pairIiN7blocxx812SelectEngine4DataEENSt9__cxx19986vectorIS5_SaIS5_EEEE4baseEv@Base 2.3.0~svn544
 _ZNK9__gnu_cxx17__normal_iteratorIPKSt4pairIiN7blocxx812SelectEngine4DataEENSt9__cxx19986vectorIS5_SaIS5_EEEEdeEv@Base 2.3.0~svn544
 _ZNK9__gnu_cxx17__normal_iteratorIPKSt4pairIiN7blocxx85ArrayINS2_6StringEEEENSt9__cxx19986vectorIS6_SaIS6_EEEE4baseEv@Base 2.3.0~svn544
 _ZNK9__gnu_cxx17__normal_iteratorIPKSt4pairIiN7blocxx85ArrayINS2_6StringEEEENSt9__cxx19986vectorIS6_SaIS6_EEEEdeEv@Base 2.3.0~svn544
 _ZNK9__gnu_cxx17__normal_iteratorIPKcNSt9__cxx19986vectorIcSaIcEEEE4baseEv@Base 2.3.0~svn544
 _ZNK9__gnu_cxx17__normal_iteratorIPKhNSt9__cxx19986vectorIhSaIhEEEE4baseEv@Base 2.3.0~svn544
 _ZNK9__gnu_cxx17__normal_iteratorIPKiNSt9__cxx19986vectorIiSaIiEEEE4baseEv@Base 2.3.0~svn544
 _ZNK9__gnu_cxx17__normal_iteratorIPKtNSt9__cxx19986vectorItSaItEEEE4baseEv@Base 2.3.0~svn544
 _ZNK9__gnu_cxx17__normal_iteratorIPN7blocxx818IntrusiveReferenceINS1_11LogAppenderEEENSt9__cxx19986vectorIS4_SaIS4_EEEE4baseEv@Base 2.3.0~svn544
 _ZNK9__gnu_cxx17__normal_iteratorIPN7blocxx818IntrusiveReferenceINS1_11LogAppenderEEENSt9__cxx19986vectorIS4_SaIS4_EEEEdeEv@Base 2.3.0~svn544
 _ZNK9__gnu_cxx17__normal_iteratorIPN7blocxx818IntrusiveReferenceINS1_16ParserOptionImplEEENSt9__cxx19986vectorIS4_SaIS4_EEEE4baseEv@Base 2.3.0~svn544
 _ZNK9__gnu_cxx17__normal_iteratorIPN7blocxx818IntrusiveReferenceINS1_16ParserOptionImplEEENSt9__cxx19986vectorIS4_SaIS4_EEEEdeEv@Base 2.3.0~svn544
 _ZNK9__gnu_cxx17__normal_iteratorIPN7blocxx818IntrusiveReferenceINS1_26LogMessagePatternFormatter9ConverterEEENSt9__cxx19986vectorIS5_SaIS5_EEEE4baseEv@Base 2.3.0~svn544
 _ZNK9__gnu_cxx17__normal_iteratorIPN7blocxx818IntrusiveReferenceINS1_26LogMessagePatternFormatter9ConverterEEENSt9__cxx19986vectorIS5_SaIS5_EEEEdeEv@Base 2.3.0~svn544
 _ZNK9__gnu_cxx17__normal_iteratorIPN7blocxx818IntrusiveReferenceINS1_6ThreadEEENSt9__cxx19986vectorIS4_SaIS4_EEEE4baseEv@Base 2.3.0~svn544
 _ZNK9__gnu_cxx17__normal_iteratorIPN7blocxx818IntrusiveReferenceINS1_6ThreadEEENSt9__cxx19986vectorIS4_SaIS4_EEEEdeEv@Base 2.3.0~svn544
